 line   address	contents
    1                      ; Linked by DLX-LD.
    2                      ; MemSize 151552
    3                      ; Data size: 62748
    4                      ; Text size: 71048
    5                      ; Stack size: 8192
    6  00000000          	.text 0x1000
    7  00001000          	.data 0x13000
    8                      ; Compiled by GCC
    9  00013000          	.text
   10  00001000          	.align 2
   11  00001000          	.proc _isspace
   12  00001000          	.global _isspace
   13  00001000          	_isspace:
   14                      ;  Function 'isspace'; 0 bytes of locals, 3 regs to save.
   15  00001000  afbefffc	sw	-4(r29),r30; push fp
   16  00001004  001df020	add	r30,r0,r29; fp = sp
   17  00001008  afbffff8	sw	-8(r29),r31; push ret addr
   18  0000100c  2fbd0018	subui	r29,r29,#24; alloc local storage
   19  00001010  afa20000	sw	0(r29),r2
   20  00001014  afa30004	sw	4(r29),r3
   21  00001018  afa40008	sw	8(r29),r4
   22  0000101c  83c20003	lb	r2,3(r30)
   23  00001020  20010000	addi	r1,r0,#0
   24  00001024  304300ff	andi	r3,r2,#0x00ff
   25  00001028  60640020	seqi	r4,r3,#32
   26  0000102c  1480002c	bnez	r4,L3_LF0
   27  00001030  54000000	nop; delay slot nop
   28  00001034  304300ff	andi	r3,r2,#0x00ff
   29  00001038  60640009	seqi	r4,r3,#9
   30  0000103c  1480001c	bnez	r4,L3_LF0
   31  00001040  54000000	nop; delay slot nop
   32  00001044  304300ff	andi	r3,r2,#0x00ff
   33  00001048  6064000a	seqi	r4,r3,#10
   34  0000104c  1480000c	bnez	r4,L3_LF0
   35  00001050  54000000	nop; delay slot nop
   36  00001054  08000008	j	L2_LF0
   37  00001058  54000000	nop; delay slot nop
   38  0000105c          	L3_LF0:
   39  0000105c  20010001	addi	r1,r0,#1
   40  00001060          	L2_LF0:
   41  00001060  08000004	j	L1_LF0
   42  00001064  54000000	nop; delay slot nop
   43  00001068          	L1_LF0:
   44  00001068  8fa20000	lw	r2,0(r29)
   45  0000106c  8fa30004	lw	r3,4(r29)
   46  00001070  8fa40008	lw	r4,8(r29)
   47  00001074  8fdffff8	lw	r31,-8(r30)
   48  00001078  001ee820	add	r29,r0,r30
   49  0000107c  8fdefffc	lw	r30,-4(r30)
   50  00001080  4be00000	jr	r31
   51  00001084  54000000	nop
   52  00001088          	.endproc _isspace
   53  00001088          	.align 2
   54  00001088          	.proc _isxdigit
   55  00001088          	.global _isxdigit
   56  00001088          	_isxdigit:
   57                      ;  Function 'isxdigit'; 0 bytes of locals, 3 regs to save.
   58  00001088  afbefffc	sw	-4(r29),r30; push fp
   59  0000108c  001df020	add	r30,r0,r29; fp = sp
   60  00001090  afbffff8	sw	-8(r29),r31; push ret addr
   61  00001094  2fbd0018	subui	r29,r29,#24; alloc local storage
   62  00001098  afa20000	sw	0(r29),r2
   63  0000109c  afa30004	sw	4(r29),r3
   64  000010a0  afa40008	sw	8(r29),r4
   65  000010a4  83c20003	lb	r2,3(r30)
   66  000010a8  20010000	addi	r1,r0,#0
   67  000010ac  304300ff	andi	r3,r2,#0x00ff
   68  000010b0  6c64002f	sgtui	r4,r3,#47
   69  000010b4  1080001c	beqz	r4,L7_LF0
   70  000010b8  54000000	nop; delay slot nop
   71  000010bc  304300ff	andi	r3,r2,#0x00ff
   72  000010c0  70640039	sleui	r4,r3,#57
   73  000010c4  1480005c	bnez	r4,L6_LF0
   74  000010c8  54000000	nop; delay slot nop
   75  000010cc  08000004	j	L7_LF0
   76  000010d0  54000000	nop; delay slot nop
   77  000010d4          	L7_LF0:
   78  000010d4  304300ff	andi	r3,r2,#0x00ff
   79  000010d8  6c640060	sgtui	r4,r3,#96
   80  000010dc  1080001c	beqz	r4,L8_LF0
   81  000010e0  54000000	nop; delay slot nop
   82  000010e4  304300ff	andi	r3,r2,#0x00ff
   83  000010e8  70640066	sleui	r4,r3,#102
   84  000010ec  14800034	bnez	r4,L6_LF0
   85  000010f0  54000000	nop; delay slot nop
   86  000010f4  08000004	j	L8_LF0
   87  000010f8  54000000	nop; delay slot nop
   88  000010fc          	L8_LF0:
   89  000010fc  304300ff	andi	r3,r2,#0x00ff
   90  00001100  6c640040	sgtui	r4,r3,#64
   91  00001104  10800020	beqz	r4,L5_LF0
   92  00001108  54000000	nop; delay slot nop
   93  0000110c  304300ff	andi	r3,r2,#0x00ff
   94  00001110  70640041	sleui	r4,r3,#65
   95  00001114  1480000c	bnez	r4,L6_LF0
   96  00001118  54000000	nop; delay slot nop
   97  0000111c  08000008	j	L5_LF0
   98  00001120  54000000	nop; delay slot nop
   99  00001124          	L6_LF0:
  100  00001124  20010001	addi	r1,r0,#1
  101  00001128          	L5_LF0:
  102  00001128  08000004	j	L4_LF0
  103  0000112c  54000000	nop; delay slot nop
  104  00001130          	L4_LF0:
  105  00001130  8fa20000	lw	r2,0(r29)
  106  00001134  8fa30004	lw	r3,4(r29)
  107  00001138  8fa40008	lw	r4,8(r29)
  108  0000113c  8fdffff8	lw	r31,-8(r30)
  109  00001140  001ee820	add	r29,r0,r30
  110  00001144  8fdefffc	lw	r30,-4(r30)
  111  00001148  4be00000	jr	r31
  112  0000114c  54000000	nop
  113  00001150          	.endproc _isxdigit
  114  00001150          	.align 2
  115  00001150          	.proc _DisableIntrs
  116  00001150          	.global _DisableIntrs
  117  00001150          	_DisableIntrs:
  118                      ;  Function 'DisableIntrs'; 0 bytes of locals, 1 regs to save.
  119  00001150  afbefffc	sw	-4(r29),r30; push fp
  120  00001154  001df020	add	r30,r0,r29; fp = sp
  121  00001158  afbffff8	sw	-8(r29),r31; push ret addr
  122  0000115c  2fbd0010	subui	r29,r29,#16; alloc local storage
  123  00001160  afa20000	sw	0(r29),r2
  124  00001164  23bdfff8	addi	r29,r29,#-8
  125  00001168  001d0820	add	r1,r0,r29
  126  0000116c  2002000f	addi	r2,r0,#15
  127  00001170  ac220000	sw	(r1),r2
  128  00001174  0c011304	jal	_SetIntrs
  129  00001178  54000000	nop; delay slot nop
  130  0000117c  23bd0008	addi	r29,r29,#8
  131  00001180  00011020	add	r2,r0,r1
  132  00001184  00020820	add	r1,r0,r2
  133  00001188  08000004	j	L9_LF0
  134  0000118c  54000000	nop; delay slot nop
  135  00001190          	L9_LF0:
  136  00001190  8fa20000	lw	r2,0(r29)
  137  00001194  8fdffff8	lw	r31,-8(r30)
  138  00001198  001ee820	add	r29,r0,r30
  139  0000119c  8fdefffc	lw	r30,-4(r30)
  140  000011a0  4be00000	jr	r31
  141  000011a4  54000000	nop
  142  000011a8          	.endproc _DisableIntrs
  143  000011a8          	.align 2
  144  000011a8          	.proc _EnableIntrs
  145  000011a8          	.global _EnableIntrs
  146  000011a8          	_EnableIntrs:
  147                      ;  Function 'EnableIntrs'; 0 bytes of locals, 1 regs to save.
  148  000011a8  afbefffc	sw	-4(r29),r30; push fp
  149  000011ac  001df020	add	r30,r0,r29; fp = sp
  150  000011b0  afbffff8	sw	-8(r29),r31; push ret addr
  151  000011b4  2fbd0010	subui	r29,r29,#16; alloc local storage
  152  000011b8  afa20000	sw	0(r29),r2
  153  000011bc  23bdfff8	addi	r29,r29,#-8
  154  000011c0  001d0820	add	r1,r0,r29
  155  000011c4  20020000	addi	r2,r0,#0
  156  000011c8  ac220000	sw	(r1),r2
  157  000011cc  0c0112ac	jal	_SetIntrs
  158  000011d0  54000000	nop; delay slot nop
  159  000011d4  23bd0008	addi	r29,r29,#8
  160  000011d8  00011020	add	r2,r0,r1
  161  000011dc  00020820	add	r1,r0,r2
  162  000011e0  08000004	j	L10_LF0
  163  000011e4  54000000	nop; delay slot nop
  164  000011e8          	L10_LF0:
  165  000011e8  8fa20000	lw	r2,0(r29)
  166  000011ec  8fdffff8	lw	r31,-8(r30)
  167  000011f0  001ee820	add	r29,r0,r30
  168  000011f4  8fdefffc	lw	r30,-4(r30)
  169  000011f8  4be00000	jr	r31
  170  000011fc  54000000	nop
  171  00001200          	.endproc _EnableIntrs
  172  00001200          	.align 2
  173  00001200          	.proc _RestoreIntrs
  174  00001200          	.global _RestoreIntrs
  175  00001200          	_RestoreIntrs:
  176                      ;  Function 'RestoreIntrs'; 0 bytes of locals, 2 regs to save.
  177  00001200  afbefffc	sw	-4(r29),r30; push fp
  178  00001204  001df020	add	r30,r0,r29; fp = sp
  179  00001208  afbffff8	sw	-8(r29),r31; push ret addr
  180  0000120c  2fbd0010	subui	r29,r29,#16; alloc local storage
  181  00001210  afa20000	sw	0(r29),r2
  182  00001214  afa30004	sw	4(r29),r3
  183  00001218  8fc20000	lw	r2,(r30)
  184  0000121c  23bdfff8	addi	r29,r29,#-8
  185  00001220  001d0820	add	r1,r0,r29
  186  00001224  ac220000	sw	(r1),r2
  187  00001228  0c011250	jal	_SetIntrs
  188  0000122c  54000000	nop; delay slot nop
  189  00001230  23bd0008	addi	r29,r29,#8
  190  00001234  00011820	add	r3,r0,r1
  191  00001238  00030820	add	r1,r0,r3
  192  0000123c  08000004	j	L11_LF0
  193  00001240  54000000	nop; delay slot nop
  194  00001244          	L11_LF0:
  195  00001244  8fa20000	lw	r2,0(r29)
  196  00001248  8fa30004	lw	r3,4(r29)
  197  0000124c  8fdffff8	lw	r31,-8(r30)
  198  00001250  001ee820	add	r29,r0,r30
  199  00001254  8fdefffc	lw	r30,-4(r30)
  200  00001258  4be00000	jr	r31
  201  0000125c  54000000	nop
  202  00001260          	.endproc _RestoreIntrs
  203  00001260          	.data
  204  00013000          	.align 2
  205  00013000          	LC0_LF0:
  206  00013000  41747465	.ascii "Attepmting to open %s mode=%d.\n\000"
  206  00013004  706d7469	
  206  00013008  6e672074	
  206  0001300c  6f206f70	
  206  00013010  656e2025	
  206  00013014  73206d6f	
  206  00013018  64653d25	
  206  0001301c  642e0a00	
  207  00013020          	.align 2
  208  00013020          	LC1_LF0:
  209  00013020  646c783a	.ascii "dlx:\000"
  209  00013024  00      	
  210  00013025          	.align 2
  211  00013028          	LC2_LF0:
  212  00013028  46696c65	.ascii "File %s opening in file system %d.\n\000"
  212  0001302c  20257320	
  212  00013030  6f70656e	
  212  00013034  696e6720	
  212  00013038  696e2066	
  212  0001303c  696c6520	
  212  00013040  73797374	
  212  00013044  656d2025	
  212  00013048  642e0a00	
  213  0001304c          	.align 2
  214  0001304c          	LC3_LF0:
  215  0001304c  4f70656e	.ascii "Opened %s in FS %d, mode=%d slot=%d.\n\000"
  215  00013050  65642025	
  215  00013054  7320696e	
  215  00013058  20465320	
  215  0001305c  25642c20	
  215  00013060  6d6f6465	
  215  00013064  3d256420	
  215  00013068  736c6f74	
  215  0001306c  3d25642e	
  215  00013070  0a00    	
  216  00013072          	.text
  217  00001260          	.align 2
  218  00001260          	.proc _FsOpen
  219  00001260          	.global _FsOpen
  220  00001260          	_FsOpen:
  221                      ;  Function 'FsOpen'; 8 bytes of locals, 4 regs to save.
  222  00001260  afbefffc	sw	-4(r29),r30; push fp
  223  00001264  001df020	add	r30,r0,r29; fp = sp
  224  00001268  afbffff8	sw	-8(r29),r31; push ret addr
  225  0000126c  2fbd0020	subui	r29,r29,#32; alloc local storage
  226  00001270  afa20000	sw	0(r29),r2
  227  00001274  afa30004	sw	4(r29),r3
  228  00001278  afa40008	sw	8(r29),r4
  229  0000127c  afa5000c	sw	12(r29),r5
  230  00001280  23bdfff8	addi	r29,r29,#-8
  231  00001284  001d0820	add	r1,r0,r29
  232  00001288  3c020001	lhi	r2,((_debugstr)>>16)&0xffff
  233  0000128c  244261cb	addui	r2,r2,(_debugstr)&0xffff
  234  00001290  ac220000	sw	(r1),r2
  235  00001294  20020066	addi	r2,r0,#102
  236  00001298  ac220004	sw	4(r1),r2
  237  0000129c  0c0031b4	jal	_dindex
  238  000012a0  54000000	nop; delay slot nop
  239  000012a4  23bd0008	addi	r29,r29,#8
  240  000012a8  64220000	snei	r2,r1,#0
  241  000012ac  10400034	beqz	r2,L19_LF0
  242  000012b0  54000000	nop; delay slot nop
  243  000012b4  23bdfff0	addi	r29,r29,#-16
  244  000012b8  001d0820	add	r1,r0,r29
  245  000012bc  3c020001	lhi	r2,((LC0_LF0)>>16)&0xffff
  246  000012c0  24423000	addui	r2,r2,(LC0_LF0)&0xffff
  247  000012c4  ac220000	sw	(r1),r2
  248  000012c8  8fc20000	lw	r2,(r30)
  249  000012cc  ac220004	sw	4(r1),r2
  250  000012d0  8fc20004	lw	r2,4(r30)
  251  000012d4  ac220008	sw	8(r1),r2
  252  000012d8  0c0112a0	jal	_printf
  253  000012dc  54000000	nop; delay slot nop
  254  000012e0  23bd0010	addi	r29,r29,#16
  255  000012e4          	L19_LF0:
  256  000012e4  23bdfff8	addi	r29,r29,#-8
  257  000012e8  001d0820	add	r1,r0,r29
  258  000012ec  3c020001	lhi	r2,((_debugstr)>>16)&0xffff
  259  000012f0  244261cb	addui	r2,r2,(_debugstr)&0xffff
  260  000012f4  ac220000	sw	(r1),r2
  261  000012f8  2002002b	addi	r2,r0,#43
  262  000012fc  ac220004	sw	4(r1),r2
  263  00001300  0c003150	jal	_dindex
  264  00001304  54000000	nop; delay slot nop
  265  00001308  23bd0008	addi	r29,r29,#8
  266  0000130c  64220000	snei	r2,r1,#0
  267  00001310  10400034	beqz	r2,L20_LF0
  268  00001314  54000000	nop; delay slot nop
  269  00001318  23bdfff0	addi	r29,r29,#-16
  270  0000131c  001d0820	add	r1,r0,r29
  271  00001320  3c020001	lhi	r2,((LC0_LF0)>>16)&0xffff
  272  00001324  24423000	addui	r2,r2,(LC0_LF0)&0xffff
  273  00001328  ac220000	sw	(r1),r2
  274  0000132c  8fc20000	lw	r2,(r30)
  275  00001330  ac220004	sw	4(r1),r2
  276  00001334  8fc20004	lw	r2,4(r30)
  277  00001338  ac220008	sw	8(r1),r2
  278  0000133c  0c01123c	jal	_printf
  279  00001340  54000000	nop; delay slot nop
  280  00001344  23bd0010	addi	r29,r29,#16
  281  00001348          	L20_LF0:
  282  00001348  8fc10004	lw	r1,4(r30)
  283  0000134c  30220003	andi	r2,r1,#3
  284  00001350  afc20004	sw	4(r30),r2
  285  00001354  8fc10004	lw	r1,4(r30)
  286  00001358  64220000	snei	r2,r1,#0
  287  0000135c  14400010	bnez	r2,L21_LF0
  288  00001360  54000000	nop; delay slot nop
  289  00001364  2001ffff	addi	r1,r0,#-1
  290  00001368  0800048c	j	L18_LF0
  291  0000136c  54000000	nop; delay slot nop
  292  00001370          	L21_LF0:
  293  00001370  54000000	nop
  294  00001374  20010000	addi	r1,r0,#0
  295  00001378  afc1fff4	sw	-12(r30),r1
  296  0000137c          	L22_LF0:
  297  0000137c  8fc1fff4	lw	r1,-12(r30)
  298  00001380  7022001f	slei	r2,r1,#31
  299  00001384  1440000c	bnez	r2,L25_LF0
  300  00001388  54000000	nop; delay slot nop
  301  0000138c  0800005c	j	L23_LF0
  302  00001390  54000000	nop; delay slot nop
  303  00001394          	L25_LF0:
  304  00001394  8fc1fff4	lw	r1,-12(r30)
  305  00001398  00011820	add	r3,r0,r1
  306  0000139c  50620004	slli	r2,r3,#0x4
  307  000013a0  00411020	add	r2,r2,r1
  308  000013a4  50430002	slli	r3,r2,#0x2
  309  000013a8  00611822	sub	r3,r3,r1
  310  000013ac  50610002	slli	r1,r3,#0x2
  311  000013b0  3c050001	lhi	r5,((_openfiles_LF0)>>16)&0xffff
  312  000013b4  24a530d8	addui	r5,r5,(_openfiles_LF0)&0xffff
  313  000013b8  00251020	add	r2,r1,r5
  314  000013bc  8c410004	lw	r1,4(r2)
  315  000013c0  64220000	snei	r2,r1,#0
  316  000013c4  1440000c	bnez	r2,L24_LF0
  317  000013c8  54000000	nop; delay slot nop
  318  000013cc  0800001c	j	L23_LF0
  319  000013d0  54000000	nop; delay slot nop
  320  000013d4          	L26_LF0:
  321  000013d4          	L24_LF0:
  322  000013d4  8fc2fff4	lw	r2,-12(r30)
  323  000013d8  20410001	addi	r1,r2,#1
  324  000013dc  00011020	add	r2,r0,r1
  325  000013e0  afc2fff4	sw	-12(r30),r2
  326  000013e4  0bffff94	j	L22_LF0
  327  000013e8  54000000	nop; delay slot nop
  328  000013ec          	L23_LF0:
  329  000013ec  8fc1fff4	lw	r1,-12(r30)
  330  000013f0  6c22001f	sgti	r2,r1,#31
  331  000013f4  10400010	beqz	r2,L27_LF0
  332  000013f8  54000000	nop; delay slot nop
  333  000013fc  2001ffff	addi	r1,r0,#-1
  334  00001400  080003f4	j	L18_LF0
  335  00001404  54000000	nop; delay slot nop
  336  00001408          	L27_LF0:
  337  00001408  3c010001	lhi	r1,((_openfiles_LF0)>>16)&0xffff
  338  0000140c  242130d8	addui	r1,r1,(_openfiles_LF0)&0xffff
  339  00001410  8fc2fff4	lw	r2,-12(r30)
  340  00001414  00022020	add	r4,r0,r2
  341  00001418  50830004	slli	r3,r4,#0x4
  342  0000141c  00621820	add	r3,r3,r2
  343  00001420  50640002	slli	r4,r3,#0x2
  344  00001424  00822022	sub	r4,r4,r2
  345  00001428  50820002	slli	r2,r4,#0x2
  346  0000142c  00220820	add	r1,r1,r2
  347  00001430  8fc20004	lw	r2,4(r30)
  348  00001434  ac220004	sw	4(r1),r2
  349  00001438  23bdfff0	addi	r29,r29,#-16
  350  0000143c  001d0820	add	r1,r0,r29
  351  00001440  8fc20000	lw	r2,(r30)
  352  00001444  ac220000	sw	(r1),r2
  353  00001448  3c020001	lhi	r2,((LC1_LF0)>>16)&0xffff
  354  0000144c  24423020	addui	r2,r2,(LC1_LF0)&0xffff
  355  00001450  ac220004	sw	4(r1),r2
  356  00001454  20020004	addi	r2,r0,#4
  357  00001458  ac220008	sw	8(r1),r2
  358  0000145c  0c002c94	jal	_dstrncmp
  359  00001460  54000000	nop; delay slot nop
  360  00001464  23bd0010	addi	r29,r29,#16
  361  00001468  64220000	snei	r2,r1,#0
  362  0000146c  14400048	bnez	r2,L28_LF0
  363  00001470  54000000	nop; delay slot nop
  364  00001474  8fc10000	lw	r1,(r30)
  365  00001478  20220004	addi	r2,r1,#4
  366  0000147c  afc20000	sw	(r30),r2
  367  00001480  3c010001	lhi	r1,((_openfiles_LF0)>>16)&0xffff
  368  00001484  242130d8	addui	r1,r1,(_openfiles_LF0)&0xffff
  369  00001488  8fc2fff4	lw	r2,-12(r30)
  370  0000148c  00022020	add	r4,r0,r2
  371  00001490  50830004	slli	r3,r4,#0x4
  372  00001494  00621820	add	r3,r3,r2
  373  00001498  50640002	slli	r4,r3,#0x2
  374  0000149c  00822022	sub	r4,r4,r2
  375  000014a0  50820002	slli	r2,r4,#0x2
  376  000014a4  00220820	add	r1,r1,r2
  377  000014a8  20020001	addi	r2,r0,#1
  378  000014ac  ac220000	sw	(r1),r2
  379  000014b0  08000034	j	L29_LF0
  380  000014b4  54000000	nop; delay slot nop
  381  000014b8          	L28_LF0:
  382  000014b8  3c010001	lhi	r1,((_openfiles_LF0)>>16)&0xffff
  383  000014bc  242130d8	addui	r1,r1,(_openfiles_LF0)&0xffff
  384  000014c0  8fc2fff4	lw	r2,-12(r30)
  385  000014c4  00022020	add	r4,r0,r2
  386  000014c8  50830004	slli	r3,r4,#0x4
  387  000014cc  00621820	add	r3,r3,r2
  388  000014d0  50640002	slli	r4,r3,#0x2
  389  000014d4  00822022	sub	r4,r4,r2
  390  000014d8  50820002	slli	r2,r4,#0x2
  391  000014dc  00220820	add	r1,r1,r2
  392  000014e0  20020000	addi	r2,r0,#0
  393  000014e4  ac220000	sw	(r1),r2
  394  000014e8          	L29_LF0:
  395  000014e8  23bdfff8	addi	r29,r29,#-8
  396  000014ec  001d0820	add	r1,r0,r29
  397  000014f0  3c020001	lhi	r2,((_debugstr)>>16)&0xffff
  398  000014f4  244261cb	addui	r2,r2,(_debugstr)&0xffff
  399  000014f8  ac220000	sw	(r1),r2
  400  000014fc  20020066	addi	r2,r0,#102
  401  00001500  ac220004	sw	4(r1),r2
  402  00001504  0c002f4c	jal	_dindex
  403  00001508  54000000	nop; delay slot nop
  404  0000150c  23bd0008	addi	r29,r29,#8
  405  00001510  64220000	snei	r2,r1,#0
  406  00001514  1040005c	beqz	r2,L30_LF0
  407  00001518  54000000	nop; delay slot nop
  408  0000151c  23bdfff0	addi	r29,r29,#-16
  409  00001520  001d0820	add	r1,r0,r29
  410  00001524  3c020001	lhi	r2,((LC2_LF0)>>16)&0xffff
  411  00001528  24423028	addui	r2,r2,(LC2_LF0)&0xffff
  412  0000152c  ac220000	sw	(r1),r2
  413  00001530  8fc20000	lw	r2,(r30)
  414  00001534  ac220004	sw	4(r1),r2
  415  00001538  8fc2fff4	lw	r2,-12(r30)
  416  0000153c  00022020	add	r4,r0,r2
  417  00001540  50830004	slli	r3,r4,#0x4
  418  00001544  00621820	add	r3,r3,r2
  419  00001548  50640002	slli	r4,r3,#0x2
  420  0000154c  00822022	sub	r4,r4,r2
  421  00001550  50820002	slli	r2,r4,#0x2
  422  00001554  3c050001	lhi	r5,((_openfiles_LF0)>>16)&0xffff
  423  00001558  24a530d8	addui	r5,r5,(_openfiles_LF0)&0xffff
  424  0000155c  00451820	add	r3,r2,r5
  425  00001560  8c620000	lw	r2,(r3)
  426  00001564  ac220008	sw	8(r1),r2
  427  00001568  0c011010	jal	_printf
  428  0000156c  54000000	nop; delay slot nop
  429  00001570  23bd0010	addi	r29,r29,#16
  430  00001574          	L30_LF0:
  431  00001574  23bdfff8	addi	r29,r29,#-8
  432  00001578  001d0820	add	r1,r0,r29
  433  0000157c  3c020001	lhi	r2,((_debugstr)>>16)&0xffff
  434  00001580  244261cb	addui	r2,r2,(_debugstr)&0xffff
  435  00001584  ac220000	sw	(r1),r2
  436  00001588  2002002b	addi	r2,r0,#43
  437  0000158c  ac220004	sw	4(r1),r2
  438  00001590  0c002ec0	jal	_dindex
  439  00001594  54000000	nop; delay slot nop
  440  00001598  23bd0008	addi	r29,r29,#8
  441  0000159c  64220000	snei	r2,r1,#0
  442  000015a0  1040005c	beqz	r2,L31_LF0
  443  000015a4  54000000	nop; delay slot nop
  444  000015a8  23bdfff0	addi	r29,r29,#-16
  445  000015ac  001d0820	add	r1,r0,r29
  446  000015b0  3c020001	lhi	r2,((LC2_LF0)>>16)&0xffff
  447  000015b4  24423028	addui	r2,r2,(LC2_LF0)&0xffff
  448  000015b8  ac220000	sw	(r1),r2
  449  000015bc  8fc20000	lw	r2,(r30)
  450  000015c0  ac220004	sw	4(r1),r2
  451  000015c4  8fc2fff4	lw	r2,-12(r30)
  452  000015c8  00022020	add	r4,r0,r2
  453  000015cc  50830004	slli	r3,r4,#0x4
  454  000015d0  00621820	add	r3,r3,r2
  455  000015d4  50640002	slli	r4,r3,#0x2
  456  000015d8  00822022	sub	r4,r4,r2
  457  000015dc  50820002	slli	r2,r4,#0x2
  458  000015e0  3c050001	lhi	r5,((_openfiles_LF0)>>16)&0xffff
  459  000015e4  24a530d8	addui	r5,r5,(_openfiles_LF0)&0xffff
  460  000015e8  00451820	add	r3,r2,r5
  461  000015ec  8c620000	lw	r2,(r3)
  462  000015f0  ac220008	sw	8(r1),r2
  463  000015f4  0c010f84	jal	_printf
  464  000015f8  54000000	nop; delay slot nop
  465  000015fc  23bd0010	addi	r29,r29,#16
  466  00001600          	L31_LF0:
  467  00001600  23bdfff0	addi	r29,r29,#-16
  468  00001604  001d0820	add	r1,r0,r29
  469  00001608  8fc2fff4	lw	r2,-12(r30)
  470  0000160c  00022020	add	r4,r0,r2
  471  00001610  50830004	slli	r3,r4,#0x4
  472  00001614  00621820	add	r3,r3,r2
  473  00001618  50640002	slli	r4,r3,#0x2
  474  0000161c  00822022	sub	r4,r4,r2
  475  00001620  50820002	slli	r2,r4,#0x2
  476  00001624  3c050001	lhi	r5,((_openfiles_LF0)>>16)&0xffff
  477  00001628  24a530d8	addui	r5,r5,(_openfiles_LF0)&0xffff
  478  0000162c  00451820	add	r3,r2,r5
  479  00001630  8c620000	lw	r2,(r3)
  480  00001634  00022020	add	r4,r0,r2
  481  00001638  50830001	slli	r3,r4,#0x1
  482  0000163c  00621820	add	r3,r3,r2
  483  00001640  50640003	slli	r4,r3,#0x3
  484  00001644  3c050001	lhi	r5,((_fs_LF0)>>16)&0xffff
  485  00001648  24a530a8	addui	r5,r5,(_fs_LF0)&0xffff
  486  0000164c  00851020	add	r2,r4,r5
  487  00001650  8fc3fff4	lw	r3,-12(r30)
  488  00001654  ac230000	sw	(r1),r3
  489  00001658  8fc30000	lw	r3,(r30)
  490  0000165c  ac230004	sw	4(r1),r3
  491  00001660  8fc30004	lw	r3,4(r30)
  492  00001664  ac230008	sw	8(r1),r3
  493  00001668  8c420000	lw	r2,(r2)
  494  0000166c  4c400000	jalr	r2
  495  00001670  54000000	nop; delay slot nop
  496  00001674  23bd0010	addi	r29,r29,#16
  497  00001678  afc1fff0	sw	-16(r30),r1
  498  0000167c  8fc1fff0	lw	r1,-16(r30)
  499  00001680  68220000	slti	r2,r1,#0
  500  00001684  1040002c	beqz	r2,L32_LF0
  501  00001688  54000000	nop; delay slot nop
  502  0000168c  23bdfff8	addi	r29,r29,#-8
  503  00001690  001d0820	add	r1,r0,r29
  504  00001694  8fc2fff4	lw	r2,-12(r30)
  505  00001698  ac220000	sw	(r1),r2
  506  0000169c  0c000fdc	jal	_FsFreeEntry_LF0
  507  000016a0  54000000	nop; delay slot nop
  508  000016a4  23bd0008	addi	r29,r29,#8
  509  000016a8  8fc1fff0	lw	r1,-16(r30)
  510  000016ac  08000148	j	L18_LF0
  511  000016b0  54000000	nop; delay slot nop
  512  000016b4          	L32_LF0:
  513  000016b4  23bdfff8	addi	r29,r29,#-8
  514  000016b8  001d0820	add	r1,r0,r29
  515  000016bc  3c020001	lhi	r2,((_debugstr)>>16)&0xffff
  516  000016c0  244261cb	addui	r2,r2,(_debugstr)&0xffff
  517  000016c4  ac220000	sw	(r1),r2
  518  000016c8  20020066	addi	r2,r0,#102
  519  000016cc  ac220004	sw	4(r1),r2
  520  000016d0  0c002d80	jal	_dindex
  521  000016d4  54000000	nop; delay slot nop
  522  000016d8  23bd0008	addi	r29,r29,#8
  523  000016dc  64220000	snei	r2,r1,#0
  524  000016e0  1040006c	beqz	r2,L33_LF0
  525  000016e4  54000000	nop; delay slot nop
  526  000016e8  23bdffe8	addi	r29,r29,#-24
  527  000016ec  001d0820	add	r1,r0,r29
  528  000016f0  3c020001	lhi	r2,((LC3_LF0)>>16)&0xffff
  529  000016f4  2442304c	addui	r2,r2,(LC3_LF0)&0xffff
  530  000016f8  ac220000	sw	(r1),r2
  531  000016fc  8fc20000	lw	r2,(r30)
  532  00001700  ac220004	sw	4(r1),r2
  533  00001704  8fc2fff4	lw	r2,-12(r30)
  534  00001708  00022020	add	r4,r0,r2
  535  0000170c  50830004	slli	r3,r4,#0x4
  536  00001710  00621820	add	r3,r3,r2
  537  00001714  50640002	slli	r4,r3,#0x2
  538  00001718  00822022	sub	r4,r4,r2
  539  0000171c  50820002	slli	r2,r4,#0x2
  540  00001720  3c050001	lhi	r5,((_openfiles_LF0)>>16)&0xffff
  541  00001724  24a530d8	addui	r5,r5,(_openfiles_LF0)&0xffff
  542  00001728  00451820	add	r3,r2,r5
  543  0000172c  8c620000	lw	r2,(r3)
  544  00001730  ac220008	sw	8(r1),r2
  545  00001734  8fc20004	lw	r2,4(r30)
  546  00001738  ac22000c	sw	12(r1),r2
  547  0000173c  8fc2fff4	lw	r2,-12(r30)
  548  00001740  ac220010	sw	16(r1),r2
  549  00001744  0c010e34	jal	_printf
  550  00001748  54000000	nop; delay slot nop
  551  0000174c  23bd0018	addi	r29,r29,#24
  552  00001750          	L33_LF0:
  553  00001750  23bdfff8	addi	r29,r29,#-8
  554  00001754  001d0820	add	r1,r0,r29
  555  00001758  3c020001	lhi	r2,((_debugstr)>>16)&0xffff
  556  0000175c  244261cb	addui	r2,r2,(_debugstr)&0xffff
  557  00001760  ac220000	sw	(r1),r2
  558  00001764  2002002b	addi	r2,r0,#43
  559  00001768  ac220004	sw	4(r1),r2
  560  0000176c  0c002ce4	jal	_dindex
  561  00001770  54000000	nop; delay slot nop
  562  00001774  23bd0008	addi	r29,r29,#8
  563  00001778  64220000	snei	r2,r1,#0
  564  0000177c  1040006c	beqz	r2,L34_LF0
  565  00001780  54000000	nop; delay slot nop
  566  00001784  23bdffe8	addi	r29,r29,#-24
  567  00001788  001d0820	add	r1,r0,r29
  568  0000178c  3c020001	lhi	r2,((LC3_LF0)>>16)&0xffff
  569  00001790  2442304c	addui	r2,r2,(LC3_LF0)&0xffff
  570  00001794  ac220000	sw	(r1),r2
  571  00001798  8fc20000	lw	r2,(r30)
  572  0000179c  ac220004	sw	4(r1),r2
  573  000017a0  8fc2fff4	lw	r2,-12(r30)
  574  000017a4  00022020	add	r4,r0,r2
  575  000017a8  50830004	slli	r3,r4,#0x4
  576  000017ac  00621820	add	r3,r3,r2
  577  000017b0  50640002	slli	r4,r3,#0x2
  578  000017b4  00822022	sub	r4,r4,r2
  579  000017b8  50820002	slli	r2,r4,#0x2
  580  000017bc  3c050001	lhi	r5,((_openfiles_LF0)>>16)&0xffff
  581  000017c0  24a530d8	addui	r5,r5,(_openfiles_LF0)&0xffff
  582  000017c4  00451820	add	r3,r2,r5
  583  000017c8  8c620000	lw	r2,(r3)
  584  000017cc  ac220008	sw	8(r1),r2
  585  000017d0  8fc20004	lw	r2,4(r30)
  586  000017d4  ac22000c	sw	12(r1),r2
  587  000017d8  8fc2fff4	lw	r2,-12(r30)
  588  000017dc  ac220010	sw	16(r1),r2
  589  000017e0  0c010d98	jal	_printf
  590  000017e4  54000000	nop; delay slot nop
  591  000017e8  23bd0018	addi	r29,r29,#24
  592  000017ec          	L34_LF0:
  593  000017ec  8fc1fff4	lw	r1,-12(r30)
  594  000017f0  08000004	j	L18_LF0
  595  000017f4  54000000	nop; delay slot nop
  596  000017f8          	L18_LF0:
  597  000017f8  8fa20000	lw	r2,0(r29)
  598  000017fc  8fa30004	lw	r3,4(r29)
  599  00001800  8fa40008	lw	r4,8(r29)
  600  00001804  8fa5000c	lw	r5,12(r29)
  601  00001808  8fdffff8	lw	r31,-8(r30)
  602  0000180c  001ee820	add	r29,r0,r30
  603  00001810  8fdefffc	lw	r30,-4(r30)
  604  00001814  4be00000	jr	r31
  605  00001818  54000000	nop
  606  0000181c          	.endproc _FsOpen
  607  0000181c          	.align 2
  608  0000181c          	.proc _FsClose
  609  0000181c          	.global _FsClose
  610  0000181c          	_FsClose:
  611                      ;  Function 'FsClose'; 8 bytes of locals, 4 regs to save.
  612  0000181c  afbefffc	sw	-4(r29),r30; push fp
  613  00001820  001df020	add	r30,r0,r29; fp = sp
  614  00001824  afbffff8	sw	-8(r29),r31; push ret addr
  615  00001828  2fbd0020	subui	r29,r29,#32; alloc local storage
  616  0000182c  afa20000	sw	0(r29),r2
  617  00001830  afa30004	sw	4(r29),r3
  618  00001834  afa40008	sw	8(r29),r4
  619  00001838  afa5000c	sw	12(r29),r5
  620  0000183c  23bdfff8	addi	r29,r29,#-8
  621  00001840  001d0820	add	r1,r0,r29
  622  00001844  8fc20000	lw	r2,(r30)
  623  00001848  ac220000	sw	(r1),r2
  624  0000184c  0c000d90	jal	_FdValid_LF0
  625  00001850  54000000	nop; delay slot nop
  626  00001854  23bd0008	addi	r29,r29,#8
  627  00001858  64220000	snei	r2,r1,#0
  628  0000185c  14400010	bnez	r2,L36_LF0
  629  00001860  54000000	nop; delay slot nop
  630  00001864  2001ffff	addi	r1,r0,#-1
  631  00001868  08000098	j	L35_LF0
  632  0000186c  54000000	nop; delay slot nop
  633  00001870          	L36_LF0:
  634  00001870  23bdfff8	addi	r29,r29,#-8
  635  00001874  001d0820	add	r1,r0,r29
  636  00001878  8fc20000	lw	r2,(r30)
  637  0000187c  00022020	add	r4,r0,r2
  638  00001880  50830004	slli	r3,r4,#0x4
  639  00001884  00621820	add	r3,r3,r2
  640  00001888  50640002	slli	r4,r3,#0x2
  641  0000188c  00822022	sub	r4,r4,r2
  642  00001890  50820002	slli	r2,r4,#0x2
  643  00001894  3c050001	lhi	r5,((_openfiles_LF0)>>16)&0xffff
  644  00001898  24a530d8	addui	r5,r5,(_openfiles_LF0)&0xffff
  645  0000189c  00451820	add	r3,r2,r5
  646  000018a0  8c620000	lw	r2,(r3)
  647  000018a4  00022020	add	r4,r0,r2
  648  000018a8  50830001	slli	r3,r4,#0x1
  649  000018ac  00621820	add	r3,r3,r2
  650  000018b0  50640003	slli	r4,r3,#0x3
  651  000018b4  3c050001	lhi	r5,((_fs_LF0)>>16)&0xffff
  652  000018b8  24a530a8	addui	r5,r5,(_fs_LF0)&0xffff
  653  000018bc  00851020	add	r2,r4,r5
  654  000018c0  8fc30000	lw	r3,(r30)
  655  000018c4  ac230000	sw	(r1),r3
  656  000018c8  8c420010	lw	r2,16(r2)
  657  000018cc  4c400000	jalr	r2
  658  000018d0  54000000	nop; delay slot nop
  659  000018d4  23bd0008	addi	r29,r29,#8
  660  000018d8  afc1fff4	sw	-12(r30),r1
  661  000018dc  23bdfff8	addi	r29,r29,#-8
  662  000018e0  001d0820	add	r1,r0,r29
  663  000018e4  8fc20000	lw	r2,(r30)
  664  000018e8  ac220000	sw	(r1),r2
  665  000018ec  0c000d8c	jal	_FsFreeEntry_LF0
  666  000018f0  54000000	nop; delay slot nop
  667  000018f4  23bd0008	addi	r29,r29,#8
  668  000018f8  8fc1fff4	lw	r1,-12(r30)
  669  000018fc  08000004	j	L35_LF0
  670  00001900  54000000	nop; delay slot nop
  671  00001904          	L35_LF0:
  672  00001904  8fa20000	lw	r2,0(r29)
  673  00001908  8fa30004	lw	r3,4(r29)
  674  0000190c  8fa40008	lw	r4,8(r29)
  675  00001910  8fa5000c	lw	r5,12(r29)
  676  00001914  8fdffff8	lw	r31,-8(r30)
  677  00001918  001ee820	add	r29,r0,r30
  678  0000191c  8fdefffc	lw	r30,-4(r30)
  679  00001920  4be00000	jr	r31
  680  00001924  54000000	nop
  681  00001928          	.endproc _FsClose
  682  00001928          	.align 2
  683  00001928          	.proc _FsRead
  684  00001928          	.global _FsRead
  685  00001928          	_FsRead:
  686                      ;  Function 'FsRead'; 0 bytes of locals, 4 regs to save.
  687  00001928  afbefffc	sw	-4(r29),r30; push fp
  688  0000192c  001df020	add	r30,r0,r29; fp = sp
  689  00001930  afbffff8	sw	-8(r29),r31; push ret addr
  690  00001934  2fbd0018	subui	r29,r29,#24; alloc local storage
  691  00001938  afa20000	sw	0(r29),r2
  692  0000193c  afa30004	sw	4(r29),r3
  693  00001940  afa40008	sw	8(r29),r4
  694  00001944  afa5000c	sw	12(r29),r5
  695  00001948  23bdfff8	addi	r29,r29,#-8
  696  0000194c  001d0820	add	r1,r0,r29
  697  00001950  8fc20000	lw	r2,(r30)
  698  00001954  ac220000	sw	(r1),r2
  699  00001958  0c000c84	jal	_FdValid_LF0
  700  0000195c  54000000	nop; delay slot nop
  701  00001960  23bd0008	addi	r29,r29,#8
  702  00001964  64220000	snei	r2,r1,#0
  703  00001968  14400010	bnez	r2,L38_LF0
  704  0000196c  54000000	nop; delay slot nop
  705  00001970  2001ffff	addi	r1,r0,#-1
  706  00001974  0800008c	j	L37_LF0
  707  00001978  54000000	nop; delay slot nop
  708  0000197c          	L38_LF0:
  709  0000197c  23bdfff0	addi	r29,r29,#-16
  710  00001980  001d0820	add	r1,r0,r29
  711  00001984  8fc20000	lw	r2,(r30)
  712  00001988  00022020	add	r4,r0,r2
  713  0000198c  50830004	slli	r3,r4,#0x4
  714  00001990  00621820	add	r3,r3,r2
  715  00001994  50640002	slli	r4,r3,#0x2
  716  00001998  00822022	sub	r4,r4,r2
  717  0000199c  50820002	slli	r2,r4,#0x2
  718  000019a0  3c050001	lhi	r5,((_openfiles_LF0)>>16)&0xffff
  719  000019a4  24a530d8	addui	r5,r5,(_openfiles_LF0)&0xffff
  720  000019a8  00451820	add	r3,r2,r5
  721  000019ac  8c620000	lw	r2,(r3)
  722  000019b0  00022020	add	r4,r0,r2
  723  000019b4  50830001	slli	r3,r4,#0x1
  724  000019b8  00621820	add	r3,r3,r2
  725  000019bc  50640003	slli	r4,r3,#0x3
  726  000019c0  3c050001	lhi	r5,((_fs_LF0)>>16)&0xffff
  727  000019c4  24a530a8	addui	r5,r5,(_fs_LF0)&0xffff
  728  000019c8  00851020	add	r2,r4,r5
  729  000019cc  8fc30000	lw	r3,(r30)
  730  000019d0  ac230000	sw	(r1),r3
  731  000019d4  8fc30004	lw	r3,4(r30)
  732  000019d8  ac230004	sw	4(r1),r3
  733  000019dc  8fc30008	lw	r3,8(r30)
  734  000019e0  ac230008	sw	8(r1),r3
  735  000019e4  8c420004	lw	r2,4(r2)
  736  000019e8  4c400000	jalr	r2
  737  000019ec  54000000	nop; delay slot nop
  738  000019f0  23bd0010	addi	r29,r29,#16
  739  000019f4  00011020	add	r2,r0,r1
  740  000019f8  00020820	add	r1,r0,r2
  741  000019fc  08000004	j	L37_LF0
  742  00001a00  54000000	nop; delay slot nop
  743  00001a04          	L37_LF0:
  744  00001a04  8fa20000	lw	r2,0(r29)
  745  00001a08  8fa30004	lw	r3,4(r29)
  746  00001a0c  8fa40008	lw	r4,8(r29)
  747  00001a10  8fa5000c	lw	r5,12(r29)
  748  00001a14  8fdffff8	lw	r31,-8(r30)
  749  00001a18  001ee820	add	r29,r0,r30
  750  00001a1c  8fdefffc	lw	r30,-4(r30)
  751  00001a20  4be00000	jr	r31
  752  00001a24  54000000	nop
  753  00001a28          	.endproc _FsRead
  754  00001a28          	.align 2
  755  00001a28          	.proc _FsWrite
  756  00001a28          	.global _FsWrite
  757  00001a28          	_FsWrite:
  758                      ;  Function 'FsWrite'; 0 bytes of locals, 4 regs to save.
  759  00001a28  afbefffc	sw	-4(r29),r30; push fp
  760  00001a2c  001df020	add	r30,r0,r29; fp = sp
  761  00001a30  afbffff8	sw	-8(r29),r31; push ret addr
  762  00001a34  2fbd0018	subui	r29,r29,#24; alloc local storage
  763  00001a38  afa20000	sw	0(r29),r2
  764  00001a3c  afa30004	sw	4(r29),r3
  765  00001a40  afa40008	sw	8(r29),r4
  766  00001a44  afa5000c	sw	12(r29),r5
  767  00001a48  23bdfff8	addi	r29,r29,#-8
  768  00001a4c  001d0820	add	r1,r0,r29
  769  00001a50  8fc20000	lw	r2,(r30)
  770  00001a54  ac220000	sw	(r1),r2
  771  00001a58  0c000b84	jal	_FdValid_LF0
  772  00001a5c  54000000	nop; delay slot nop
  773  00001a60  23bd0008	addi	r29,r29,#8
  774  00001a64  64220000	snei	r2,r1,#0
  775  00001a68  14400010	bnez	r2,L40_LF0
  776  00001a6c  54000000	nop; delay slot nop
  777  00001a70  2001ffff	addi	r1,r0,#-1
  778  00001a74  0800008c	j	L39_LF0
  779  00001a78  54000000	nop; delay slot nop
  780  00001a7c          	L40_LF0:
  781  00001a7c  23bdfff0	addi	r29,r29,#-16
  782  00001a80  001d0820	add	r1,r0,r29
  783  00001a84  8fc20000	lw	r2,(r30)
  784  00001a88  00022020	add	r4,r0,r2
  785  00001a8c  50830004	slli	r3,r4,#0x4
  786  00001a90  00621820	add	r3,r3,r2
  787  00001a94  50640002	slli	r4,r3,#0x2
  788  00001a98  00822022	sub	r4,r4,r2
  789  00001a9c  50820002	slli	r2,r4,#0x2
  790  00001aa0  3c050001	lhi	r5,((_openfiles_LF0)>>16)&0xffff
  791  00001aa4  24a530d8	addui	r5,r5,(_openfiles_LF0)&0xffff
  792  00001aa8  00451820	add	r3,r2,r5
  793  00001aac  8c620000	lw	r2,(r3)
  794  00001ab0  00022020	add	r4,r0,r2
  795  00001ab4  50830001	slli	r3,r4,#0x1
  796  00001ab8  00621820	add	r3,r3,r2
  797  00001abc  50640003	slli	r4,r3,#0x3
  798  00001ac0  3c050001	lhi	r5,((_fs_LF0)>>16)&0xffff
  799  00001ac4  24a530a8	addui	r5,r5,(_fs_LF0)&0xffff
  800  00001ac8  00851020	add	r2,r4,r5
  801  00001acc  8fc30000	lw	r3,(r30)
  802  00001ad0  ac230000	sw	(r1),r3
  803  00001ad4  8fc30004	lw	r3,4(r30)
  804  00001ad8  ac230004	sw	4(r1),r3
  805  00001adc  8fc30008	lw	r3,8(r30)
  806  00001ae0  ac230008	sw	8(r1),r3
  807  00001ae4  8c420008	lw	r2,8(r2)
  808  00001ae8  4c400000	jalr	r2
  809  00001aec  54000000	nop; delay slot nop
  810  00001af0  23bd0010	addi	r29,r29,#16
  811  00001af4  00011020	add	r2,r0,r1
  812  00001af8  00020820	add	r1,r0,r2
  813  00001afc  08000004	j	L39_LF0
  814  00001b00  54000000	nop; delay slot nop
  815  00001b04          	L39_LF0:
  816  00001b04  8fa20000	lw	r2,0(r29)
  817  00001b08  8fa30004	lw	r3,4(r29)
  818  00001b0c  8fa40008	lw	r4,8(r29)
  819  00001b10  8fa5000c	lw	r5,12(r29)
  820  00001b14  8fdffff8	lw	r31,-8(r30)
  821  00001b18  001ee820	add	r29,r0,r30
  822  00001b1c  8fdefffc	lw	r30,-4(r30)
  823  00001b20  4be00000	jr	r31
  824  00001b24  54000000	nop
  825  00001b28          	.endproc _FsWrite
  826  00001b28          	.align 2
  827  00001b28          	.proc _FsSeek
  828  00001b28          	.global _FsSeek
  829  00001b28          	_FsSeek:
  830                      ;  Function 'FsSeek'; 0 bytes of locals, 4 regs to save.
  831  00001b28  afbefffc	sw	-4(r29),r30; push fp
  832  00001b2c  001df020	add	r30,r0,r29; fp = sp
  833  00001b30  afbffff8	sw	-8(r29),r31; push ret addr
  834  00001b34  2fbd0018	subui	r29,r29,#24; alloc local storage
  835  00001b38  afa20000	sw	0(r29),r2
  836  00001b3c  afa30004	sw	4(r29),r3
  837  00001b40  afa40008	sw	8(r29),r4
  838  00001b44  afa5000c	sw	12(r29),r5
  839  00001b48  23bdfff8	addi	r29,r29,#-8
  840  00001b4c  001d0820	add	r1,r0,r29
  841  00001b50  8fc20000	lw	r2,(r30)
  842  00001b54  ac220000	sw	(r1),r2
  843  00001b58  0c000a84	jal	_FdValid_LF0
  844  00001b5c  54000000	nop; delay slot nop
  845  00001b60  23bd0008	addi	r29,r29,#8
  846  00001b64  64220000	snei	r2,r1,#0
  847  00001b68  14400010	bnez	r2,L42_LF0
  848  00001b6c  54000000	nop; delay slot nop
  849  00001b70  2001ffff	addi	r1,r0,#-1
  850  00001b74  0800008c	j	L41_LF0
  851  00001b78  54000000	nop; delay slot nop
  852  00001b7c          	L42_LF0:
  853  00001b7c  23bdfff0	addi	r29,r29,#-16
  854  00001b80  001d0820	add	r1,r0,r29
  855  00001b84  8fc20000	lw	r2,(r30)
  856  00001b88  00022020	add	r4,r0,r2
  857  00001b8c  50830004	slli	r3,r4,#0x4
  858  00001b90  00621820	add	r3,r3,r2
  859  00001b94  50640002	slli	r4,r3,#0x2
  860  00001b98  00822022	sub	r4,r4,r2
  861  00001b9c  50820002	slli	r2,r4,#0x2
  862  00001ba0  3c050001	lhi	r5,((_openfiles_LF0)>>16)&0xffff
  863  00001ba4  24a530d8	addui	r5,r5,(_openfiles_LF0)&0xffff
  864  00001ba8  00451820	add	r3,r2,r5
  865  00001bac  8c620000	lw	r2,(r3)
  866  00001bb0  00022020	add	r4,r0,r2
  867  00001bb4  50830001	slli	r3,r4,#0x1
  868  00001bb8  00621820	add	r3,r3,r2
  869  00001bbc  50640003	slli	r4,r3,#0x3
  870  00001bc0  3c050001	lhi	r5,((_fs_LF0)>>16)&0xffff
  871  00001bc4  24a530a8	addui	r5,r5,(_fs_LF0)&0xffff
  872  00001bc8  00851020	add	r2,r4,r5
  873  00001bcc  8fc30000	lw	r3,(r30)
  874  00001bd0  ac230000	sw	(r1),r3
  875  00001bd4  8fc30004	lw	r3,4(r30)
  876  00001bd8  ac230004	sw	4(r1),r3
  877  00001bdc  8fc30008	lw	r3,8(r30)
  878  00001be0  ac230008	sw	8(r1),r3
  879  00001be4  8c42000c	lw	r2,12(r2)
  880  00001be8  4c400000	jalr	r2
  881  00001bec  54000000	nop; delay slot nop
  882  00001bf0  23bd0010	addi	r29,r29,#16
  883  00001bf4  00011020	add	r2,r0,r1
  884  00001bf8  00020820	add	r1,r0,r2
  885  00001bfc  08000004	j	L41_LF0
  886  00001c00  54000000	nop; delay slot nop
  887  00001c04          	L41_LF0:
  888  00001c04  8fa20000	lw	r2,0(r29)
  889  00001c08  8fa30004	lw	r3,4(r29)
  890  00001c0c  8fa40008	lw	r4,8(r29)
  891  00001c10  8fa5000c	lw	r5,12(r29)
  892  00001c14  8fdffff8	lw	r31,-8(r30)
  893  00001c18  001ee820	add	r29,r0,r30
  894  00001c1c  8fdefffc	lw	r30,-4(r30)
  895  00001c20  4be00000	jr	r31
  896  00001c24  54000000	nop
  897  00001c28          	.endproc _FsSeek
  898  00001c28          	.align 2
  899  00001c28          	.proc _FsDelete
  900  00001c28          	.global _FsDelete
  901  00001c28          	_FsDelete:
  902                      ;  Function 'FsDelete'; 0 bytes of locals, 2 regs to save.
  903  00001c28  afbefffc	sw	-4(r29),r30; push fp
  904  00001c2c  001df020	add	r30,r0,r29; fp = sp
  905  00001c30  afbffff8	sw	-8(r29),r31; push ret addr
  906  00001c34  2fbd0010	subui	r29,r29,#16; alloc local storage
  907  00001c38  afa20000	sw	0(r29),r2
  908  00001c3c  afa30004	sw	4(r29),r3
  909  00001c40  23bdfff0	addi	r29,r29,#-16
  910  00001c44  001d0820	add	r1,r0,r29
  911  00001c48  8fc20000	lw	r2,(r30)
  912  00001c4c  ac220000	sw	(r1),r2
  913  00001c50  3c020001	lhi	r2,((LC1_LF0)>>16)&0xffff
  914  00001c54  24423020	addui	r2,r2,(LC1_LF0)&0xffff
  915  00001c58  ac220004	sw	4(r1),r2
  916  00001c5c  20020004	addi	r2,r0,#4
  917  00001c60  ac220008	sw	8(r1),r2
  918  00001c64  0c00248c	jal	_dstrncmp
  919  00001c68  54000000	nop; delay slot nop
  920  00001c6c  23bd0010	addi	r29,r29,#16
  921  00001c70  64220000	snei	r2,r1,#0
  922  00001c74  14400050	bnez	r2,L44_LF0
  923  00001c78  54000000	nop; delay slot nop
  924  00001c7c  8fc10000	lw	r1,(r30)
  925  00001c80  20220004	addi	r2,r1,#4
  926  00001c84  afc20000	sw	(r30),r2
  927  00001c88  23bdfff8	addi	r29,r29,#-8
  928  00001c8c  001d0820	add	r1,r0,r29
  929  00001c90  3c020001	lhi	r2,((_fs_LF0+44)>>16)&0xffff
  930  00001c94  244230d4	addui	r2,r2,(_fs_LF0+44)&0xffff
  931  00001c98  8fc30000	lw	r3,(r30)
  932  00001c9c  ac230000	sw	(r1),r3
  933  00001ca0  8c420000	lw	r2,(r2)
  934  00001ca4  4c400000	jalr	r2
  935  00001ca8  54000000	nop; delay slot nop
  936  00001cac  23bd0008	addi	r29,r29,#8
  937  00001cb0  00011020	add	r2,r0,r1
  938  00001cb4  00020820	add	r1,r0,r2
  939  00001cb8  08000044	j	L43_LF0
  940  00001cbc  54000000	nop; delay slot nop
  941  00001cc0  0800003c	j	L45_LF0
  942  00001cc4  54000000	nop; delay slot nop
  943  00001cc8          	L44_LF0:
  944  00001cc8  23bdfff8	addi	r29,r29,#-8
  945  00001ccc  001d0820	add	r1,r0,r29
  946  00001cd0  3c020001	lhi	r2,((_fs_LF0+20)>>16)&0xffff
  947  00001cd4  244230bc	addui	r2,r2,(_fs_LF0+20)&0xffff
  948  00001cd8  8fc30000	lw	r3,(r30)
  949  00001cdc  ac230000	sw	(r1),r3
  950  00001ce0  8c420000	lw	r2,(r2)
  951  00001ce4  4c400000	jalr	r2
  952  00001ce8  54000000	nop; delay slot nop
  953  00001cec  23bd0008	addi	r29,r29,#8
  954  00001cf0  00011020	add	r2,r0,r1
  955  00001cf4  00020820	add	r1,r0,r2
  956  00001cf8  08000004	j	L43_LF0
  957  00001cfc  54000000	nop; delay slot nop
  958  00001d00          	L45_LF0:
  959  00001d00          	L43_LF0:
  960  00001d00  8fa20000	lw	r2,0(r29)
  961  00001d04  8fa30004	lw	r3,4(r29)
  962  00001d08  8fdffff8	lw	r31,-8(r30)
  963  00001d0c  001ee820	add	r29,r0,r30
  964  00001d10  8fdefffc	lw	r30,-4(r30)
  965  00001d14  4be00000	jr	r31
  966  00001d18  54000000	nop
  967  00001d1c          	.endproc _FsDelete
  968  00001d1c          	.data
  969  00013072          	.align 2
  970  00013074          	LC4_LF0:
  971  00013074  41747465	.ascii "Attempting to open file %s into desc %d, mode %d.\n\000"
  971  00013078  6d707469	
  971  0001307c  6e672074	
  971  00013080  6f206f70	
  971  00013084  656e2066	
  971  00013088  696c6520	
  971  0001308c  25732069	
  971  00013090  6e746f20	
  971  00013094  64657363	
  971  00013098  2025642c	
  971  0001309c  206d6f64	
  971  000130a0  65202564	
  971  000130a4  2e0a00  	
  972  000130a7          	.text
  973  00001d1c          	.align 2
  974  00001d1c          	.proc _FsUnixOpen
  975  00001d1c          	.global _FsUnixOpen
  976  00001d1c          	_FsUnixOpen:
  977                      ;  Function 'FsUnixOpen'; 0 bytes of locals, 5 regs to save.
  978  00001d1c  afbefffc	sw	-4(r29),r30; push fp
  979  00001d20  001df020	add	r30,r0,r29; fp = sp
  980  00001d24  afbffff8	sw	-8(r29),r31; push ret addr
  981  00001d28  2fbd0020	subui	r29,r29,#32; alloc local storage
  982  00001d2c  afa20000	sw	0(r29),r2
  983  00001d30  afa30004	sw	4(r29),r3
  984  00001d34  afa40008	sw	8(r29),r4
  985  00001d38  afa5000c	sw	12(r29),r5
  986  00001d3c  afa60010	sw	16(r29),r6
  987  00001d40  23bdfff8	addi	r29,r29,#-8
  988  00001d44  001d0820	add	r1,r0,r29
  989  00001d48  3c020001	lhi	r2,((_debugstr)>>16)&0xffff
  990  00001d4c  244261cb	addui	r2,r2,(_debugstr)&0xffff
  991  00001d50  ac220000	sw	(r1),r2
  992  00001d54  20020066	addi	r2,r0,#102
  993  00001d58  ac220004	sw	4(r1),r2
  994  00001d5c  0c0026f4	jal	_dindex
  995  00001d60  54000000	nop; delay slot nop
  996  00001d64  23bd0008	addi	r29,r29,#8
  997  00001d68  64220000	snei	r2,r1,#0
  998  00001d6c  1040003c	beqz	r2,L47_LF0
  999  00001d70  54000000	nop; delay slot nop
 1000  00001d74  23bdfff0	addi	r29,r29,#-16
 1001  00001d78  001d0820	add	r1,r0,r29
 1002  00001d7c  3c020001	lhi	r2,((LC4_LF0)>>16)&0xffff
 1003  00001d80  24423074	addui	r2,r2,(LC4_LF0)&0xffff
 1004  00001d84  ac220000	sw	(r1),r2
 1005  00001d88  8fc20004	lw	r2,4(r30)
 1006  00001d8c  ac220004	sw	4(r1),r2
 1007  00001d90  8fc20000	lw	r2,(r30)
 1008  00001d94  ac220008	sw	8(r1),r2
 1009  00001d98  8fc20008	lw	r2,8(r30)
 1010  00001d9c  ac22000c	sw	12(r1),r2
 1011  00001da0  0c0107d8	jal	_printf
 1012  00001da4  54000000	nop; delay slot nop
 1013  00001da8  23bd0010	addi	r29,r29,#16
 1014  00001dac          	L47_LF0:
 1015  00001dac  23bdfff8	addi	r29,r29,#-8
 1016  00001db0  001d0820	add	r1,r0,r29
 1017  00001db4  3c020001	lhi	r2,((_debugstr)>>16)&0xffff
 1018  00001db8  244261cb	addui	r2,r2,(_debugstr)&0xffff
 1019  00001dbc  ac220000	sw	(r1),r2
 1020  00001dc0  2002002b	addi	r2,r0,#43
 1021  00001dc4  ac220004	sw	4(r1),r2
 1022  00001dc8  0c002688	jal	_dindex
 1023  00001dcc  54000000	nop; delay slot nop
 1024  00001dd0  23bd0008	addi	r29,r29,#8
 1025  00001dd4  64220000	snei	r2,r1,#0
 1026  00001dd8  1040003c	beqz	r2,L48_LF0
 1027  00001ddc  54000000	nop; delay slot nop
 1028  00001de0  23bdfff0	addi	r29,r29,#-16
 1029  00001de4  001d0820	add	r1,r0,r29
 1030  00001de8  3c020001	lhi	r2,((LC4_LF0)>>16)&0xffff
 1031  00001dec  24423074	addui	r2,r2,(LC4_LF0)&0xffff
 1032  00001df0  ac220000	sw	(r1),r2
 1033  00001df4  8fc20004	lw	r2,4(r30)
 1034  00001df8  ac220004	sw	4(r1),r2
 1035  00001dfc  8fc20000	lw	r2,(r30)
 1036  00001e00  ac220008	sw	8(r1),r2
 1037  00001e04  8fc20008	lw	r2,8(r30)
 1038  00001e08  ac22000c	sw	12(r1),r2
 1039  00001e0c  0c01076c	jal	_printf
 1040  00001e10  54000000	nop; delay slot nop
 1041  00001e14  23bd0010	addi	r29,r29,#16
 1042  00001e18          	L48_LF0:
 1043  00001e18  23bdfff8	addi	r29,r29,#-8
 1044  00001e1c  001d0820	add	r1,r0,r29
 1045  00001e20  8fc20004	lw	r2,4(r30)
 1046  00001e24  ac220000	sw	(r1),r2
 1047  00001e28  8fc20008	lw	r2,8(r30)
 1048  00001e2c  ac220004	sw	4(r1),r2
 1049  00001e30  0c0106b8	jal	_open
 1050  00001e34  54000000	nop; delay slot nop
 1051  00001e38  23bd0008	addi	r29,r29,#8
 1052  00001e3c  3c020001	lhi	r2,((_openfiles_LF0)>>16)&0xffff
 1053  00001e40  244230d8	addui	r2,r2,(_openfiles_LF0)&0xffff
 1054  00001e44  8fc30000	lw	r3,(r30)
 1055  00001e48  00032820	add	r5,r0,r3
 1056  00001e4c  50a40004	slli	r4,r5,#0x4
 1057  00001e50  00832020	add	r4,r4,r3
 1058  00001e54  50850002	slli	r5,r4,#0x2
 1059  00001e58  00a32822	sub	r5,r5,r3
 1060  00001e5c  50a30002	slli	r3,r5,#0x2
 1061  00001e60  00431020	add	r2,r2,r3
 1062  00001e64  ac410108	sw	264(r2),r1
 1063  00001e68  68210000	slti	r1,r1,#0
 1064  00001e6c  10200038	beqz	r1,L49_LF0
 1065  00001e70  54000000	nop; delay slot nop
 1066  00001e74  8fc10000	lw	r1,(r30)
 1067  00001e78  00011820	add	r3,r0,r1
 1068  00001e7c  50620004	slli	r2,r3,#0x4
 1069  00001e80  00411020	add	r2,r2,r1
 1070  00001e84  50430002	slli	r3,r2,#0x2
 1071  00001e88  00611822	sub	r3,r3,r1
 1072  00001e8c  50610002	slli	r1,r3,#0x2
 1073  00001e90  3c060001	lhi	r6,((_openfiles_LF0)>>16)&0xffff
 1074  00001e94  24c630d8	addui	r6,r6,(_openfiles_LF0)&0xffff
 1075  00001e98  00261020	add	r2,r1,r6
 1076  00001e9c  8c410108	lw	r1,264(r2)
 1077  00001ea0  08000010	j	L46_LF0
 1078  00001ea4  54000000	nop; delay slot nop
 1079  00001ea8          	L49_LF0:
 1080  00001ea8  20010001	addi	r1,r0,#1
 1081  00001eac  08000004	j	L46_LF0
 1082  00001eb0  54000000	nop; delay slot nop
 1083  00001eb4          	L46_LF0:
 1084  00001eb4  8fa20000	lw	r2,0(r29)
 1085  00001eb8  8fa30004	lw	r3,4(r29)
 1086  00001ebc  8fa40008	lw	r4,8(r29)
 1087  00001ec0  8fa5000c	lw	r5,12(r29)
 1088  00001ec4  8fa60010	lw	r6,16(r29)
 1089  00001ec8  8fdffff8	lw	r31,-8(r30)
 1090  00001ecc  001ee820	add	r29,r0,r30
 1091  00001ed0  8fdefffc	lw	r30,-4(r30)
 1092  00001ed4  4be00000	jr	r31
 1093  00001ed8  54000000	nop
 1094  00001edc          	.endproc _FsUnixOpen
 1095  00001edc          	.align 2
 1096  00001edc          	.proc _FsUnixRead
 1097  00001edc          	.global _FsUnixRead
 1098  00001edc          	_FsUnixRead:
 1099                      ;  Function 'FsUnixRead'; 0 bytes of locals, 4 regs to save.
 1100  00001edc  afbefffc	sw	-4(r29),r30; push fp
 1101  00001ee0  001df020	add	r30,r0,r29; fp = sp
 1102  00001ee4  afbffff8	sw	-8(r29),r31; push ret addr
 1103  00001ee8  2fbd0018	subui	r29,r29,#24; alloc local storage
 1104  00001eec  afa20000	sw	0(r29),r2
 1105  00001ef0  afa30004	sw	4(r29),r3
 1106  00001ef4  afa40008	sw	8(r29),r4
 1107  00001ef8  afa5000c	sw	12(r29),r5
 1108  00001efc  23bdfff0	addi	r29,r29,#-16
 1109  00001f00  001d0820	add	r1,r0,r29
 1110  00001f04  8fc20000	lw	r2,(r30)
 1111  00001f08  00022020	add	r4,r0,r2
 1112  00001f0c  50830004	slli	r3,r4,#0x4
 1113  00001f10  00621820	add	r3,r3,r2
 1114  00001f14  50640002	slli	r4,r3,#0x2
 1115  00001f18  00822022	sub	r4,r4,r2
 1116  00001f1c  50820002	slli	r2,r4,#0x2
 1117  00001f20  3c050001	lhi	r5,((_openfiles_LF0)>>16)&0xffff
 1118  00001f24  24a530d8	addui	r5,r5,(_openfiles_LF0)&0xffff
 1119  00001f28  00451820	add	r3,r2,r5
 1120  00001f2c  8c620108	lw	r2,264(r3)
 1121  00001f30  ac220000	sw	(r1),r2
 1122  00001f34  8fc20004	lw	r2,4(r30)
 1123  00001f38  ac220004	sw	4(r1),r2
 1124  00001f3c  8fc20008	lw	r2,8(r30)
 1125  00001f40  ac220008	sw	8(r1),r2
 1126  00001f44  0c0105bc	jal	_read
 1127  00001f48  54000000	nop; delay slot nop
 1128  00001f4c  23bd0010	addi	r29,r29,#16
 1129  00001f50  00011020	add	r2,r0,r1
 1130  00001f54  00020820	add	r1,r0,r2
 1131  00001f58  08000004	j	L50_LF0
 1132  00001f5c  54000000	nop; delay slot nop
 1133  00001f60          	L50_LF0:
 1134  00001f60  8fa20000	lw	r2,0(r29)
 1135  00001f64  8fa30004	lw	r3,4(r29)
 1136  00001f68  8fa40008	lw	r4,8(r29)
 1137  00001f6c  8fa5000c	lw	r5,12(r29)
 1138  00001f70  8fdffff8	lw	r31,-8(r30)
 1139  00001f74  001ee820	add	r29,r0,r30
 1140  00001f78  8fdefffc	lw	r30,-4(r30)
 1141  00001f7c  4be00000	jr	r31
 1142  00001f80  54000000	nop
 1143  00001f84          	.endproc _FsUnixRead
 1144  00001f84          	.align 2
 1145  00001f84          	.proc _FsUnixWrite
 1146  00001f84          	.global _FsUnixWrite
 1147  00001f84          	_FsUnixWrite:
 1148                      ;  Function 'FsUnixWrite'; 0 bytes of locals, 4 regs to save.
 1149  00001f84  afbefffc	sw	-4(r29),r30; push fp
 1150  00001f88  001df020	add	r30,r0,r29; fp = sp
 1151  00001f8c  afbffff8	sw	-8(r29),r31; push ret addr
 1152  00001f90  2fbd0018	subui	r29,r29,#24; alloc local storage
 1153  00001f94  afa20000	sw	0(r29),r2
 1154  00001f98  afa30004	sw	4(r29),r3
 1155  00001f9c  afa40008	sw	8(r29),r4
 1156  00001fa0  afa5000c	sw	12(r29),r5
 1157  00001fa4  23bdfff0	addi	r29,r29,#-16
 1158  00001fa8  001d0820	add	r1,r0,r29
 1159  00001fac  8fc20000	lw	r2,(r30)
 1160  00001fb0  00022020	add	r4,r0,r2
 1161  00001fb4  50830004	slli	r3,r4,#0x4
 1162  00001fb8  00621820	add	r3,r3,r2
 1163  00001fbc  50640002	slli	r4,r3,#0x2
 1164  00001fc0  00822022	sub	r4,r4,r2
 1165  00001fc4  50820002	slli	r2,r4,#0x2
 1166  00001fc8  3c050001	lhi	r5,((_openfiles_LF0)>>16)&0xffff
 1167  00001fcc  24a530d8	addui	r5,r5,(_openfiles_LF0)&0xffff
 1168  00001fd0  00451820	add	r3,r2,r5
 1169  00001fd4  8c620108	lw	r2,264(r3)
 1170  00001fd8  ac220000	sw	(r1),r2
 1171  00001fdc  8fc20004	lw	r2,4(r30)
 1172  00001fe0  ac220004	sw	4(r1),r2
 1173  00001fe4  8fc20008	lw	r2,8(r30)
 1174  00001fe8  ac220008	sw	8(r1),r2
 1175  00001fec  0c010520	jal	_write
 1176  00001ff0  54000000	nop; delay slot nop
 1177  00001ff4  23bd0010	addi	r29,r29,#16
 1178  00001ff8  00011020	add	r2,r0,r1
 1179  00001ffc  00020820	add	r1,r0,r2
 1180  00002000  08000004	j	L51_LF0
 1181  00002004  54000000	nop; delay slot nop
 1182  00002008          	L51_LF0:
 1183  00002008  8fa20000	lw	r2,0(r29)
 1184  0000200c  8fa30004	lw	r3,4(r29)
 1185  00002010  8fa40008	lw	r4,8(r29)
 1186  00002014  8fa5000c	lw	r5,12(r29)
 1187  00002018  8fdffff8	lw	r31,-8(r30)
 1188  0000201c  001ee820	add	r29,r0,r30
 1189  00002020  8fdefffc	lw	r30,-4(r30)
 1190  00002024  4be00000	jr	r31
 1191  00002028  54000000	nop
 1192  0000202c          	.endproc _FsUnixWrite
 1193  0000202c          	.align 2
 1194  0000202c          	.proc _FsUnixSeek
 1195  0000202c          	.global _FsUnixSeek
 1196  0000202c          	_FsUnixSeek:
 1197                      ;  Function 'FsUnixSeek'; 0 bytes of locals, 4 regs to save.
 1198  0000202c  afbefffc	sw	-4(r29),r30; push fp
 1199  00002030  001df020	add	r30,r0,r29; fp = sp
 1200  00002034  afbffff8	sw	-8(r29),r31; push ret addr
 1201  00002038  2fbd0018	subui	r29,r29,#24; alloc local storage
 1202  0000203c  afa20000	sw	0(r29),r2
 1203  00002040  afa30004	sw	4(r29),r3
 1204  00002044  afa40008	sw	8(r29),r4
 1205  00002048  afa5000c	sw	12(r29),r5
 1206  0000204c  23bdfff0	addi	r29,r29,#-16
 1207  00002050  001d0820	add	r1,r0,r29
 1208  00002054  8fc20000	lw	r2,(r30)
 1209  00002058  00022020	add	r4,r0,r2
 1210  0000205c  50830004	slli	r3,r4,#0x4
 1211  00002060  00621820	add	r3,r3,r2
 1212  00002064  50640002	slli	r4,r3,#0x2
 1213  00002068  00822022	sub	r4,r4,r2
 1214  0000206c  50820002	slli	r2,r4,#0x2
 1215  00002070  3c050001	lhi	r5,((_openfiles_LF0)>>16)&0xffff
 1216  00002074  24a530d8	addui	r5,r5,(_openfiles_LF0)&0xffff
 1217  00002078  00451820	add	r3,r2,r5
 1218  0000207c  8c620108	lw	r2,264(r3)
 1219  00002080  ac220000	sw	(r1),r2
 1220  00002084  8fc20004	lw	r2,4(r30)
 1221  00002088  ac220004	sw	4(r1),r2
 1222  0000208c  8fc20008	lw	r2,8(r30)
 1223  00002090  ac220008	sw	8(r1),r2
 1224  00002094  0c010484	jal	_lseek
 1225  00002098  54000000	nop; delay slot nop
 1226  0000209c  23bd0010	addi	r29,r29,#16
 1227  000020a0  00011020	add	r2,r0,r1
 1228  000020a4  00020820	add	r1,r0,r2
 1229  000020a8  08000004	j	L52_LF0
 1230  000020ac  54000000	nop; delay slot nop
 1231  000020b0          	L52_LF0:
 1232  000020b0  8fa20000	lw	r2,0(r29)
 1233  000020b4  8fa30004	lw	r3,4(r29)
 1234  000020b8  8fa40008	lw	r4,8(r29)
 1235  000020bc  8fa5000c	lw	r5,12(r29)
 1236  000020c0  8fdffff8	lw	r31,-8(r30)
 1237  000020c4  001ee820	add	r29,r0,r30
 1238  000020c8  8fdefffc	lw	r30,-4(r30)
 1239  000020cc  4be00000	jr	r31
 1240  000020d0  54000000	nop
 1241  000020d4          	.endproc _FsUnixSeek
 1242  000020d4          	.align 2
 1243  000020d4          	.proc _FsUnixClose
 1244  000020d4          	.global _FsUnixClose
 1245  000020d4          	_FsUnixClose:
 1246                      ;  Function 'FsUnixClose'; 8 bytes of locals, 4 regs to save.
 1247  000020d4  afbefffc	sw	-4(r29),r30; push fp
 1248  000020d8  001df020	add	r30,r0,r29; fp = sp
 1249  000020dc  afbffff8	sw	-8(r29),r31; push ret addr
 1250  000020e0  2fbd0020	subui	r29,r29,#32; alloc local storage
 1251  000020e4  afa20000	sw	0(r29),r2
 1252  000020e8  afa30004	sw	4(r29),r3
 1253  000020ec  afa40008	sw	8(r29),r4
 1254  000020f0  afa5000c	sw	12(r29),r5
 1255  000020f4  23bdfff8	addi	r29,r29,#-8
 1256  000020f8  001d0820	add	r1,r0,r29
 1257  000020fc  8fc20000	lw	r2,(r30)
 1258  00002100  00022020	add	r4,r0,r2
 1259  00002104  50830004	slli	r3,r4,#0x4
 1260  00002108  00621820	add	r3,r3,r2
 1261  0000210c  50640002	slli	r4,r3,#0x2
 1262  00002110  00822022	sub	r4,r4,r2
 1263  00002114  50820002	slli	r2,r4,#0x2
 1264  00002118  3c050001	lhi	r5,((_openfiles_LF0)>>16)&0xffff
 1265  0000211c  24a530d8	addui	r5,r5,(_openfiles_LF0)&0xffff
 1266  00002120  00451820	add	r3,r2,r5
 1267  00002124  8c620108	lw	r2,264(r3)
 1268  00002128  ac220000	sw	(r1),r2
 1269  0000212c  0c0103c8	jal	_close
 1270  00002130  54000000	nop; delay slot nop
 1271  00002134  23bd0008	addi	r29,r29,#8
 1272  00002138  afc1fff4	sw	-12(r30),r1
 1273  0000213c  8fc1fff4	lw	r1,-12(r30)
 1274  00002140  08000004	j	L53_LF0
 1275  00002144  54000000	nop; delay slot nop
 1276  00002148          	L53_LF0:
 1277  00002148  8fa20000	lw	r2,0(r29)
 1278  0000214c  8fa30004	lw	r3,4(r29)
 1279  00002150  8fa40008	lw	r4,8(r29)
 1280  00002154  8fa5000c	lw	r5,12(r29)
 1281  00002158  8fdffff8	lw	r31,-8(r30)
 1282  0000215c  001ee820	add	r29,r0,r30
 1283  00002160  8fdefffc	lw	r30,-4(r30)
 1284  00002164  4be00000	jr	r31
 1285  00002168  54000000	nop
 1286  0000216c          	.endproc _FsUnixClose
 1287  0000216c          	.align 2
 1288  0000216c          	.proc _FsUnixDelete
 1289  0000216c          	.global _FsUnixDelete
 1290  0000216c          	_FsUnixDelete:
 1291                      ;  Function 'FsUnixDelete'; 0 bytes of locals, 0 regs to save.
 1292  0000216c  afbefffc	sw	-4(r29),r30; push fp
 1293  00002170  001df020	add	r30,r0,r29; fp = sp
 1294  00002174  afbffff8	sw	-8(r29),r31; push ret addr
 1295  00002178  2fbd0008	subui	r29,r29,#8; alloc local storage
 1296  0000217c  2001ffff	addi	r1,r0,#-1
 1297  00002180  08000004	j	L54_LF0
 1298  00002184  54000000	nop; delay slot nop
 1299  00002188          	L54_LF0:
 1300  00002188  8fdffff8	lw	r31,-8(r30)
 1301  0000218c  001ee820	add	r29,r0,r30
 1302  00002190  8fdefffc	lw	r30,-4(r30)
 1303  00002194  4be00000	jr	r31
 1304  00002198  54000000	nop
 1305  0000219c          	.endproc _FsUnixDelete
 1306  0000219c          	.align 2
 1307  0000219c          	.proc _FsDlxIo
 1308  0000219c          	.global _FsDlxIo
 1309  0000219c          	_FsDlxIo:
 1310                      ;  Function 'FsDlxIo'; 0 bytes of locals, 0 regs to save.
 1311  0000219c  afbefffc	sw	-4(r29),r30; push fp
 1312  000021a0  001df020	add	r30,r0,r29; fp = sp
 1313  000021a4  afbffff8	sw	-8(r29),r31; push ret addr
 1314  000021a8  2fbd0008	subui	r29,r29,#8; alloc local storage
 1315  000021ac  20010001	addi	r1,r0,#1
 1316  000021b0  08000004	j	L55_LF0
 1317  000021b4  54000000	nop; delay slot nop
 1318  000021b8          	L55_LF0:
 1319  000021b8  8fdffff8	lw	r31,-8(r30)
 1320  000021bc  001ee820	add	r29,r0,r30
 1321  000021c0  8fdefffc	lw	r30,-4(r30)
 1322  000021c4  4be00000	jr	r31
 1323  000021c8  54000000	nop
 1324  000021cc          	.endproc _FsDlxIo
 1325  000021cc          	.align 2
 1326  000021cc          	.proc _FsDlxRead
 1327  000021cc          	.global _FsDlxRead
 1328  000021cc          	_FsDlxRead:
 1329                      ;  Function 'FsDlxRead'; 0 bytes of locals, 1 regs to save.
 1330  000021cc  afbefffc	sw	-4(r29),r30; push fp
 1331  000021d0  001df020	add	r30,r0,r29; fp = sp
 1332  000021d4  afbffff8	sw	-8(r29),r31; push ret addr
 1333  000021d8  2fbd0010	subui	r29,r29,#16; alloc local storage
 1334  000021dc  afa20000	sw	0(r29),r2
 1335  000021e0  23bdfff0	addi	r29,r29,#-16
 1336  000021e4  001d0820	add	r1,r0,r29
 1337  000021e8  8fc20000	lw	r2,(r30)
 1338  000021ec  ac220000	sw	(r1),r2
 1339  000021f0  8fc20004	lw	r2,4(r30)
 1340  000021f4  ac220004	sw	4(r1),r2
 1341  000021f8  8fc20008	lw	r2,8(r30)
 1342  000021fc  ac220008	sw	8(r1),r2
 1343  00002200  20020000	addi	r2,r0,#0
 1344  00002204  ac22000c	sw	12(r1),r2
 1345  00002208  0fffff90	jal	_FsDlxIo
 1346  0000220c  54000000	nop; delay slot nop
 1347  00002210  23bd0010	addi	r29,r29,#16
 1348  00002214  00011020	add	r2,r0,r1
 1349  00002218  00020820	add	r1,r0,r2
 1350  0000221c  08000004	j	L56_LF0
 1351  00002220  54000000	nop; delay slot nop
 1352  00002224          	L56_LF0:
 1353  00002224  8fa20000	lw	r2,0(r29)
 1354  00002228  8fdffff8	lw	r31,-8(r30)
 1355  0000222c  001ee820	add	r29,r0,r30
 1356  00002230  8fdefffc	lw	r30,-4(r30)
 1357  00002234  4be00000	jr	r31
 1358  00002238  54000000	nop
 1359  0000223c          	.endproc _FsDlxRead
 1360  0000223c          	.align 2
 1361  0000223c          	.proc _FsDlxWrite
 1362  0000223c          	.global _FsDlxWrite
 1363  0000223c          	_FsDlxWrite:
 1364                      ;  Function 'FsDlxWrite'; 0 bytes of locals, 1 regs to save.
 1365  0000223c  afbefffc	sw	-4(r29),r30; push fp
 1366  00002240  001df020	add	r30,r0,r29; fp = sp
 1367  00002244  afbffff8	sw	-8(r29),r31; push ret addr
 1368  00002248  2fbd0010	subui	r29,r29,#16; alloc local storage
 1369  0000224c  afa20000	sw	0(r29),r2
 1370  00002250  23bdfff0	addi	r29,r29,#-16
 1371  00002254  001d0820	add	r1,r0,r29
 1372  00002258  8fc20000	lw	r2,(r30)
 1373  0000225c  ac220000	sw	(r1),r2
 1374  00002260  8fc20004	lw	r2,4(r30)
 1375  00002264  ac220004	sw	4(r1),r2
 1376  00002268  8fc20008	lw	r2,8(r30)
 1377  0000226c  ac220008	sw	8(r1),r2
 1378  00002270  20020001	addi	r2,r0,#1
 1379  00002274  ac22000c	sw	12(r1),r2
 1380  00002278  0fffff20	jal	_FsDlxIo
 1381  0000227c  54000000	nop; delay slot nop
 1382  00002280  23bd0010	addi	r29,r29,#16
 1383  00002284  00011020	add	r2,r0,r1
 1384  00002288  00020820	add	r1,r0,r2
 1385  0000228c  08000004	j	L57_LF0
 1386  00002290  54000000	nop; delay slot nop
 1387  00002294          	L57_LF0:
 1388  00002294  8fa20000	lw	r2,0(r29)
 1389  00002298  8fdffff8	lw	r31,-8(r30)
 1390  0000229c  001ee820	add	r29,r0,r30
 1391  000022a0  8fdefffc	lw	r30,-4(r30)
 1392  000022a4  4be00000	jr	r31
 1393  000022a8  54000000	nop
 1394  000022ac          	.endproc _FsDlxWrite
 1395  000022ac          	.align 2
 1396  000022ac          	.proc _FsDlxOpen
 1397  000022ac          	.global _FsDlxOpen
 1398  000022ac          	_FsDlxOpen:
 1399                      ;  Function 'FsDlxOpen'; 0 bytes of locals, 3 regs to save.
 1400  000022ac  afbefffc	sw	-4(r29),r30; push fp
 1401  000022b0  001df020	add	r30,r0,r29; fp = sp
 1402  000022b4  afbffff8	sw	-8(r29),r31; push ret addr
 1403  000022b8  2fbd0018	subui	r29,r29,#24; alloc local storage
 1404  000022bc  afa20000	sw	0(r29),r2
 1405  000022c0  afa30004	sw	4(r29),r3
 1406  000022c4  afa40008	sw	8(r29),r4
 1407  000022c8  3c010001	lhi	r1,((_openfiles_LF0)>>16)&0xffff
 1408  000022cc  242130d8	addui	r1,r1,(_openfiles_LF0)&0xffff
 1409  000022d0  8fc20000	lw	r2,(r30)
 1410  000022d4  00022020	add	r4,r0,r2
 1411  000022d8  50830004	slli	r3,r4,#0x4
 1412  000022dc  00621820	add	r3,r3,r2
 1413  000022e0  50640002	slli	r4,r3,#0x2
 1414  000022e4  00822022	sub	r4,r4,r2
 1415  000022e8  50820002	slli	r2,r4,#0x2
 1416  000022ec  00220820	add	r1,r1,r2
 1417  000022f0  20020000	addi	r2,r0,#0
 1418  000022f4  ac220108	sw	264(r1),r2
 1419  000022f8  20010001	addi	r1,r0,#1
 1420  000022fc  08000004	j	L58_LF0
 1421  00002300  54000000	nop; delay slot nop
 1422  00002304          	L58_LF0:
 1423  00002304  8fa20000	lw	r2,0(r29)
 1424  00002308  8fa30004	lw	r3,4(r29)
 1425  0000230c  8fa40008	lw	r4,8(r29)
 1426  00002310  8fdffff8	lw	r31,-8(r30)
 1427  00002314  001ee820	add	r29,r0,r30
 1428  00002318  8fdefffc	lw	r30,-4(r30)
 1429  0000231c  4be00000	jr	r31
 1430  00002320  54000000	nop
 1431  00002324          	.endproc _FsDlxOpen
 1432  00002324          	.align 2
 1433  00002324          	.proc _FsDlxSeek
 1434  00002324          	.global _FsDlxSeek
 1435  00002324          	_FsDlxSeek:
 1436                      ;  Function 'FsDlxSeek'; 0 bytes of locals, 2 regs to save.
 1437  00002324  afbefffc	sw	-4(r29),r30; push fp
 1438  00002328  001df020	add	r30,r0,r29; fp = sp
 1439  0000232c  afbffff8	sw	-8(r29),r31; push ret addr
 1440  00002330  2fbd0010	subui	r29,r29,#16; alloc local storage
 1441  00002334  afa20000	sw	0(r29),r2
 1442  00002338  afa30004	sw	4(r29),r3
 1443  0000233c  8fc10008	lw	r1,8(r30)
 1444  00002340  60220001	seqi	r2,r1,#1
 1445  00002344  14400040	bnez	r2,L62_LF0
 1446  00002348  54000000	nop; delay slot nop
 1447  0000234c  6c220001	sgti	r2,r1,#1
 1448  00002350  14400018	bnez	r2,L66_LF0
 1449  00002354  54000000	nop; delay slot nop
 1450  00002358  60220000	seqi	r2,r1,#0
 1451  0000235c  14400020	bnez	r2,L61_LF0
 1452  00002360  54000000	nop; delay slot nop
 1453  00002364  08000030	j	L60_LF0
 1454  00002368  54000000	nop; delay slot nop
 1455  0000236c          	L66_LF0:
 1456  0000236c  60210002	seqi	r1,r1,#2
 1457  00002370  1420001c	bnez	r1,L63_LF0
 1458  00002374  54000000	nop; delay slot nop
 1459  00002378  0800001c	j	L60_LF0
 1460  0000237c  54000000	nop; delay slot nop
 1461  00002380          	L61_LF0:
 1462  00002380  08000014	j	L60_LF0
 1463  00002384  54000000	nop; delay slot nop
 1464  00002388          	L62_LF0:
 1465  00002388  0800000c	j	L60_LF0
 1466  0000238c  54000000	nop; delay slot nop
 1467  00002390          	L63_LF0:
 1468  00002390  08000004	j	L60_LF0
 1469  00002394  54000000	nop; delay slot nop
 1470  00002398          	L65_LF0:
 1471  00002398          	L60_LF0:
 1472  00002398  8fc10000	lw	r1,(r30)
 1473  0000239c  00011820	add	r3,r0,r1
 1474  000023a0  50620004	slli	r2,r3,#0x4
 1475  000023a4  00411020	add	r2,r2,r1
 1476  000023a8  50430002	slli	r3,r2,#0x2
 1477  000023ac  00611822	sub	r3,r3,r1
 1478  000023b0  50610002	slli	r1,r3,#0x2
 1479  000023b4  3c1f0001	lhi	r31,((_openfiles_LF0)>>16)&0xffff
 1480  000023b8  27ff30d8	addui	r31,r31,(_openfiles_LF0)&0xffff
 1481  000023bc  003f1020	add	r2,r1,r31
 1482  000023c0  8c410108	lw	r1,264(r2)
 1483  000023c4  08000004	j	L59_LF0
 1484  000023c8  54000000	nop; delay slot nop
 1485  000023cc          	L59_LF0:
 1486  000023cc  8fa20000	lw	r2,0(r29)
 1487  000023d0  8fa30004	lw	r3,4(r29)
 1488  000023d4  8fdffff8	lw	r31,-8(r30)
 1489  000023d8  001ee820	add	r29,r0,r30
 1490  000023dc  8fdefffc	lw	r30,-4(r30)
 1491  000023e0  4be00000	jr	r31
 1492  000023e4  54000000	nop
 1493  000023e8          	.endproc _FsDlxSeek
 1494  000023e8          	.align 2
 1495  000023e8          	.proc _FsDlxClose
 1496  000023e8          	.global _FsDlxClose
 1497  000023e8          	_FsDlxClose:
 1498                      ;  Function 'FsDlxClose'; 0 bytes of locals, 0 regs to save.
 1499  000023e8  afbefffc	sw	-4(r29),r30; push fp
 1500  000023ec  001df020	add	r30,r0,r29; fp = sp
 1501  000023f0  afbffff8	sw	-8(r29),r31; push ret addr
 1502  000023f4  2fbd0008	subui	r29,r29,#8; alloc local storage
 1503  000023f8  20010001	addi	r1,r0,#1
 1504  000023fc  08000004	j	L67_LF0
 1505  00002400  54000000	nop; delay slot nop
 1506  00002404          	L67_LF0:
 1507  00002404  8fdffff8	lw	r31,-8(r30)
 1508  00002408  001ee820	add	r29,r0,r30
 1509  0000240c  8fdefffc	lw	r30,-4(r30)
 1510  00002410  4be00000	jr	r31
 1511  00002414  54000000	nop
 1512  00002418          	.endproc _FsDlxClose
 1513  00002418          	.align 2
 1514  00002418          	.proc _FsDlxDelete
 1515  00002418          	.global _FsDlxDelete
 1516  00002418          	_FsDlxDelete:
 1517                      ;  Function 'FsDlxDelete'; 0 bytes of locals, 0 regs to save.
 1518  00002418  afbefffc	sw	-4(r29),r30; push fp
 1519  0000241c  001df020	add	r30,r0,r29; fp = sp
 1520  00002420  afbffff8	sw	-8(r29),r31; push ret addr
 1521  00002424  2fbd0008	subui	r29,r29,#8; alloc local storage
 1522  00002428  20010001	addi	r1,r0,#1
 1523  0000242c  08000004	j	L68_LF0
 1524  00002430  54000000	nop; delay slot nop
 1525  00002434          	L68_LF0:
 1526  00002434  8fdffff8	lw	r31,-8(r30)
 1527  00002438  001ee820	add	r29,r0,r30
 1528  0000243c  8fdefffc	lw	r30,-4(r30)
 1529  00002440  4be00000	jr	r31
 1530  00002444  54000000	nop
 1531  00002448          	.endproc _FsDlxDelete
 1532  00002448          	.align 2
 1533  00002448          	.proc _FsModuleInit
 1534  00002448          	.global _FsModuleInit
 1535  00002448          	_FsModuleInit:
 1536                      ;  Function 'FsModuleInit'; 8 bytes of locals, 3 regs to save.
 1537  00002448  afbefffc	sw	-4(r29),r30; push fp
 1538  0000244c  001df020	add	r30,r0,r29; fp = sp
 1539  00002450  afbffff8	sw	-8(r29),r31; push ret addr
 1540  00002454  2fbd0020	subui	r29,r29,#32; alloc local storage
 1541  00002458  afa20000	sw	0(r29),r2
 1542  0000245c  afa30004	sw	4(r29),r3
 1543  00002460  afa40008	sw	8(r29),r4
 1544  00002464  54000000	nop
 1545  00002468  20010000	addi	r1,r0,#0
 1546  0000246c  afc1fff4	sw	-12(r30),r1
 1547  00002470          	L70_LF0:
 1548  00002470  8fc1fff4	lw	r1,-12(r30)
 1549  00002474  7022001f	slei	r2,r1,#31
 1550  00002478  1440000c	bnez	r2,L73_LF0
 1551  0000247c  54000000	nop; delay slot nop
 1552  00002480  0800004c	j	L71_LF0
 1553  00002484  54000000	nop; delay slot nop
 1554  00002488          	L73_LF0:
 1555  00002488  3c010001	lhi	r1,((_openfiles_LF0)>>16)&0xffff
 1556  0000248c  242130d8	addui	r1,r1,(_openfiles_LF0)&0xffff
 1557  00002490  8fc2fff4	lw	r2,-12(r30)
 1558  00002494  00022020	add	r4,r0,r2
 1559  00002498  50830004	slli	r3,r4,#0x4
 1560  0000249c  00621820	add	r3,r3,r2
 1561  000024a0  50640002	slli	r4,r3,#0x2
 1562  000024a4  00822022	sub	r4,r4,r2
 1563  000024a8  50820002	slli	r2,r4,#0x2
 1564  000024ac  00220820	add	r1,r1,r2
 1565  000024b0  20020000	addi	r2,r0,#0
 1566  000024b4  ac220004	sw	4(r1),r2
 1567  000024b8          	L72_LF0:
 1568  000024b8  8fc2fff4	lw	r2,-12(r30)
 1569  000024bc  20410001	addi	r1,r2,#1
 1570  000024c0  00011020	add	r2,r0,r1
 1571  000024c4  afc2fff4	sw	-12(r30),r2
 1572  000024c8  0bffffa4	j	L70_LF0
 1573  000024cc  54000000	nop; delay slot nop
 1574  000024d0          	L71_LF0:
 1575  000024d0  3c010001	lhi	r1,((_fs_LF0)>>16)&0xffff
 1576  000024d4  242130a8	addui	r1,r1,(_fs_LF0)&0xffff
 1577  000024d8  3c020000	lhi	r2,((_FsUnixOpen)>>16)&0xffff
 1578  000024dc  24421d1c	addui	r2,r2,(_FsUnixOpen)&0xffff
 1579  000024e0  ac220000	sw	(r1),r2
 1580  000024e4  3c010001	lhi	r1,((_fs_LF0)>>16)&0xffff
 1581  000024e8  242130a8	addui	r1,r1,(_fs_LF0)&0xffff
 1582  000024ec  3c020000	lhi	r2,((_FsUnixClose)>>16)&0xffff
 1583  000024f0  244220d4	addui	r2,r2,(_FsUnixClose)&0xffff
 1584  000024f4  ac220010	sw	16(r1),r2
 1585  000024f8  3c010001	lhi	r1,((_fs_LF0)>>16)&0xffff
 1586  000024fc  242130a8	addui	r1,r1,(_fs_LF0)&0xffff
 1587  00002500  3c020000	lhi	r2,((_FsUnixRead)>>16)&0xffff
 1588  00002504  24421edc	addui	r2,r2,(_FsUnixRead)&0xffff
 1589  00002508  ac220004	sw	4(r1),r2
 1590  0000250c  3c010001	lhi	r1,((_fs_LF0)>>16)&0xffff
 1591  00002510  242130a8	addui	r1,r1,(_fs_LF0)&0xffff
 1592  00002514  3c020000	lhi	r2,((_FsUnixWrite)>>16)&0xffff
 1593  00002518  24421f84	addui	r2,r2,(_FsUnixWrite)&0xffff
 1594  0000251c  ac220008	sw	8(r1),r2
 1595  00002520  3c010001	lhi	r1,((_fs_LF0)>>16)&0xffff
 1596  00002524  242130a8	addui	r1,r1,(_fs_LF0)&0xffff
 1597  00002528  3c020000	lhi	r2,((_FsUnixSeek)>>16)&0xffff
 1598  0000252c  2442202c	addui	r2,r2,(_FsUnixSeek)&0xffff
 1599  00002530  ac22000c	sw	12(r1),r2
 1600  00002534  3c010001	lhi	r1,((_fs_LF0)>>16)&0xffff
 1601  00002538  242130a8	addui	r1,r1,(_fs_LF0)&0xffff
 1602  0000253c  3c020000	lhi	r2,((_FsUnixDelete)>>16)&0xffff
 1603  00002540  2442216c	addui	r2,r2,(_FsUnixDelete)&0xffff
 1604  00002544  ac220014	sw	20(r1),r2
 1605  00002548  3c010001	lhi	r1,((_fs_LF0)>>16)&0xffff
 1606  0000254c  242130a8	addui	r1,r1,(_fs_LF0)&0xffff
 1607  00002550  3c020000	lhi	r2,((_FsDlxOpen)>>16)&0xffff
 1608  00002554  244222ac	addui	r2,r2,(_FsDlxOpen)&0xffff
 1609  00002558  ac220018	sw	24(r1),r2
 1610  0000255c  3c010001	lhi	r1,((_fs_LF0)>>16)&0xffff
 1611  00002560  242130a8	addui	r1,r1,(_fs_LF0)&0xffff
 1612  00002564  3c020000	lhi	r2,((_FsDlxClose)>>16)&0xffff
 1613  00002568  244223e8	addui	r2,r2,(_FsDlxClose)&0xffff
 1614  0000256c  ac220028	sw	40(r1),r2
 1615  00002570  3c010001	lhi	r1,((_fs_LF0)>>16)&0xffff
 1616  00002574  242130a8	addui	r1,r1,(_fs_LF0)&0xffff
 1617  00002578  3c020000	lhi	r2,((_FsDlxRead)>>16)&0xffff
 1618  0000257c  244221cc	addui	r2,r2,(_FsDlxRead)&0xffff
 1619  00002580  ac22001c	sw	28(r1),r2
 1620  00002584  3c010001	lhi	r1,((_fs_LF0)>>16)&0xffff
 1621  00002588  242130a8	addui	r1,r1,(_fs_LF0)&0xffff
 1622  0000258c  3c020000	lhi	r2,((_FsDlxWrite)>>16)&0xffff
 1623  00002590  2442223c	addui	r2,r2,(_FsDlxWrite)&0xffff
 1624  00002594  ac220020	sw	32(r1),r2
 1625  00002598  3c010001	lhi	r1,((_fs_LF0)>>16)&0xffff
 1626  0000259c  242130a8	addui	r1,r1,(_fs_LF0)&0xffff
 1627  000025a0  3c020000	lhi	r2,((_FsDlxSeek)>>16)&0xffff
 1628  000025a4  24422324	addui	r2,r2,(_FsDlxSeek)&0xffff
 1629  000025a8  ac220024	sw	36(r1),r2
 1630  000025ac  3c010001	lhi	r1,((_fs_LF0)>>16)&0xffff
 1631  000025b0  242130a8	addui	r1,r1,(_fs_LF0)&0xffff
 1632  000025b4  3c020000	lhi	r2,((_FsDlxDelete)>>16)&0xffff
 1633  000025b8  24422418	addui	r2,r2,(_FsDlxDelete)&0xffff
 1634  000025bc  ac22002c	sw	44(r1),r2
 1635  000025c0          	L69_LF0:
 1636  000025c0  8fa20000	lw	r2,0(r29)
 1637  000025c4  8fa30004	lw	r3,4(r29)
 1638  000025c8  8fa40008	lw	r4,8(r29)
 1639  000025cc  8fdffff8	lw	r31,-8(r30)
 1640  000025d0  001ee820	add	r29,r0,r30
 1641  000025d4  8fdefffc	lw	r30,-4(r30)
 1642  000025d8  4be00000	jr	r31
 1643  000025dc  54000000	nop
 1644  000025e0          	.endproc _FsModuleInit
 1645  000025e0          	.data
 1646  000130a7          	.align 2
 1647  000130a8          	_fs_LF0:
 1648  000130a8          	.space 48
 1649  000130d8          	.align 2
 1650  000130d8          	_openfiles_LF0:
 1651  000130d8          	.space 8576
 1652  00015258          	.text
 1653  000025e0          	.align 2
 1654  000025e0          	.proc _FdValid_LF0
 1655  000025e0          	_FdValid_LF0:
 1656                      ;  Function 'FdValid'; 0 bytes of locals, 3 regs to save.
 1657  000025e0  afbefffc	sw	-4(r29),r30; push fp
 1658  000025e4  001df020	add	r30,r0,r29; fp = sp
 1659  000025e8  afbffff8	sw	-8(r29),r31; push ret addr
 1660  000025ec  2fbd0018	subui	r29,r29,#24; alloc local storage
 1661  000025f0  afa20000	sw	0(r29),r2
 1662  000025f4  afa30004	sw	4(r29),r3
 1663  000025f8  afa40008	sw	8(r29),r4
 1664  000025fc  8fc20000	lw	r2,(r30)
 1665  00002600  20010000	addi	r1,r0,#0
 1666  00002604  6c430000	sgti	r3,r2,#0
 1667  00002608  10600048	beqz	r3,L13_LF0
 1668  0000260c  54000000	nop; delay slot nop
 1669  00002610  7043001f	slei	r3,r2,#31
 1670  00002614  1060003c	beqz	r3,L13_LF0
 1671  00002618  54000000	nop; delay slot nop
 1672  0000261c  00022020	add	r4,r0,r2
 1673  00002620  50830004	slli	r3,r4,#0x4
 1674  00002624  00621820	add	r3,r3,r2
 1675  00002628  50640002	slli	r4,r3,#0x2
 1676  0000262c  00822022	sub	r4,r4,r2
 1677  00002630  50830002	slli	r3,r4,#0x2
 1678  00002634  3c1f0001	lhi	r31,((_openfiles_LF0)>>16)&0xffff
 1679  00002638  27ff30d8	addui	r31,r31,(_openfiles_LF0)&0xffff
 1680  0000263c  007f2020	add	r4,r3,r31
 1681  00002640  8c830004	lw	r3,4(r4)
 1682  00002644  64640000	snei	r4,r3,#0
 1683  00002648  10800008	beqz	r4,L13_LF0
 1684  0000264c  54000000	nop; delay slot nop
 1685  00002650  20010001	addi	r1,r0,#1
 1686  00002654          	L13_LF0:
 1687  00002654  08000004	j	L12_LF0
 1688  00002658  54000000	nop; delay slot nop
 1689  0000265c          	L12_LF0:
 1690  0000265c  8fa20000	lw	r2,0(r29)
 1691  00002660  8fa30004	lw	r3,4(r29)
 1692  00002664  8fa40008	lw	r4,8(r29)
 1693  00002668  8fdffff8	lw	r31,-8(r30)
 1694  0000266c  001ee820	add	r29,r0,r30
 1695  00002670  8fdefffc	lw	r30,-4(r30)
 1696  00002674  4be00000	jr	r31
 1697  00002678  54000000	nop
 1698  0000267c          	.endproc _FdValid_LF0
 1699  0000267c          	.align 2
 1700  0000267c          	.proc _FsFreeEntry_LF0
 1701  0000267c          	_FsFreeEntry_LF0:
 1702                      ;  Function 'FsFreeEntry'; 0 bytes of locals, 3 regs to save.
 1703  0000267c  afbefffc	sw	-4(r29),r30; push fp
 1704  00002680  001df020	add	r30,r0,r29; fp = sp
 1705  00002684  afbffff8	sw	-8(r29),r31; push ret addr
 1706  00002688  2fbd0018	subui	r29,r29,#24; alloc local storage
 1707  0000268c  afa20000	sw	0(r29),r2
 1708  00002690  afa30004	sw	4(r29),r3
 1709  00002694  afa40008	sw	8(r29),r4
 1710  00002698  8fc10000	lw	r1,(r30)
 1711  0000269c  3c020001	lhi	r2,((_openfiles_LF0)>>16)&0xffff
 1712  000026a0  244230d8	addui	r2,r2,(_openfiles_LF0)&0xffff
 1713  000026a4  00012020	add	r4,r0,r1
 1714  000026a8  50830004	slli	r3,r4,#0x4
 1715  000026ac  00611820	add	r3,r3,r1
 1716  000026b0  50640002	slli	r4,r3,#0x2
 1717  000026b4  00812022	sub	r4,r4,r1
 1718  000026b8  50830002	slli	r3,r4,#0x2
 1719  000026bc  00431020	add	r2,r2,r3
 1720  000026c0  20030000	addi	r3,r0,#0
 1721  000026c4  ac430004	sw	4(r2),r3
 1722  000026c8          	L16_LF0:
 1723  000026c8  8fa20000	lw	r2,0(r29)
 1724  000026cc  8fa30004	lw	r3,4(r29)
 1725  000026d0  8fa40008	lw	r4,8(r29)
 1726  000026d4  8fdffff8	lw	r31,-8(r30)
 1727  000026d8  001ee820	add	r29,r0,r30
 1728  000026dc  8fdefffc	lw	r30,-4(r30)
 1729  000026e0  4be00000	jr	r31
 1730  000026e4  54000000	nop
 1731  000026e8          	.endproc _FsFreeEntry_LF0
 1732                      ; Compiled by GCC
 1734  000026e8          	.align 2
 1735  000026e8          	.proc _isspace
 1736  000026e8          	.global _isspace
 1737  000026e8          	_isspace:
 1738                      ;  Function 'isspace'; 0 bytes of locals, 3 regs to save.
 1739  000026e8  afbefffc	sw	-4(r29),r30; push fp
 1740  000026ec  001df020	add	r30,r0,r29; fp = sp
 1741  000026f0  afbffff8	sw	-8(r29),r31; push ret addr
 1742  000026f4  2fbd0018	subui	r29,r29,#24; alloc local storage
 1743  000026f8  afa20000	sw	0(r29),r2
 1744  000026fc  afa30004	sw	4(r29),r3
 1745  00002700  afa40008	sw	8(r29),r4
 1746  00002704  83c20003	lb	r2,3(r30)
 1747  00002708  20010000	addi	r1,r0,#0
 1748  0000270c  304300ff	andi	r3,r2,#0x00ff
 1749  00002710  60640020	seqi	r4,r3,#32
 1750  00002714  1480002c	bnez	r4,L3_LF1
 1751  00002718  54000000	nop; delay slot nop
 1752  0000271c  304300ff	andi	r3,r2,#0x00ff
 1753  00002720  60640009	seqi	r4,r3,#9
 1754  00002724  1480001c	bnez	r4,L3_LF1
 1755  00002728  54000000	nop; delay slot nop
 1756  0000272c  304300ff	andi	r3,r2,#0x00ff
 1757  00002730  6064000a	seqi	r4,r3,#10
 1758  00002734  1480000c	bnez	r4,L3_LF1
 1759  00002738  54000000	nop; delay slot nop
 1760  0000273c  08000008	j	L2_LF1
 1761  00002740  54000000	nop; delay slot nop
 1762  00002744          	L3_LF1:
 1763  00002744  20010001	addi	r1,r0,#1
 1764  00002748          	L2_LF1:
 1765  00002748  08000004	j	L1_LF1
 1766  0000274c  54000000	nop; delay slot nop
 1767  00002750          	L1_LF1:
 1768  00002750  8fa20000	lw	r2,0(r29)
 1769  00002754  8fa30004	lw	r3,4(r29)
 1770  00002758  8fa40008	lw	r4,8(r29)
 1771  0000275c  8fdffff8	lw	r31,-8(r30)
 1772  00002760  001ee820	add	r29,r0,r30
 1773  00002764  8fdefffc	lw	r30,-4(r30)
 1774  00002768  4be00000	jr	r31
 1775  0000276c  54000000	nop
 1776  00002770          	.endproc _isspace
 1777  00002770          	.align 2
 1778  00002770          	.proc _isxdigit
 1779  00002770          	.global _isxdigit
 1780  00002770          	_isxdigit:
 1781                      ;  Function 'isxdigit'; 0 bytes of locals, 3 regs to save.
 1782  00002770  afbefffc	sw	-4(r29),r30; push fp
 1783  00002774  001df020	add	r30,r0,r29; fp = sp
 1784  00002778  afbffff8	sw	-8(r29),r31; push ret addr
 1785  0000277c  2fbd0018	subui	r29,r29,#24; alloc local storage
 1786  00002780  afa20000	sw	0(r29),r2
 1787  00002784  afa30004	sw	4(r29),r3
 1788  00002788  afa40008	sw	8(r29),r4
 1789  0000278c  83c20003	lb	r2,3(r30)
 1790  00002790  20010000	addi	r1,r0,#0
 1791  00002794  304300ff	andi	r3,r2,#0x00ff
 1792  00002798  6c64002f	sgtui	r4,r3,#47
 1793  0000279c  1080001c	beqz	r4,L7_LF1
 1794  000027a0  54000000	nop; delay slot nop
 1795  000027a4  304300ff	andi	r3,r2,#0x00ff
 1796  000027a8  70640039	sleui	r4,r3,#57
 1797  000027ac  1480005c	bnez	r4,L6_LF1
 1798  000027b0  54000000	nop; delay slot nop
 1799  000027b4  08000004	j	L7_LF1
 1800  000027b8  54000000	nop; delay slot nop
 1801  000027bc          	L7_LF1:
 1802  000027bc  304300ff	andi	r3,r2,#0x00ff
 1803  000027c0  6c640060	sgtui	r4,r3,#96
 1804  000027c4  1080001c	beqz	r4,L8_LF1
 1805  000027c8  54000000	nop; delay slot nop
 1806  000027cc  304300ff	andi	r3,r2,#0x00ff
 1807  000027d0  70640066	sleui	r4,r3,#102
 1808  000027d4  14800034	bnez	r4,L6_LF1
 1809  000027d8  54000000	nop; delay slot nop
 1810  000027dc  08000004	j	L8_LF1
 1811  000027e0  54000000	nop; delay slot nop
 1812  000027e4          	L8_LF1:
 1813  000027e4  304300ff	andi	r3,r2,#0x00ff
 1814  000027e8  6c640040	sgtui	r4,r3,#64
 1815  000027ec  10800020	beqz	r4,L5_LF1
 1816  000027f0  54000000	nop; delay slot nop
 1817  000027f4  304300ff	andi	r3,r2,#0x00ff
 1818  000027f8  70640041	sleui	r4,r3,#65
 1819  000027fc  1480000c	bnez	r4,L6_LF1
 1820  00002800  54000000	nop; delay slot nop
 1821  00002804  08000008	j	L5_LF1
 1822  00002808  54000000	nop; delay slot nop
 1823  0000280c          	L6_LF1:
 1824  0000280c  20010001	addi	r1,r0,#1
 1825  00002810          	L5_LF1:
 1826  00002810  08000004	j	L4_LF1
 1827  00002814  54000000	nop; delay slot nop
 1828  00002818          	L4_LF1:
 1829  00002818  8fa20000	lw	r2,0(r29)
 1830  0000281c  8fa30004	lw	r3,4(r29)
 1831  00002820  8fa40008	lw	r4,8(r29)
 1832  00002824  8fdffff8	lw	r31,-8(r30)
 1833  00002828  001ee820	add	r29,r0,r30
 1834  0000282c  8fdefffc	lw	r30,-4(r30)
 1835  00002830  4be00000	jr	r31
 1836  00002834  54000000	nop
 1837  00002838          	.endproc _isxdigit
 1838  00002838          	.align 2
 1839  00002838          	.proc _DisableIntrs
 1840  00002838          	.global _DisableIntrs
 1841  00002838          	_DisableIntrs:
 1842                      ;  Function 'DisableIntrs'; 0 bytes of locals, 1 regs to save.
 1843  00002838  afbefffc	sw	-4(r29),r30; push fp
 1844  0000283c  001df020	add	r30,r0,r29; fp = sp
 1845  00002840  afbffff8	sw	-8(r29),r31; push ret addr
 1846  00002844  2fbd0010	subui	r29,r29,#16; alloc local storage
 1847  00002848  afa20000	sw	0(r29),r2
 1848  0000284c  23bdfff8	addi	r29,r29,#-8
 1849  00002850  001d0820	add	r1,r0,r29
 1850  00002854  2002000f	addi	r2,r0,#15
 1851  00002858  ac220000	sw	(r1),r2
 1852  0000285c  0c00fc1c	jal	_SetIntrs
 1853  00002860  54000000	nop; delay slot nop
 1854  00002864  23bd0008	addi	r29,r29,#8
 1855  00002868  00011020	add	r2,r0,r1
 1856  0000286c  00020820	add	r1,r0,r2
 1857  00002870  08000004	j	L9_LF1
 1858  00002874  54000000	nop; delay slot nop
 1859  00002878          	L9_LF1:
 1860  00002878  8fa20000	lw	r2,0(r29)
 1861  0000287c  8fdffff8	lw	r31,-8(r30)
 1862  00002880  001ee820	add	r29,r0,r30
 1863  00002884  8fdefffc	lw	r30,-4(r30)
 1864  00002888  4be00000	jr	r31
 1865  0000288c  54000000	nop
 1866  00002890          	.endproc _DisableIntrs
 1867  00002890          	.align 2
 1868  00002890          	.proc _EnableIntrs
 1869  00002890          	.global _EnableIntrs
 1870  00002890          	_EnableIntrs:
 1871                      ;  Function 'EnableIntrs'; 0 bytes of locals, 1 regs to save.
 1872  00002890  afbefffc	sw	-4(r29),r30; push fp
 1873  00002894  001df020	add	r30,r0,r29; fp = sp
 1874  00002898  afbffff8	sw	-8(r29),r31; push ret addr
 1875  0000289c  2fbd0010	subui	r29,r29,#16; alloc local storage
 1876  000028a0  afa20000	sw	0(r29),r2
 1877  000028a4  23bdfff8	addi	r29,r29,#-8
 1878  000028a8  001d0820	add	r1,r0,r29
 1879  000028ac  20020000	addi	r2,r0,#0
 1880  000028b0  ac220000	sw	(r1),r2
 1881  000028b4  0c00fbc4	jal	_SetIntrs
 1882  000028b8  54000000	nop; delay slot nop
 1883  000028bc  23bd0008	addi	r29,r29,#8
 1884  000028c0  00011020	add	r2,r0,r1
 1885  000028c4  00020820	add	r1,r0,r2
 1886  000028c8  08000004	j	L10_LF1
 1887  000028cc  54000000	nop; delay slot nop
 1888  000028d0          	L10_LF1:
 1889  000028d0  8fa20000	lw	r2,0(r29)
 1890  000028d4  8fdffff8	lw	r31,-8(r30)
 1891  000028d8  001ee820	add	r29,r0,r30
 1892  000028dc  8fdefffc	lw	r30,-4(r30)
 1893  000028e0  4be00000	jr	r31
 1894  000028e4  54000000	nop
 1895  000028e8          	.endproc _EnableIntrs
 1896  000028e8          	.align 2
 1897  000028e8          	.proc _RestoreIntrs
 1898  000028e8          	.global _RestoreIntrs
 1899  000028e8          	_RestoreIntrs:
 1900                      ;  Function 'RestoreIntrs'; 0 bytes of locals, 2 regs to save.
 1901  000028e8  afbefffc	sw	-4(r29),r30; push fp
 1902  000028ec  001df020	add	r30,r0,r29; fp = sp
 1903  000028f0  afbffff8	sw	-8(r29),r31; push ret addr
 1904  000028f4  2fbd0010	subui	r29,r29,#16; alloc local storage
 1905  000028f8  afa20000	sw	0(r29),r2
 1906  000028fc  afa30004	sw	4(r29),r3
 1907  00002900  8fc20000	lw	r2,(r30)
 1908  00002904  23bdfff8	addi	r29,r29,#-8
 1909  00002908  001d0820	add	r1,r0,r29
 1910  0000290c  ac220000	sw	(r1),r2
 1911  00002910  0c00fb68	jal	_SetIntrs
 1912  00002914  54000000	nop; delay slot nop
 1913  00002918  23bd0008	addi	r29,r29,#8
 1914  0000291c  00011820	add	r3,r0,r1
 1915  00002920  00030820	add	r1,r0,r3
 1916  00002924  08000004	j	L11_LF1
 1917  00002928  54000000	nop; delay slot nop
 1918  0000292c          	L11_LF1:
 1919  0000292c  8fa20000	lw	r2,0(r29)
 1920  00002930  8fa30004	lw	r3,4(r29)
 1921  00002934  8fdffff8	lw	r31,-8(r30)
 1922  00002938  001ee820	add	r29,r0,r30
 1923  0000293c  8fdefffc	lw	r30,-4(r30)
 1924  00002940  4be00000	jr	r31
 1925  00002944  54000000	nop
 1926  00002948          	.endproc _RestoreIntrs
 1927  00002948          	.data
 1928  00015258          	.align 2
 1929  00015258          	_negativeone_LF1:
 1930  00015258  ffffffff	.word -1
 1931  0001525c          	.text
 1932  00002948          	.align 2
 1933  00002948          	.proc _MemoryGetSize
 1934  00002948          	.global _MemoryGetSize
 1935  00002948          	_MemoryGetSize:
 1936                      ;  Function 'MemoryGetSize'; 0 bytes of locals, 1 regs to save.
 1937  00002948  afbefffc	sw	-4(r29),r30; push fp
 1938  0000294c  001df020	add	r30,r0,r29; fp = sp
 1939  00002950  afbffff8	sw	-8(r29),r31; push ret addr
 1940  00002954  2fbd0010	subui	r29,r29,#16; alloc local storage
 1941  00002958  afa20000	sw	0(r29),r2
 1942  0000295c  3c02ffff	lhi	r2,#-1
 1943  00002960  24420000	addui	r2,r2,#0
 1944  00002964  8c410000	lw	r1,(r2)
 1945  00002968  08000004	j	L14_LF1
 1946  0000296c  54000000	nop; delay slot nop
 1947  00002970          	L14_LF1:
 1948  00002970  8fa20000	lw	r2,0(r29)
 1949  00002974  8fdffff8	lw	r31,-8(r30)
 1950  00002978  001ee820	add	r29,r0,r30
 1951  0000297c  8fdefffc	lw	r30,-4(r30)
 1952  00002980  4be00000	jr	r31
 1953  00002984  54000000	nop
 1954  00002988          	.endproc _MemoryGetSize
 1955  00002988          	.data
 1956  0001525c          	.align 2
 1957  0001525c          	LC0_LF1:
 1958  0001525c  4d656d6f	.ascii "MemoryModuleInit, Start\n\000"
 1958  00015260  72794d6f	
 1958  00015264  64756c65	
 1958  00015268  496e6974	
 1958  0001526c  2c205374	
 1958  00015270  6172740a	
 1958  00015274  00      	
 1959  00015275          	.align 2
 1960  00015278          	LC1_LF1:
 1961  00015278  4d617020	.ascii "Map has %d entries, memory size is 0x%x.\n\000"
 1961  0001527c  68617320	
 1961  00015280  25642065	
 1961  00015284  6e747269	
 1961  00015288  65732c20	
 1961  0001528c  6d656d6f	
 1961  00015290  72792073	
 1961  00015294  697a6520	
 1961  00015298  69732030	
 1961  0001529c  7825782e	
 1961  000152a0  0a00    	
 1962  000152a2          	.align 2
 1963  000152a4          	LC2_LF1:
 1964  000152a4  496e6974	.ascii "Initialized %d free pages.\n\000"
 1964  000152a8  69616c69	
 1964  000152ac  7a656420	
 1964  000152b0  25642066	
 1964  000152b4  72656520	
 1964  000152b8  70616765	
 1964  000152bc  732e0a00	
 1965  000152c0          	.text
 1966  00002988          	.align 2
 1967  00002988          	.proc _MemoryModuleInit
 1968  00002988          	.global _MemoryModuleInit
 1969  00002988          	_MemoryModuleInit:
 1970                      ;  Function 'MemoryModuleInit'; 8 bytes of locals, 4 regs to save.
 1971  00002988  afbefffc	sw	-4(r29),r30; push fp
 1972  0000298c  001df020	add	r30,r0,r29; fp = sp
 1973  00002990  afbffff8	sw	-8(r29),r31; push ret addr
 1974  00002994  2fbd0020	subui	r29,r29,#32; alloc local storage
 1975  00002998  afa20000	sw	0(r29),r2
 1976  0000299c  afa30004	sw	4(r29),r3
 1977  000029a0  afa40008	sw	8(r29),r4
 1978  000029a4  afa5000c	sw	12(r29),r5
 1979  000029a8  23bdfff8	addi	r29,r29,#-8
 1980  000029ac  001d0820	add	r1,r0,r29
 1981  000029b0  3c020001	lhi	r2,((_debugstr)>>16)&0xffff
 1982  000029b4  244261cb	addui	r2,r2,(_debugstr)&0xffff
 1983  000029b8  ac220000	sw	(r1),r2
 1984  000029bc  2002006d	addi	r2,r0,#109
 1985  000029c0  ac220004	sw	4(r1),r2
 1986  000029c4  0c001a8c	jal	_dindex
 1987  000029c8  54000000	nop; delay slot nop
 1988  000029cc  23bd0008	addi	r29,r29,#8
 1989  000029d0  64220000	snei	r2,r1,#0
 1990  000029d4  10400024	beqz	r2,L16_LF1
 1991  000029d8  54000000	nop; delay slot nop
 1992  000029dc  23bdfff8	addi	r29,r29,#-8
 1993  000029e0  001d0820	add	r1,r0,r29
 1994  000029e4  3c020001	lhi	r2,((LC0_LF1)>>16)&0xffff
 1995  000029e8  2442525c	addui	r2,r2,(LC0_LF1)&0xffff
 1996  000029ec  ac220000	sw	(r1),r2
 1997  000029f0  0c00fb88	jal	_printf
 1998  000029f4  54000000	nop; delay slot nop
 1999  000029f8  23bd0008	addi	r29,r29,#8
 2000  000029fc          	L16_LF1:
 2001  000029fc  23bdfff8	addi	r29,r29,#-8
 2002  00002a00  001d0820	add	r1,r0,r29
 2003  00002a04  3c020001	lhi	r2,((_debugstr)>>16)&0xffff
 2004  00002a08  244261cb	addui	r2,r2,(_debugstr)&0xffff
 2005  00002a0c  ac220000	sw	(r1),r2
 2006  00002a10  2002002b	addi	r2,r0,#43
 2007  00002a14  ac220004	sw	4(r1),r2
 2008  00002a18  0c001a38	jal	_dindex
 2009  00002a1c  54000000	nop; delay slot nop
 2010  00002a20  23bd0008	addi	r29,r29,#8
 2011  00002a24  64220000	snei	r2,r1,#0
 2012  00002a28  10400024	beqz	r2,L17_LF1
 2013  00002a2c  54000000	nop; delay slot nop
 2014  00002a30  23bdfff8	addi	r29,r29,#-8
 2015  00002a34  001d0820	add	r1,r0,r29
 2016  00002a38  3c020001	lhi	r2,((LC0_LF1)>>16)&0xffff
 2017  00002a3c  2442525c	addui	r2,r2,(LC0_LF1)&0xffff
 2018  00002a40  ac220000	sw	(r1),r2
 2019  00002a44  0c00fb34	jal	_printf
 2020  00002a48  54000000	nop; delay slot nop
 2021  00002a4c  23bd0008	addi	r29,r29,#8
 2022  00002a50          	L17_LF1:
 2023  00002a50  3c010001	lhi	r1,((_pagestart_LF1)>>16)&0xffff
 2024  00002a54  24215444	addui	r1,r1,(_pagestart_LF1)&0xffff
 2025  00002a58  3c020002	lhi	r2,((_lastosaddress)>>16)&0xffff
 2026  00002a5c  24422518	addui	r2,r2,(_lastosaddress)&0xffff
 2027  00002a60  8c440000	lw	r4,(r2)
 2028  00002a64  20830ffc	addi	r3,r4,#4092
 2029  00002a68  00031020	add	r2,r0,r3
 2030  00002a6c  74430000	sgei	r3,r2,#0
 2031  00002a70  14600008	bnez	r3,L18_LF1
 2032  00002a74  54000000	nop; delay slot nop
 2033  00002a78  20420fff	addi	r2,r2,#4095
 2034  00002a7c          	L18_LF1:
 2035  00002a7c  5c42000c	srai	r2,r2,#0xc
 2036  00002a80  ac220000	sw	(r1),r2
 2037  00002a84  3c010001	lhi	r1,((_freemapmax_LF1)>>16)&0xffff
 2038  00002a88  2421544c	addui	r1,r1,(_freemapmax_LF1)&0xffff
 2039  00002a8c  20020010	addi	r2,r0,#16
 2040  00002a90  ac220000	sw	(r1),r2
 2041  00002a94  23bdfff8	addi	r29,r29,#-8
 2042  00002a98  001d0820	add	r1,r0,r29
 2043  00002a9c  3c020001	lhi	r2,((_debugstr)>>16)&0xffff
 2044  00002aa0  244261cb	addui	r2,r2,(_debugstr)&0xffff
 2045  00002aa4  ac220000	sw	(r1),r2
 2046  00002aa8  2002006d	addi	r2,r0,#109
 2047  00002aac  ac220004	sw	4(r1),r2
 2048  00002ab0  0c0019a0	jal	_dindex
 2049  00002ab4  54000000	nop; delay slot nop
 2050  00002ab8  23bd0008	addi	r29,r29,#8
 2051  00002abc  64220000	snei	r2,r1,#0
 2052  00002ac0  1040003c	beqz	r2,L19_LF1
 2053  00002ac4  54000000	nop; delay slot nop
 2054  00002ac8  23bdfff0	addi	r29,r29,#-16
 2055  00002acc  001d0820	add	r1,r0,r29
 2056  00002ad0  3c020001	lhi	r2,((LC1_LF1)>>16)&0xffff
 2057  00002ad4  24425278	addui	r2,r2,(LC1_LF1)&0xffff
 2058  00002ad8  ac220000	sw	(r1),r2
 2059  00002adc  3c020001	lhi	r2,((_freemapmax_LF1)>>16)&0xffff
 2060  00002ae0  2442544c	addui	r2,r2,(_freemapmax_LF1)&0xffff
 2061  00002ae4  8c430000	lw	r3,(r2)
 2062  00002ae8  ac230004	sw	4(r1),r3
 2063  00002aec  20020200	addi	r2,r0,#512
 2064  00002af0  ac220008	sw	8(r1),r2
 2065  00002af4  0c00fa84	jal	_printf
 2066  00002af8  54000000	nop; delay slot nop
 2067  00002afc  23bd0010	addi	r29,r29,#16
 2068  00002b00          	L19_LF1:
 2069  00002b00  23bdfff8	addi	r29,r29,#-8
 2070  00002b04  001d0820	add	r1,r0,r29
 2071  00002b08  3c020001	lhi	r2,((_debugstr)>>16)&0xffff
 2072  00002b0c  244261cb	addui	r2,r2,(_debugstr)&0xffff
 2073  00002b10  ac220000	sw	(r1),r2
 2074  00002b14  2002002b	addi	r2,r0,#43
 2075  00002b18  ac220004	sw	4(r1),r2
 2076  00002b1c  0c001934	jal	_dindex
 2077  00002b20  54000000	nop; delay slot nop
 2078  00002b24  23bd0008	addi	r29,r29,#8
 2079  00002b28  64220000	snei	r2,r1,#0
 2080  00002b2c  1040003c	beqz	r2,L20_LF1
 2081  00002b30  54000000	nop; delay slot nop
 2082  00002b34  23bdfff0	addi	r29,r29,#-16
 2083  00002b38  001d0820	add	r1,r0,r29
 2084  00002b3c  3c020001	lhi	r2,((LC1_LF1)>>16)&0xffff
 2085  00002b40  24425278	addui	r2,r2,(LC1_LF1)&0xffff
 2086  00002b44  ac220000	sw	(r1),r2
 2087  00002b48  3c020001	lhi	r2,((_freemapmax_LF1)>>16)&0xffff
 2088  00002b4c  2442544c	addui	r2,r2,(_freemapmax_LF1)&0xffff
 2089  00002b50  8c430000	lw	r3,(r2)
 2090  00002b54  ac230004	sw	4(r1),r3
 2091  00002b58  20020200	addi	r2,r0,#512
 2092  00002b5c  ac220008	sw	8(r1),r2
 2093  00002b60  0c00fa18	jal	_printf
 2094  00002b64  54000000	nop; delay slot nop
 2095  00002b68  23bd0010	addi	r29,r29,#16
 2096  00002b6c          	L20_LF1:
 2097  00002b6c  3c010001	lhi	r1,((_nfreepages_LF1)>>16)&0xffff
 2098  00002b70  24215448	addui	r1,r1,(_nfreepages_LF1)&0xffff
 2099  00002b74  20020000	addi	r2,r0,#0
 2100  00002b78  ac220000	sw	(r1),r2
 2101  00002b7c  20010000	addi	r1,r0,#0
 2102  00002b80  afc1fff4	sw	-12(r30),r1
 2103  00002b84          	L21_LF1:
 2104  00002b84  3c010001	lhi	r1,((_freemapmax_LF1)>>16)&0xffff
 2105  00002b88  2421544c	addui	r1,r1,(_freemapmax_LF1)&0xffff
 2106  00002b8c  8fc2fff4	lw	r2,-12(r30)
 2107  00002b90  8c210000	lw	r1,(r1)
 2108  00002b94  0041102a	slt	r2,r2,r1
 2109  00002b98  1440000c	bnez	r2,L24_LF1
 2110  00002b9c  54000000	nop; delay slot nop
 2111  00002ba0  08000048	j	L22_LF1
 2112  00002ba4  54000000	nop; delay slot nop
 2113  00002ba8          	L24_LF1:
 2114  00002ba8  8fc1fff4	lw	r1,-12(r30)
 2115  00002bac  20020004	addi	r2,r0,#4
 2116  00002bb0  00200035	movi2fp	f0,r1
 2117  00002bb4  00400835	movi2fp	f1,r2
 2118  00002bb8  0401000e	mult	f0,f0,f1
 2119  00002bbc  00000834	movfp2i	r1,f0
 2120  00002bc0  3c050001	lhi	r5,((_freemap_LF1)>>16)&0xffff
 2121  00002bc4  24a55404	addui	r5,r5,(_freemap_LF1)&0xffff
 2122  00002bc8  00251020	add	r2,r1,r5
 2123  00002bcc  20010000	addi	r1,r0,#0
 2124  00002bd0  ac410000	sw	(r2),r1
 2125  00002bd4          	L23_LF1:
 2126  00002bd4  8fc2fff4	lw	r2,-12(r30)
 2127  00002bd8  20410001	addi	r1,r2,#1
 2128  00002bdc  00011020	add	r2,r0,r1
 2129  00002be0  afc2fff4	sw	-12(r30),r2
 2130  00002be4  0bffff9c	j	L21_LF1
 2131  00002be8  54000000	nop; delay slot nop
 2132  00002bec          	L22_LF1:
 2133  00002bec  54000000	nop
 2134  00002bf0  3c010001	lhi	r1,((_pagestart_LF1)>>16)&0xffff
 2135  00002bf4  24215444	addui	r1,r1,(_pagestart_LF1)&0xffff
 2136  00002bf8  8c220000	lw	r2,(r1)
 2137  00002bfc  afc2fff0	sw	-16(r30),r2
 2138  00002c00          	L25_LF1:
 2139  00002c00  8fc1fff0	lw	r1,-16(r30)
 2140  00002c04  702201ff	slei	r2,r1,#511
 2141  00002c08  1440000c	bnez	r2,L28_LF1
 2142  00002c0c  54000000	nop; delay slot nop
 2143  00002c10  0800005c	j	L26_LF1
 2144  00002c14  54000000	nop; delay slot nop
 2145  00002c18          	L28_LF1:
 2146  00002c18  3c010001	lhi	r1,((_nfreepages_LF1)>>16)&0xffff
 2147  00002c1c  24215448	addui	r1,r1,(_nfreepages_LF1)&0xffff
 2148  00002c20  3c020001	lhi	r2,((_nfreepages_LF1)>>16)&0xffff
 2149  00002c24  24425448	addui	r2,r2,(_nfreepages_LF1)&0xffff
 2150  00002c28  8c430000	lw	r3,(r2)
 2151  00002c2c  20620001	addi	r2,r3,#1
 2152  00002c30  ac220000	sw	(r1),r2
 2153  00002c34  23bdfff8	addi	r29,r29,#-8
 2154  00002c38  001d0820	add	r1,r0,r29
 2155  00002c3c  8fc2fff0	lw	r2,-16(r30)
 2156  00002c40  ac220000	sw	(r1),r2
 2157  00002c44  20020001	addi	r2,r0,#1
 2158  00002c48  ac220004	sw	4(r1),r2
 2159  00002c4c  0c00010c	jal	_MemorySetFreemap
 2160  00002c50  54000000	nop; delay slot nop
 2161  00002c54  23bd0008	addi	r29,r29,#8
 2162  00002c58          	L27_LF1:
 2163  00002c58  8fc2fff0	lw	r2,-16(r30)
 2164  00002c5c  20410001	addi	r1,r2,#1
 2165  00002c60  00011020	add	r2,r0,r1
 2166  00002c64  afc2fff0	sw	-16(r30),r2
 2167  00002c68  0bffff94	j	L25_LF1
 2168  00002c6c  54000000	nop; delay slot nop
 2169  00002c70          	L26_LF1:
 2170  00002c70  23bdfff8	addi	r29,r29,#-8
 2171  00002c74  001d0820	add	r1,r0,r29
 2172  00002c78  3c020001	lhi	r2,((_debugstr)>>16)&0xffff
 2173  00002c7c  244261cb	addui	r2,r2,(_debugstr)&0xffff
 2174  00002c80  ac220000	sw	(r1),r2
 2175  00002c84  2002006d	addi	r2,r0,#109
 2176  00002c88  ac220004	sw	4(r1),r2
 2177  00002c8c  0c0017c4	jal	_dindex
 2178  00002c90  54000000	nop; delay slot nop
 2179  00002c94  23bd0008	addi	r29,r29,#8
 2180  00002c98  64220000	snei	r2,r1,#0
 2181  00002c9c  10400034	beqz	r2,L29_LF1
 2182  00002ca0  54000000	nop; delay slot nop
 2183  00002ca4  23bdfff8	addi	r29,r29,#-8
 2184  00002ca8  001d0820	add	r1,r0,r29
 2185  00002cac  3c020001	lhi	r2,((LC2_LF1)>>16)&0xffff
 2186  00002cb0  244252a4	addui	r2,r2,(LC2_LF1)&0xffff
 2187  00002cb4  ac220000	sw	(r1),r2
 2188  00002cb8  3c020001	lhi	r2,((_nfreepages_LF1)>>16)&0xffff
 2189  00002cbc  24425448	addui	r2,r2,(_nfreepages_LF1)&0xffff
 2190  00002cc0  8c430000	lw	r3,(r2)
 2191  00002cc4  ac230004	sw	4(r1),r3
 2192  00002cc8  0c00f8b0	jal	_printf
 2193  00002ccc  54000000	nop; delay slot nop
 2194  00002cd0  23bd0008	addi	r29,r29,#8
 2195  00002cd4          	L29_LF1:
 2196  00002cd4  23bdfff8	addi	r29,r29,#-8
 2197  00002cd8  001d0820	add	r1,r0,r29
 2198  00002cdc  3c020001	lhi	r2,((_debugstr)>>16)&0xffff
 2199  00002ce0  244261cb	addui	r2,r2,(_debugstr)&0xffff
 2200  00002ce4  ac220000	sw	(r1),r2
 2201  00002ce8  2002002b	addi	r2,r0,#43
 2202  00002cec  ac220004	sw	4(r1),r2
 2203  00002cf0  0c001760	jal	_dindex
 2204  00002cf4  54000000	nop; delay slot nop
 2205  00002cf8  23bd0008	addi	r29,r29,#8
 2206  00002cfc  64220000	snei	r2,r1,#0
 2207  00002d00  10400034	beqz	r2,L30_LF1
 2208  00002d04  54000000	nop; delay slot nop
 2209  00002d08  23bdfff8	addi	r29,r29,#-8
 2210  00002d0c  001d0820	add	r1,r0,r29
 2211  00002d10  3c020001	lhi	r2,((LC2_LF1)>>16)&0xffff
 2212  00002d14  244252a4	addui	r2,r2,(LC2_LF1)&0xffff
 2213  00002d18  ac220000	sw	(r1),r2
 2214  00002d1c  3c020001	lhi	r2,((_nfreepages_LF1)>>16)&0xffff
 2215  00002d20  24425448	addui	r2,r2,(_nfreepages_LF1)&0xffff
 2216  00002d24  8c430000	lw	r3,(r2)
 2217  00002d28  ac230004	sw	4(r1),r3
 2218  00002d2c  0c00f84c	jal	_printf
 2219  00002d30  54000000	nop; delay slot nop
 2220  00002d34  23bd0008	addi	r29,r29,#8
 2221  00002d38          	L30_LF1:
 2222  00002d38          	L15_LF1:
 2223  00002d38  8fa20000	lw	r2,0(r29)
 2224  00002d3c  8fa30004	lw	r3,4(r29)
 2225  00002d40  8fa40008	lw	r4,8(r29)
 2226  00002d44  8fa5000c	lw	r5,12(r29)
 2227  00002d48  8fdffff8	lw	r31,-8(r30)
 2228  00002d4c  001ee820	add	r29,r0,r30
 2229  00002d50  8fdefffc	lw	r30,-4(r30)
 2230  00002d54  4be00000	jr	r31
 2231  00002d58  54000000	nop
 2232  00002d5c          	.endproc _MemoryModuleInit
 2233  00002d5c          	.data
 2234  000152c0          	.align 2
 2235  000152c0          	LC3_LF1:
 2236  000152c0  4d656d6f	.ascii "MemorySetFreemap, Set freemap entry %d to 0x%x.\n\000"
 2236  000152c4  72795365	
 2236  000152c8  74467265	
 2236  000152cc  656d6170	
 2236  000152d0  2c205365	
 2236  000152d4  74206672	
 2236  000152d8  65656d61	
 2236  000152dc  7020656e	
 2236  000152e0  74727920	
 2236  000152e4  25642074	
 2236  000152e8  6f203078	
 2236  000152ec  25782e0a	
 2236  000152f0  00      	
 2237  000152f1          	.text
 2238  00002d5c          	.align 2
 2239  00002d5c          	.proc _MemorySetFreemap
 2240  00002d5c          	.global _MemorySetFreemap
 2241  00002d5c          	_MemorySetFreemap:
 2242                      ;  Function 'MemorySetFreemap'; 8 bytes of locals, 4 regs to save.
 2243  00002d5c  afbefffc	sw	-4(r29),r30; push fp
 2244  00002d60  001df020	add	r30,r0,r29; fp = sp
 2245  00002d64  afbffff8	sw	-8(r29),r31; push ret addr
 2246  00002d68  2fbd0020	subui	r29,r29,#32; alloc local storage
 2247  00002d6c  afa20000	sw	0(r29),r2
 2248  00002d70  afa30004	sw	4(r29),r3
 2249  00002d74  afa40008	sw	8(r29),r4
 2250  00002d78  afa5000c	sw	12(r29),r5
 2251  00002d7c  8fc20000	lw	r2,(r30)
 2252  00002d80  00020820	add	r1,r0,r2
 2253  00002d84  74220000	sgei	r2,r1,#0
 2254  00002d88  14400008	bnez	r2,L32_LF1
 2255  00002d8c  54000000	nop; delay slot nop
 2256  00002d90  2021001f	addi	r1,r1,#31
 2257  00002d94          	L32_LF1:
 2258  00002d94  5c210005	srai	r1,r1,#0x5
 2259  00002d98  afc1fff4	sw	-12(r30),r1
 2260  00002d9c  8fc10000	lw	r1,(r30)
 2261  00002da0  00011020	add	r2,r0,r1
 2262  00002da4  74430000	sgei	r3,r2,#0
 2263  00002da8  14600008	bnez	r3,L33_LF1
 2264  00002dac  54000000	nop; delay slot nop
 2265  00002db0  2042001f	addi	r2,r2,#31
 2266  00002db4          	L33_LF1:
 2267  00002db4  5c420005	srai	r2,r2,#0x5
 2268  00002db8  20030020	addi	r3,r0,#32
 2269  00002dbc  00400035	movi2fp	f0,r2
 2270  00002dc0  00600835	movi2fp	f1,r3
 2271  00002dc4  0401000e	mult	f0,f0,f1
 2272  00002dc8  00001034	movfp2i	r2,f0
 2273  00002dcc  00220822	sub	r1,r1,r2
 2274  00002dd0  afc1fff0	sw	-16(r30),r1
 2275  00002dd4  23bdfff8	addi	r29,r29,#-8
 2276  00002dd8  001d0820	add	r1,r0,r29
 2277  00002ddc  20020001	addi	r2,r0,#1
 2278  00002de0  8fc3fff0	lw	r3,-16(r30)
 2279  00002de4  00431004	sll	r2,r2,r3
 2280  00002de8  ac220000	sw	(r1),r2
 2281  00002dec  0c000f88	jal	_invert_LF1
 2282  00002df0  54000000	nop; delay slot nop
 2283  00002df4  23bd0008	addi	r29,r29,#8
 2284  00002df8  00011020	add	r2,r0,r1
 2285  00002dfc  8fc1fff4	lw	r1,-12(r30)
 2286  00002e00  20040004	addi	r4,r0,#4
 2287  00002e04  00200035	movi2fp	f0,r1
 2288  00002e08  00800835	movi2fp	f1,r4
 2289  00002e0c  0401000e	mult	f0,f0,f1
 2290  00002e10  00001834	movfp2i	r3,f0
 2291  00002e14  3c050001	lhi	r5,((_freemap_LF1)>>16)&0xffff
 2292  00002e18  24a55404	addui	r5,r5,(_freemap_LF1)&0xffff
 2293  00002e1c  00650820	add	r1,r3,r5
 2294  00002e20  8fc3fff4	lw	r3,-12(r30)
 2295  00002e24  20040004	addi	r4,r0,#4
 2296  00002e28  00600035	movi2fp	f0,r3
 2297  00002e2c  00800835	movi2fp	f1,r4
 2298  00002e30  0401000e	mult	f0,f0,f1
 2299  00002e34  00001834	movfp2i	r3,f0
 2300  00002e38  3c050001	lhi	r5,((_freemap_LF1)>>16)&0xffff
 2301  00002e3c  24a55404	addui	r5,r5,(_freemap_LF1)&0xffff
 2302  00002e40  00652020	add	r4,r3,r5
 2303  00002e44  8c830000	lw	r3,(r4)
 2304  00002e48  00431024	and	r2,r2,r3
 2305  00002e4c  8fc30004	lw	r3,4(r30)
 2306  00002e50  8fc4fff0	lw	r4,-16(r30)
 2307  00002e54  00641804	sll	r3,r3,r4
 2308  00002e58  00431025	or	r2,r2,r3
 2309  00002e5c  ac220000	sw	(r1),r2
 2310  00002e60  23bdfff8	addi	r29,r29,#-8
 2311  00002e64  001d0820	add	r1,r0,r29
 2312  00002e68  3c020001	lhi	r2,((_debugstr)>>16)&0xffff
 2313  00002e6c  244261cb	addui	r2,r2,(_debugstr)&0xffff
 2314  00002e70  ac220000	sw	(r1),r2
 2315  00002e74  2002006d	addi	r2,r0,#109
 2316  00002e78  ac220004	sw	4(r1),r2
 2317  00002e7c  0c0015d4	jal	_dindex
 2318  00002e80  54000000	nop; delay slot nop
 2319  00002e84  23bd0008	addi	r29,r29,#8
 2320  00002e88  64220000	snei	r2,r1,#0
 2321  00002e8c  10400058	beqz	r2,L34_LF1
 2322  00002e90  54000000	nop; delay slot nop
 2323  00002e94  23bdfff0	addi	r29,r29,#-16
 2324  00002e98  001d0820	add	r1,r0,r29
 2325  00002e9c  3c020001	lhi	r2,((LC3_LF1)>>16)&0xffff
 2326  00002ea0  244252c0	addui	r2,r2,(LC3_LF1)&0xffff
 2327  00002ea4  ac220000	sw	(r1),r2
 2328  00002ea8  8fc2fff4	lw	r2,-12(r30)
 2329  00002eac  ac220004	sw	4(r1),r2
 2330  00002eb0  8fc2fff4	lw	r2,-12(r30)
 2331  00002eb4  20030004	addi	r3,r0,#4
 2332  00002eb8  00400035	movi2fp	f0,r2
 2333  00002ebc  00600835	movi2fp	f1,r3
 2334  00002ec0  0401000e	mult	f0,f0,f1
 2335  00002ec4  00001034	movfp2i	r2,f0
 2336  00002ec8  3c050001	lhi	r5,((_freemap_LF1)>>16)&0xffff
 2337  00002ecc  24a55404	addui	r5,r5,(_freemap_LF1)&0xffff
 2338  00002ed0  00451820	add	r3,r2,r5
 2339  00002ed4  8c620000	lw	r2,(r3)
 2340  00002ed8  ac220008	sw	8(r1),r2
 2341  00002edc  0c00f69c	jal	_printf
 2342  00002ee0  54000000	nop; delay slot nop
 2343  00002ee4  23bd0010	addi	r29,r29,#16
 2344  00002ee8          	L34_LF1:
 2345  00002ee8  23bdfff8	addi	r29,r29,#-8
 2346  00002eec  001d0820	add	r1,r0,r29
 2347  00002ef0  3c020001	lhi	r2,((_debugstr)>>16)&0xffff
 2348  00002ef4  244261cb	addui	r2,r2,(_debugstr)&0xffff
 2349  00002ef8  ac220000	sw	(r1),r2
 2350  00002efc  2002002b	addi	r2,r0,#43
 2351  00002f00  ac220004	sw	4(r1),r2
 2352  00002f04  0c00154c	jal	_dindex
 2353  00002f08  54000000	nop; delay slot nop
 2354  00002f0c  23bd0008	addi	r29,r29,#8
 2355  00002f10  64220000	snei	r2,r1,#0
 2356  00002f14  10400058	beqz	r2,L35_LF1
 2357  00002f18  54000000	nop; delay slot nop
 2358  00002f1c  23bdfff0	addi	r29,r29,#-16
 2359  00002f20  001d0820	add	r1,r0,r29
 2360  00002f24  3c020001	lhi	r2,((LC3_LF1)>>16)&0xffff
 2361  00002f28  244252c0	addui	r2,r2,(LC3_LF1)&0xffff
 2362  00002f2c  ac220000	sw	(r1),r2
 2363  00002f30  8fc2fff4	lw	r2,-12(r30)
 2364  00002f34  ac220004	sw	4(r1),r2
 2365  00002f38  8fc2fff4	lw	r2,-12(r30)
 2366  00002f3c  20030004	addi	r3,r0,#4
 2367  00002f40  00400035	movi2fp	f0,r2
 2368  00002f44  00600835	movi2fp	f1,r3
 2369  00002f48  0401000e	mult	f0,f0,f1
 2370  00002f4c  00001034	movfp2i	r2,f0
 2371  00002f50  3c050001	lhi	r5,((_freemap_LF1)>>16)&0xffff
 2372  00002f54  24a55404	addui	r5,r5,(_freemap_LF1)&0xffff
 2373  00002f58  00451820	add	r3,r2,r5
 2374  00002f5c  8c620000	lw	r2,(r3)
 2375  00002f60  ac220008	sw	8(r1),r2
 2376  00002f64  0c00f614	jal	_printf
 2377  00002f68  54000000	nop; delay slot nop
 2378  00002f6c  23bd0010	addi	r29,r29,#16
 2379  00002f70          	L35_LF1:
 2380  00002f70          	L31_LF1:
 2381  00002f70  8fa20000	lw	r2,0(r29)
 2382  00002f74  8fa30004	lw	r3,4(r29)
 2383  00002f78  8fa40008	lw	r4,8(r29)
 2384  00002f7c  8fa5000c	lw	r5,12(r29)
 2385  00002f80  8fdffff8	lw	r31,-8(r30)
 2386  00002f84  001ee820	add	r29,r0,r30
 2387  00002f88  8fdefffc	lw	r30,-4(r30)
 2388  00002f8c  4be00000	jr	r31
 2389  00002f90  54000000	nop
 2390  00002f94          	.endproc _MemorySetFreemap
 2391  00002f94          	.data
 2392  000152f1          	.align 2
 2393  000152f4          	LC4_LF1:
 2394  000152f4  456e7465	.ascii "Enter MemoryTranslateUserToSystem\n\000"
 2394  000152f8  72204d65	
 2394  000152fc  6d6f7279	
 2394  00015300  5472616e	
 2394  00015304  736c6174	
 2394  00015308  65557365	
 2394  0001530c  72546f53	
 2394  00015310  79737465	
 2394  00015314  6d0a00  	
 2395  00015317          	.text
 2396  00002f94          	.align 2
 2397  00002f94          	.proc _MemoryTranslateUserToSystem
 2398  00002f94          	.global _MemoryTranslateUserToSystem
 2399  00002f94          	_MemoryTranslateUserToSystem:
 2400                      ;  Function 'MemoryTranslateUserToSystem'; 8 bytes of locals, 3 regs to save.
 2401  00002f94  afbefffc	sw	-4(r29),r30; push fp
 2402  00002f98  001df020	add	r30,r0,r29; fp = sp
 2403  00002f9c  afbffff8	sw	-8(r29),r31; push ret addr
 2404  00002fa0  2fbd0020	subui	r29,r29,#32; alloc local storage
 2405  00002fa4  afa20000	sw	0(r29),r2
 2406  00002fa8  afa30004	sw	4(r29),r3
 2407  00002fac  afa40008	sw	8(r29),r4
 2408  00002fb0  8fc20004	lw	r2,4(r30)
 2409  00002fb4  5841000c	srli	r1,r2,#0xc
 2410  00002fb8  afc1fff4	sw	-12(r30),r1
 2411  00002fbc  8fc10004	lw	r1,4(r30)
 2412  00002fc0  30220fff	andi	r2,r1,#4095
 2413  00002fc4  afc2fff0	sw	-16(r30),r2
 2414  00002fc8  23bdfff8	addi	r29,r29,#-8
 2415  00002fcc  001d0820	add	r1,r0,r29
 2416  00002fd0  3c020001	lhi	r2,((_debugstr)>>16)&0xffff
 2417  00002fd4  244261cb	addui	r2,r2,(_debugstr)&0xffff
 2418  00002fd8  ac220000	sw	(r1),r2
 2419  00002fdc  2002006d	addi	r2,r0,#109
 2420  00002fe0  ac220004	sw	4(r1),r2
 2421  00002fe4  0c00146c	jal	_dindex
 2422  00002fe8  54000000	nop; delay slot nop
 2423  00002fec  23bd0008	addi	r29,r29,#8
 2424  00002ff0  64220000	snei	r2,r1,#0
 2425  00002ff4  10400024	beqz	r2,L37_LF1
 2426  00002ff8  54000000	nop; delay slot nop
 2427  00002ffc  23bdfff8	addi	r29,r29,#-8
 2428  00003000  001d0820	add	r1,r0,r29
 2429  00003004  3c020001	lhi	r2,((LC4_LF1)>>16)&0xffff
 2430  00003008  244252f4	addui	r2,r2,(LC4_LF1)&0xffff
 2431  0000300c  ac220000	sw	(r1),r2
 2432  00003010  0c00f568	jal	_printf
 2433  00003014  54000000	nop; delay slot nop
 2434  00003018  23bd0008	addi	r29,r29,#8
 2435  0000301c          	L37_LF1:
 2436  0000301c  23bdfff8	addi	r29,r29,#-8
 2437  00003020  001d0820	add	r1,r0,r29
 2438  00003024  3c020001	lhi	r2,((_debugstr)>>16)&0xffff
 2439  00003028  244261cb	addui	r2,r2,(_debugstr)&0xffff
 2440  0000302c  ac220000	sw	(r1),r2
 2441  00003030  2002002b	addi	r2,r0,#43
 2442  00003034  ac220004	sw	4(r1),r2
 2443  00003038  0c001418	jal	_dindex
 2444  0000303c  54000000	nop; delay slot nop
 2445  00003040  23bd0008	addi	r29,r29,#8
 2446  00003044  64220000	snei	r2,r1,#0
 2447  00003048  10400024	beqz	r2,L38_LF1
 2448  0000304c  54000000	nop; delay slot nop
 2449  00003050  23bdfff8	addi	r29,r29,#-8
 2450  00003054  001d0820	add	r1,r0,r29
 2451  00003058  3c020001	lhi	r2,((LC4_LF1)>>16)&0xffff
 2452  0000305c  244252f4	addui	r2,r2,(LC4_LF1)&0xffff
 2453  00003060  ac220000	sw	(r1),r2
 2454  00003064  0c00f514	jal	_printf
 2455  00003068  54000000	nop; delay slot nop
 2456  0000306c  23bd0008	addi	r29,r29,#8
 2457  00003070          	L38_LF1:
 2458  00003070  8fc10004	lw	r1,4(r30)
 2459  00003074  3c02000f	lhi	r2,#15
 2460  00003078  2442fffe	addui	r2,r2,#65534
 2461  0000307c  0022082b	sgtu	r1,r1,r2
 2462  00003080  10200010	beqz	r1,L39_LF1
 2463  00003084  54000000	nop; delay slot nop
 2464  00003088  2001ffff	addi	r1,r0,#-1
 2465  0000308c  080000b0	j	L36_LF1
 2466  00003090  54000000	nop; delay slot nop
 2467  00003094          	L39_LF1:
 2468  00003094  8fc10000	lw	r1,(r30)
 2469  00003098  8fc2fff4	lw	r2,-12(r30)
 2470  0000309c  20030004	addi	r3,r0,#4
 2471  000030a0  00400035	movi2fp	f0,r2
 2472  000030a4  00600835	movi2fp	f1,r3
 2473  000030a8  0401000e	mult	f0,f0,f1
 2474  000030ac  00001034	movfp2i	r2,f0
 2475  000030b0  00410820	add	r1,r2,r1
 2476  000030b4  20220060	addi	r2,r1,#96
 2477  000030b8  8c430000	lw	r3,(r2)
 2478  000030bc  30610001	andi	r1,r3,#1
 2479  000030c0  64220000	snei	r2,r1,#0
 2480  000030c4  14400034	bnez	r2,L40_LF1
 2481  000030c8  54000000	nop; delay slot nop
 2482  000030cc  8fc10000	lw	r1,(r30)
 2483  000030d0  8c220000	lw	r2,(r1)
 2484  000030d4  20410134	addi	r1,r2,#308
 2485  000030d8  8fc20004	lw	r2,4(r30)
 2486  000030dc  ac220000	sw	(r1),r2
 2487  000030e0  23bdfff8	addi	r29,r29,#-8
 2488  000030e4  001d0820	add	r1,r0,r29
 2489  000030e8  8fc20000	lw	r2,(r30)
 2490  000030ec  ac220000	sw	(r1),r2
 2491  000030f0  0c0002dc	jal	_MemoryPageFaultHandler
 2492  000030f4  54000000	nop; delay slot nop
 2493  000030f8  23bd0008	addi	r29,r29,#8
 2494  000030fc          	L40_LF1:
 2495  000030fc  8fc10000	lw	r1,(r30)
 2496  00003100  8fc2fff4	lw	r2,-12(r30)
 2497  00003104  20030004	addi	r3,r0,#4
 2498  00003108  00400035	movi2fp	f0,r2
 2499  0000310c  00600835	movi2fp	f1,r3
 2500  00003110  0401000e	mult	f0,f0,f1
 2501  00003114  00001034	movfp2i	r2,f0
 2502  00003118  00410820	add	r1,r2,r1
 2503  0000311c  20220060	addi	r2,r1,#96
 2504  00003120  8c430000	lw	r3,(r2)
 2505  00003124  2004fff8	addi	r4,r0,#-8
 2506  00003128  00640824	and	r1,r3,r4
 2507  0000312c  8fc3fff0	lw	r3,-16(r30)
 2508  00003130  00231020	add	r2,r1,r3
 2509  00003134  00020820	add	r1,r0,r2
 2510  00003138  08000004	j	L36_LF1
 2511  0000313c  54000000	nop; delay slot nop
 2512  00003140          	L36_LF1:
 2513  00003140  8fa20000	lw	r2,0(r29)
 2514  00003144  8fa30004	lw	r3,4(r29)
 2515  00003148  8fa40008	lw	r4,8(r29)
 2516  0000314c  8fdffff8	lw	r31,-8(r30)
 2517  00003150  001ee820	add	r29,r0,r30
 2518  00003154  8fdefffc	lw	r30,-4(r30)
 2519  00003158  4be00000	jr	r31
 2520  0000315c  54000000	nop
 2521  00003160          	.endproc _MemoryTranslateUserToSystem
 2522  00003160          	.align 2
 2523  00003160          	.proc _MemoryMoveBetweenSpaces
 2524  00003160          	.global _MemoryMoveBetweenSpaces
 2525  00003160          	_MemoryMoveBetweenSpaces:
 2526                      ;  Function 'MemoryMoveBetweenSpaces'; 16 bytes of locals, 1 regs to save.
 2527  00003160  afbefffc	sw	-4(r29),r30; push fp
 2528  00003164  001df020	add	r30,r0,r29; fp = sp
 2529  00003168  afbffff8	sw	-8(r29),r31; push ret addr
 2530  0000316c  2fbd0020	subui	r29,r29,#32; alloc local storage
 2531  00003170  afa20000	sw	0(r29),r2
 2532  00003174  20010000	addi	r1,r0,#0
 2533  00003178  afc1fff0	sw	-16(r30),r1
 2534  0000317c          	L42_LF1:
 2535  0000317c  8fc1000c	lw	r1,12(r30)
 2536  00003180  6c220000	sgti	r2,r1,#0
 2537  00003184  1440000c	bnez	r2,L44_LF1
 2538  00003188  54000000	nop; delay slot nop
 2539  0000318c  0800012c	j	L43_LF1
 2540  00003190  54000000	nop; delay slot nop
 2541  00003194          	L44_LF1:
 2542  00003194  23bdfff8	addi	r29,r29,#-8
 2543  00003198  001d0820	add	r1,r0,r29
 2544  0000319c  8fc20000	lw	r2,(r30)
 2545  000031a0  ac220000	sw	(r1),r2
 2546  000031a4  8fc20008	lw	r2,8(r30)
 2547  000031a8  ac220004	sw	4(r1),r2
 2548  000031ac  0ffffde4	jal	_MemoryTranslateUserToSystem
 2549  000031b0  54000000	nop; delay slot nop
 2550  000031b4  23bd0008	addi	r29,r29,#8
 2551  000031b8  afc1fff4	sw	-12(r30),r1
 2552  000031bc  8fc1fff4	lw	r1,-12(r30)
 2553  000031c0  64220000	snei	r2,r1,#0
 2554  000031c4  1440000c	bnez	r2,L45_LF1
 2555  000031c8  54000000	nop; delay slot nop
 2556  000031cc  080000ec	j	L43_LF1
 2557  000031d0  54000000	nop; delay slot nop
 2558  000031d4          	L45_LF1:
 2559  000031d4  8fc2fff4	lw	r2,-12(r30)
 2560  000031d8  30410fff	andi	r1,r2,#4095
 2561  000031dc  20021000	addi	r2,r0,#4096
 2562  000031e0  00410822	sub	r1,r2,r1
 2563  000031e4  afc1ffec	sw	-20(r30),r1
 2564  000031e8  8fc1ffec	lw	r1,-20(r30)
 2565  000031ec  8fc2000c	lw	r2,12(r30)
 2566  000031f0  0022082b	sgt	r1,r1,r2
 2567  000031f4  1020000c	beqz	r1,L46_LF1
 2568  000031f8  54000000	nop; delay slot nop
 2569  000031fc  8fc1000c	lw	r1,12(r30)
 2570  00003200  afc1ffec	sw	-20(r30),r1
 2571  00003204          	L46_LF1:
 2572  00003204  8fc10010	lw	r1,16(r30)
 2573  00003208  74220000	sgei	r2,r1,#0
 2574  0000320c  10400038	beqz	r2,L47_LF1
 2575  00003210  54000000	nop; delay slot nop
 2576  00003214  23bdfff0	addi	r29,r29,#-16
 2577  00003218  001d0820	add	r1,r0,r29
 2578  0000321c  8fc20004	lw	r2,4(r30)
 2579  00003220  ac220000	sw	(r1),r2
 2580  00003224  8fc2fff4	lw	r2,-12(r30)
 2581  00003228  ac220004	sw	4(r1),r2
 2582  0000322c  8fc2ffec	lw	r2,-20(r30)
 2583  00003230  ac220008	sw	8(r1),r2
 2584  00003234  0c001798	jal	_bcopy
 2585  00003238  54000000	nop; delay slot nop
 2586  0000323c  23bd0010	addi	r29,r29,#16
 2587  00003240  08000030	j	L48_LF1
 2588  00003244  54000000	nop; delay slot nop
 2589  00003248          	L47_LF1:
 2590  00003248  23bdfff0	addi	r29,r29,#-16
 2591  0000324c  001d0820	add	r1,r0,r29
 2592  00003250  8fc2fff4	lw	r2,-12(r30)
 2593  00003254  ac220000	sw	(r1),r2
 2594  00003258  8fc20004	lw	r2,4(r30)
 2595  0000325c  ac220004	sw	4(r1),r2
 2596  00003260  8fc2ffec	lw	r2,-20(r30)
 2597  00003264  ac220008	sw	8(r1),r2
 2598  00003268  0c001764	jal	_bcopy
 2599  0000326c  54000000	nop; delay slot nop
 2600  00003270  23bd0010	addi	r29,r29,#16
 2601  00003274          	L48_LF1:
 2602  00003274  8fc1000c	lw	r1,12(r30)
 2603  00003278  8fc2ffec	lw	r2,-20(r30)
 2604  0000327c  00220822	sub	r1,r1,r2
 2605  00003280  afc1000c	sw	12(r30),r1
 2606  00003284  8fc1fff0	lw	r1,-16(r30)
 2607  00003288  8fc2ffec	lw	r2,-20(r30)
 2608  0000328c  00220820	add	r1,r1,r2
 2609  00003290  afc1fff0	sw	-16(r30),r1
 2610  00003294  8fc10004	lw	r1,4(r30)
 2611  00003298  8fc2ffec	lw	r2,-20(r30)
 2612  0000329c  00220820	add	r1,r1,r2
 2613  000032a0  afc10004	sw	4(r30),r1
 2614  000032a4  8fc10008	lw	r1,8(r30)
 2615  000032a8  8fc2ffec	lw	r2,-20(r30)
 2616  000032ac  00220820	add	r1,r1,r2
 2617  000032b0  afc10008	sw	8(r30),r1
 2618  000032b4  0bfffec4	j	L42_LF1
 2619  000032b8  54000000	nop; delay slot nop
 2620  000032bc          	L43_LF1:
 2621  000032bc  8fc1fff0	lw	r1,-16(r30)
 2622  000032c0  08000004	j	L41_LF1
 2623  000032c4  54000000	nop; delay slot nop
 2624  000032c8          	L41_LF1:
 2625  000032c8  8fa20000	lw	r2,0(r29)
 2626  000032cc  8fdffff8	lw	r31,-8(r30)
 2627  000032d0  001ee820	add	r29,r0,r30
 2628  000032d4  8fdefffc	lw	r30,-4(r30)
 2629  000032d8  4be00000	jr	r31
 2630  000032dc  54000000	nop
 2631  000032e0          	.endproc _MemoryMoveBetweenSpaces
 2632  000032e0          	.align 2
 2633  000032e0          	.proc _MemoryCopySystemToUser
 2634  000032e0          	.global _MemoryCopySystemToUser
 2635  000032e0          	_MemoryCopySystemToUser:
 2636                      ;  Function 'MemoryCopySystemToUser'; 0 bytes of locals, 1 regs to save.
 2637  000032e0  afbefffc	sw	-4(r29),r30; push fp
 2638  000032e4  001df020	add	r30,r0,r29; fp = sp
 2639  000032e8  afbffff8	sw	-8(r29),r31; push ret addr
 2640  000032ec  2fbd0010	subui	r29,r29,#16; alloc local storage
 2641  000032f0  afa20000	sw	0(r29),r2
 2642  000032f4  23bdffe8	addi	r29,r29,#-24
 2643  000032f8  001d0820	add	r1,r0,r29
 2644  000032fc  8fc20000	lw	r2,(r30)
 2645  00003300  ac220000	sw	(r1),r2
 2646  00003304  8fc20004	lw	r2,4(r30)
 2647  00003308  ac220004	sw	4(r1),r2
 2648  0000330c  8fc20008	lw	r2,8(r30)
 2649  00003310  ac220008	sw	8(r1),r2
 2650  00003314  8fc2000c	lw	r2,12(r30)
 2651  00003318  ac22000c	sw	12(r1),r2
 2652  0000331c  20020001	addi	r2,r0,#1
 2653  00003320  ac220010	sw	16(r1),r2
 2654  00003324  0ffffe38	jal	_MemoryMoveBetweenSpaces
 2655  00003328  54000000	nop; delay slot nop
 2656  0000332c  23bd0018	addi	r29,r29,#24
 2657  00003330  00011020	add	r2,r0,r1
 2658  00003334  00020820	add	r1,r0,r2
 2659  00003338  08000004	j	L49_LF1
 2660  0000333c  54000000	nop; delay slot nop
 2661  00003340          	L49_LF1:
 2662  00003340  8fa20000	lw	r2,0(r29)
 2663  00003344  8fdffff8	lw	r31,-8(r30)
 2664  00003348  001ee820	add	r29,r0,r30
 2665  0000334c  8fdefffc	lw	r30,-4(r30)
 2666  00003350  4be00000	jr	r31
 2667  00003354  54000000	nop
 2668  00003358          	.endproc _MemoryCopySystemToUser
 2669  00003358          	.align 2
 2670  00003358          	.proc _MemoryCopyUserToSystem
 2671  00003358          	.global _MemoryCopyUserToSystem
 2672  00003358          	_MemoryCopyUserToSystem:
 2673                      ;  Function 'MemoryCopyUserToSystem'; 0 bytes of locals, 1 regs to save.
 2674  00003358  afbefffc	sw	-4(r29),r30; push fp
 2675  0000335c  001df020	add	r30,r0,r29; fp = sp
 2676  00003360  afbffff8	sw	-8(r29),r31; push ret addr
 2677  00003364  2fbd0010	subui	r29,r29,#16; alloc local storage
 2678  00003368  afa20000	sw	0(r29),r2
 2679  0000336c  23bdffe8	addi	r29,r29,#-24
 2680  00003370  001d0820	add	r1,r0,r29
 2681  00003374  8fc20000	lw	r2,(r30)
 2682  00003378  ac220000	sw	(r1),r2
 2683  0000337c  8fc20008	lw	r2,8(r30)
 2684  00003380  ac220004	sw	4(r1),r2
 2685  00003384  8fc20004	lw	r2,4(r30)
 2686  00003388  ac220008	sw	8(r1),r2
 2687  0000338c  8fc2000c	lw	r2,12(r30)
 2688  00003390  ac22000c	sw	12(r1),r2
 2689  00003394  2002ffff	addi	r2,r0,#-1
 2690  00003398  ac220010	sw	16(r1),r2
 2691  0000339c  0ffffdc0	jal	_MemoryMoveBetweenSpaces
 2692  000033a0  54000000	nop; delay slot nop
 2693  000033a4  23bd0018	addi	r29,r29,#24
 2694  000033a8  00011020	add	r2,r0,r1
 2695  000033ac  00020820	add	r1,r0,r2
 2696  000033b0  08000004	j	L50_LF1
 2697  000033b4  54000000	nop; delay slot nop
 2698  000033b8          	L50_LF1:
 2699  000033b8  8fa20000	lw	r2,0(r29)
 2700  000033bc  8fdffff8	lw	r31,-8(r30)
 2701  000033c0  001ee820	add	r29,r0,r30
 2702  000033c4  8fdefffc	lw	r30,-4(r30)
 2703  000033c8  4be00000	jr	r31
 2704  000033cc  54000000	nop
 2705  000033d0          	.endproc _MemoryCopyUserToSystem
 2706  000033d0          	.data
 2707  00015317          	.align 2
 2708  00015318          	LC5_LF1:
 2709  00015318  4d656d6f	.ascii "MemoryPageFaultHandler, Start\n\000"
 2709  0001531c  72795061	
 2709  00015320  67654661	
 2709  00015324  756c7448	
 2709  00015328  616e646c	
 2709  0001532c  65722c20	
 2709  00015330  53746172	
 2709  00015334  740a00  	
 2710  00015337          	.align 2
 2711  00015338          	LC6_LF1:
 2712  00015338  53656766	.ascii "Segfault\n\000"
 2712  0001533c  61756c74	
 2712  00015340  0a00    	
 2713  00015342          	.text
 2714  000033d0          	.align 2
 2715  000033d0          	.proc _MemoryPageFaultHandler
 2716  000033d0          	.global _MemoryPageFaultHandler
 2717  000033d0          	_MemoryPageFaultHandler:
 2718                      ;  Function 'MemoryPageFaultHandler'; 24 bytes of locals, 3 regs to save.
 2719  000033d0  afbefffc	sw	-4(r29),r30; push fp
 2720  000033d4  001df020	add	r30,r0,r29; fp = sp
 2721  000033d8  afbffff8	sw	-8(r29),r31; push ret addr
 2722  000033dc  2fbd0030	subui	r29,r29,#48; alloc local storage
 2723  000033e0  afa20000	sw	0(r29),r2
 2724  000033e4  afa30004	sw	4(r29),r3
 2725  000033e8  afa40008	sw	8(r29),r4
 2726  000033ec  8fc10000	lw	r1,(r30)
 2727  000033f0  8c220000	lw	r2,(r1)
 2728  000033f4  20410134	addi	r1,r2,#308
 2729  000033f8  8c220000	lw	r2,(r1)
 2730  000033fc  afc2fff0	sw	-16(r30),r2
 2731  00003400  8fc10000	lw	r1,(r30)
 2732  00003404  8c220000	lw	r2,(r1)
 2733  00003408  2041009c	addi	r1,r2,#156
 2734  0000340c  8c220000	lw	r2,(r1)
 2735  00003410  afc2ffec	sw	-20(r30),r2
 2736  00003414  8fc2fff0	lw	r2,-16(r30)
 2737  00003418  00020820	add	r1,r0,r2
 2738  0000341c  74220000	sgei	r2,r1,#0
 2739  00003420  14400008	bnez	r2,L52_LF1
 2740  00003424  54000000	nop; delay slot nop
 2741  00003428  20210fff	addi	r1,r1,#4095
 2742  0000342c          	L52_LF1:
 2743  0000342c  5c21000c	srai	r1,r1,#0xc
 2744  00003430  afc1ffe8	sw	-24(r30),r1
 2745  00003434  8fc2ffec	lw	r2,-20(r30)
 2746  00003438  00020820	add	r1,r0,r2
 2747  0000343c  74220000	sgei	r2,r1,#0
 2748  00003440  14400008	bnez	r2,L53_LF1
 2749  00003444  54000000	nop; delay slot nop
 2750  00003448  20210fff	addi	r1,r1,#4095
 2751  0000344c          	L53_LF1:
 2752  0000344c  5c21000c	srai	r1,r1,#0xc
 2753  00003450  afc1ffe4	sw	-28(r30),r1
 2754  00003454  23bdfff8	addi	r29,r29,#-8
 2755  00003458  001d0820	add	r1,r0,r29
 2756  0000345c  3c020001	lhi	r2,((_debugstr)>>16)&0xffff
 2757  00003460  244261cb	addui	r2,r2,(_debugstr)&0xffff
 2758  00003464  ac220000	sw	(r1),r2
 2759  00003468  2002006d	addi	r2,r0,#109
 2760  0000346c  ac220004	sw	4(r1),r2
 2761  00003470  0c000fe0	jal	_dindex
 2762  00003474  54000000	nop; delay slot nop
 2763  00003478  23bd0008	addi	r29,r29,#8
 2764  0000347c  64220000	snei	r2,r1,#0
 2765  00003480  10400024	beqz	r2,L54_LF1
 2766  00003484  54000000	nop; delay slot nop
 2767  00003488  23bdfff8	addi	r29,r29,#-8
 2768  0000348c  001d0820	add	r1,r0,r29
 2769  00003490  3c020001	lhi	r2,((LC5_LF1)>>16)&0xffff
 2770  00003494  24425318	addui	r2,r2,(LC5_LF1)&0xffff
 2771  00003498  ac220000	sw	(r1),r2
 2772  0000349c  0c00f0dc	jal	_printf
 2773  000034a0  54000000	nop; delay slot nop
 2774  000034a4  23bd0008	addi	r29,r29,#8
 2775  000034a8          	L54_LF1:
 2776  000034a8  23bdfff8	addi	r29,r29,#-8
 2777  000034ac  001d0820	add	r1,r0,r29
 2778  000034b0  3c020001	lhi	r2,((_debugstr)>>16)&0xffff
 2779  000034b4  244261cb	addui	r2,r2,(_debugstr)&0xffff
 2780  000034b8  ac220000	sw	(r1),r2
 2781  000034bc  2002002b	addi	r2,r0,#43
 2782  000034c0  ac220004	sw	4(r1),r2
 2783  000034c4  0c000f8c	jal	_dindex
 2784  000034c8  54000000	nop; delay slot nop
 2785  000034cc  23bd0008	addi	r29,r29,#8
 2786  000034d0  64220000	snei	r2,r1,#0
 2787  000034d4  10400024	beqz	r2,L55_LF1
 2788  000034d8  54000000	nop; delay slot nop
 2789  000034dc  23bdfff8	addi	r29,r29,#-8
 2790  000034e0  001d0820	add	r1,r0,r29
 2791  000034e4  3c020001	lhi	r2,((LC5_LF1)>>16)&0xffff
 2792  000034e8  24425318	addui	r2,r2,(LC5_LF1)&0xffff
 2793  000034ec  ac220000	sw	(r1),r2
 2794  000034f0  0c00f088	jal	_printf
 2795  000034f4  54000000	nop; delay slot nop
 2796  000034f8  23bd0008	addi	r29,r29,#8
 2797  000034fc          	L55_LF1:
 2798  000034fc  8fc1ffe8	lw	r1,-24(r30)
 2799  00003500  8fc2ffe4	lw	r2,-28(r30)
 2800  00003504  0022082a	slt	r1,r1,r2
 2801  00003508  10200044	beqz	r1,L56_LF1
 2802  0000350c  54000000	nop; delay slot nop
 2803  00003510  23bdfff8	addi	r29,r29,#-8
 2804  00003514  001d0820	add	r1,r0,r29
 2805  00003518  3c020001	lhi	r2,((LC6_LF1)>>16)&0xffff
 2806  0000351c  24425338	addui	r2,r2,(LC6_LF1)&0xffff
 2807  00003520  ac220000	sw	(r1),r2
 2808  00003524  0c00f054	jal	_printf
 2809  00003528  54000000	nop; delay slot nop
 2810  0000352c  23bd0008	addi	r29,r29,#8
 2811  00003530  001d1020	add	r2,r0,r29
 2812  00003534  0c0064a8	jal	_ProcessKill
 2813  00003538  54000000	nop; delay slot nop
 2814  0000353c  2001ffff	addi	r1,r0,#-1
 2815  00003540  08000080	j	L51_LF1
 2816  00003544  54000000	nop; delay slot nop
 2817  00003548  0800006c	j	L57_LF1
 2818  0000354c  54000000	nop; delay slot nop
 2819  00003550          	L56_LF1:
 2820  00003550  001d1020	add	r2,r0,r29
 2821  00003554  0c00008c	jal	_MemoryAllocPage
 2822  00003558  54000000	nop; delay slot nop
 2823  0000355c  afc1fff4	sw	-12(r30),r1
 2824  00003560  23bdfff8	addi	r29,r29,#-8
 2825  00003564  001d0820	add	r1,r0,r29
 2826  00003568  8fc2fff4	lw	r2,-12(r30)
 2827  0000356c  ac220000	sw	(r1),r2
 2828  00003570  0c000504	jal	_MemorySetupPte
 2829  00003574  54000000	nop; delay slot nop
 2830  00003578  23bd0008	addi	r29,r29,#8
 2831  0000357c  8fc20000	lw	r2,(r30)
 2832  00003580  8fc3ffe8	lw	r3,-24(r30)
 2833  00003584  20040004	addi	r4,r0,#4
 2834  00003588  00600035	movi2fp	f0,r3
 2835  0000358c  00800835	movi2fp	f1,r4
 2836  00003590  0401000e	mult	f0,f0,f1
 2837  00003594  00001834	movfp2i	r3,f0
 2838  00003598  00621020	add	r2,r3,r2
 2839  0000359c  20430060	addi	r3,r2,#96
 2840  000035a0  ac610000	sw	(r3),r1
 2841  000035a4  8fc10000	lw	r1,(r30)
 2842  000035a8  8fc20000	lw	r2,(r30)
 2843  000035ac  8c430460	lw	r3,1120(r2)
 2844  000035b0  20620001	addi	r2,r3,#1
 2845  000035b4  ac220460	sw	1120(r1),r2
 2846  000035b8          	L57_LF1:
 2847  000035b8  20010001	addi	r1,r0,#1
 2848  000035bc  08000004	j	L51_LF1
 2849  000035c0  54000000	nop; delay slot nop
 2850  000035c4          	L51_LF1:
 2851  000035c4  8fa20000	lw	r2,0(r29)
 2852  000035c8  8fa30004	lw	r3,4(r29)
 2853  000035cc  8fa40008	lw	r4,8(r29)
 2854  000035d0  8fdffff8	lw	r31,-8(r30)
 2855  000035d4  001ee820	add	r29,r0,r30
 2856  000035d8  8fdefffc	lw	r30,-4(r30)
 2857  000035dc  4be00000	jr	r31
 2858  000035e0  54000000	nop
 2859  000035e4          	.endproc _MemoryPageFaultHandler
 2860  000035e4          	.data
 2861  00015342          	.align 2
 2862  00015344          	LC7_LF1:
 2863  00015344  4d656d6f	.ascii "MemoryAllocPage: no available pages\n\000"
 2863  00015348  7279416c	
 2863  0001534c  6c6f6350	
 2863  00015350  6167653a	
 2863  00015354  206e6f20	
 2863  00015358  61766169	
 2863  0001535c  6c61626c	
 2863  00015360  65207061	
 2863  00015364  6765730a	
 2863  00015368  00      	
 2864  00015369          	.align 2
 2865  0001536c          	LC8_LF1:
 2866  0001536c  416c6c6f	.ascii "Allocating memory, starting with page %d\n\000"
 2866  00015370  63617469	
 2866  00015374  6e67206d	
 2866  00015378  656d6f72	
 2866  0001537c  792c2073	
 2866  00015380  74617274	
 2866  00015384  696e6720	
 2866  00015388  77697468	
 2866  0001538c  20706167	
 2866  00015390  65202564	
 2866  00015394  0a00    	
 2867  00015396          	.align 2
 2868  00015398          	LC9_LF1:
 2869  00015398  416c6c6f	.ascii "Allocated memory, from map %d, page %d, map=0x%x.\n\000"
 2869  0001539c  63617465	
 2869  000153a0  64206d65	
 2869  000153a4  6d6f7279	
 2869  000153a8  2c206672	
 2869  000153ac  6f6d206d	
 2869  000153b0  61702025	
 2869  000153b4  642c2070	
 2869  000153b8  61676520	
 2869  000153bc  25642c20	
 2869  000153c0  6d61703d	
 2869  000153c4  30782578	
 2869  000153c8  2e0a00  	
 2870  000153cb          	.text
 2871  000035e4          	.align 2
 2872  000035e4          	.proc _MemoryAllocPage
 2873  000035e4          	.global _MemoryAllocPage
 2874  000035e4          	_MemoryAllocPage:
 2875                      ;  Function 'MemoryAllocPage'; 16 bytes of locals, 4 regs to save.
 2876  000035e4  afbefffc	sw	-4(r29),r30; push fp
 2877  000035e8  001df020	add	r30,r0,r29; fp = sp
 2878  000035ec  afbffff8	sw	-8(r29),r31; push ret addr
 2879  000035f0  2fbd0028	subui	r29,r29,#40; alloc local storage
 2880  000035f4  afa20000	sw	0(r29),r2
 2881  000035f8  afa30004	sw	4(r29),r3
 2882  000035fc  afa40008	sw	8(r29),r4
 2883  00003600  afa5000c	sw	12(r29),r5
 2884  00003604  20010000	addi	r1,r0,#0
 2885  00003608  afc1fff4	sw	-12(r30),r1
 2886  0000360c  3c010001	lhi	r1,((_nfreepages_LF1)>>16)&0xffff
 2887  00003610  24215448	addui	r1,r1,(_nfreepages_LF1)&0xffff
 2888  00003614  8c220000	lw	r2,(r1)
 2889  00003618  64410000	snei	r1,r2,#0
 2890  0000361c  142000b8	bnez	r1,L59_LF1
 2891  00003620  54000000	nop; delay slot nop
 2892  00003624  23bdfff8	addi	r29,r29,#-8
 2893  00003628  001d0820	add	r1,r0,r29
 2894  0000362c  3c020001	lhi	r2,((_debugstr)>>16)&0xffff
 2895  00003630  244261cb	addui	r2,r2,(_debugstr)&0xffff
 2896  00003634  ac220000	sw	(r1),r2
 2897  00003638  2002006d	addi	r2,r0,#109
 2898  0000363c  ac220004	sw	4(r1),r2
 2899  00003640  0c000e10	jal	_dindex
 2900  00003644  54000000	nop; delay slot nop
 2901  00003648  23bd0008	addi	r29,r29,#8
 2902  0000364c  64220000	snei	r2,r1,#0
 2903  00003650  10400024	beqz	r2,L60_LF1
 2904  00003654  54000000	nop; delay slot nop
 2905  00003658  23bdfff8	addi	r29,r29,#-8
 2906  0000365c  001d0820	add	r1,r0,r29
 2907  00003660  3c020001	lhi	r2,((LC7_LF1)>>16)&0xffff
 2908  00003664  24425344	addui	r2,r2,(LC7_LF1)&0xffff
 2909  00003668  ac220000	sw	(r1),r2
 2910  0000366c  0c00ef0c	jal	_printf
 2911  00003670  54000000	nop; delay slot nop
 2912  00003674  23bd0008	addi	r29,r29,#8
 2913  00003678          	L60_LF1:
 2914  00003678  23bdfff8	addi	r29,r29,#-8
 2915  0000367c  001d0820	add	r1,r0,r29
 2916  00003680  3c020001	lhi	r2,((_debugstr)>>16)&0xffff
 2917  00003684  244261cb	addui	r2,r2,(_debugstr)&0xffff
 2918  00003688  ac220000	sw	(r1),r2
 2919  0000368c  2002002b	addi	r2,r0,#43
 2920  00003690  ac220004	sw	4(r1),r2
 2921  00003694  0c000dbc	jal	_dindex
 2922  00003698  54000000	nop; delay slot nop
 2923  0000369c  23bd0008	addi	r29,r29,#8
 2924  000036a0  64220000	snei	r2,r1,#0
 2925  000036a4  10400024	beqz	r2,L61_LF1
 2926  000036a8  54000000	nop; delay slot nop
 2927  000036ac  23bdfff8	addi	r29,r29,#-8
 2928  000036b0  001d0820	add	r1,r0,r29
 2929  000036b4  3c020001	lhi	r2,((LC7_LF1)>>16)&0xffff
 2930  000036b8  24425344	addui	r2,r2,(LC7_LF1)&0xffff
 2931  000036bc  ac220000	sw	(r1),r2
 2932  000036c0  0c00eeb8	jal	_printf
 2933  000036c4  54000000	nop; delay slot nop
 2934  000036c8  23bd0008	addi	r29,r29,#8
 2935  000036cc          	L61_LF1:
 2936  000036cc  2001ffff	addi	r1,r0,#-1
 2937  000036d0  08000380	j	L58_LF1
 2938  000036d4  54000000	nop; delay slot nop
 2939  000036d8          	L59_LF1:
 2940  000036d8  23bdfff8	addi	r29,r29,#-8
 2941  000036dc  001d0820	add	r1,r0,r29
 2942  000036e0  3c020001	lhi	r2,((_debugstr)>>16)&0xffff
 2943  000036e4  244261cb	addui	r2,r2,(_debugstr)&0xffff
 2944  000036e8  ac220000	sw	(r1),r2
 2945  000036ec  2002006d	addi	r2,r0,#109
 2946  000036f0  ac220004	sw	4(r1),r2
 2947  000036f4  0c000d5c	jal	_dindex
 2948  000036f8  54000000	nop; delay slot nop
 2949  000036fc  23bd0008	addi	r29,r29,#8
 2950  00003700  64220000	snei	r2,r1,#0
 2951  00003704  1040002c	beqz	r2,L62_LF1
 2952  00003708  54000000	nop; delay slot nop
 2953  0000370c  23bdfff8	addi	r29,r29,#-8
 2954  00003710  001d0820	add	r1,r0,r29
 2955  00003714  3c020001	lhi	r2,((LC8_LF1)>>16)&0xffff
 2956  00003718  2442536c	addui	r2,r2,(LC8_LF1)&0xffff
 2957  0000371c  ac220000	sw	(r1),r2
 2958  00003720  8fc2fff4	lw	r2,-12(r30)
 2959  00003724  ac220004	sw	4(r1),r2
 2960  00003728  0c00ee50	jal	_printf
 2961  0000372c  54000000	nop; delay slot nop
 2962  00003730  23bd0008	addi	r29,r29,#8
 2963  00003734          	L62_LF1:
 2964  00003734  23bdfff8	addi	r29,r29,#-8
 2965  00003738  001d0820	add	r1,r0,r29
 2966  0000373c  3c020001	lhi	r2,((_debugstr)>>16)&0xffff
 2967  00003740  244261cb	addui	r2,r2,(_debugstr)&0xffff
 2968  00003744  ac220000	sw	(r1),r2
 2969  00003748  2002002b	addi	r2,r0,#43
 2970  0000374c  ac220004	sw	4(r1),r2
 2971  00003750  0c000d00	jal	_dindex
 2972  00003754  54000000	nop; delay slot nop
 2973  00003758  23bd0008	addi	r29,r29,#8
 2974  0000375c  64220000	snei	r2,r1,#0
 2975  00003760  1040002c	beqz	r2,L63_LF1
 2976  00003764  54000000	nop; delay slot nop
 2977  00003768  23bdfff8	addi	r29,r29,#-8
 2978  0000376c  001d0820	add	r1,r0,r29
 2979  00003770  3c020001	lhi	r2,((LC8_LF1)>>16)&0xffff
 2980  00003774  2442536c	addui	r2,r2,(LC8_LF1)&0xffff
 2981  00003778  ac220000	sw	(r1),r2
 2982  0000377c  8fc2fff4	lw	r2,-12(r30)
 2983  00003780  ac220004	sw	4(r1),r2
 2984  00003784  0c00edf4	jal	_printf
 2985  00003788  54000000	nop; delay slot nop
 2986  0000378c  23bd0008	addi	r29,r29,#8
 2987  00003790          	L63_LF1:
 2988  00003790  54000000	nop
 2989  00003794          	L64_LF1:
 2990  00003794  8fc1fff4	lw	r1,-12(r30)
 2991  00003798  20020004	addi	r2,r0,#4
 2992  0000379c  00200035	movi2fp	f0,r1
 2993  000037a0  00400835	movi2fp	f1,r2
 2994  000037a4  0401000e	mult	f0,f0,f1
 2995  000037a8  00000834	movfp2i	r1,f0
 2996  000037ac  3c050001	lhi	r5,((_freemap_LF1)>>16)&0xffff
 2997  000037b0  24a55404	addui	r5,r5,(_freemap_LF1)&0xffff
 2998  000037b4  00251020	add	r2,r1,r5
 2999  000037b8  8c410000	lw	r1,(r2)
 3000  000037bc  64220000	snei	r2,r1,#0
 3001  000037c0  1040000c	beqz	r2,L66_LF1
 3002  000037c4  54000000	nop; delay slot nop
 3003  000037c8  0800003c	j	L65_LF1
 3004  000037cc  54000000	nop; delay slot nop
 3005  000037d0          	L66_LF1:
 3006  000037d0  8fc1fff4	lw	r1,-12(r30)
 3007  000037d4  20220001	addi	r2,r1,#1
 3008  000037d8  afc2fff4	sw	-12(r30),r2
 3009  000037dc  3c010001	lhi	r1,((_freemapmax_LF1)>>16)&0xffff
 3010  000037e0  2421544c	addui	r1,r1,(_freemapmax_LF1)&0xffff
 3011  000037e4  8fc2fff4	lw	r2,-12(r30)
 3012  000037e8  8c210000	lw	r1,(r1)
 3013  000037ec  0041102d	sge	r2,r2,r1
 3014  000037f0  1040000c	beqz	r2,L67_LF1
 3015  000037f4  54000000	nop; delay slot nop
 3016  000037f8  20010000	addi	r1,r0,#0
 3017  000037fc  afc1fff4	sw	-12(r30),r1
 3018  00003800          	L67_LF1:
 3019  00003800  0bffff90	j	L64_LF1
 3020  00003804  54000000	nop; delay slot nop
 3021  00003808          	L65_LF1:
 3022  00003808  8fc1fff4	lw	r1,-12(r30)
 3023  0000380c  20020004	addi	r2,r0,#4
 3024  00003810  00200035	movi2fp	f0,r1
 3025  00003814  00400835	movi2fp	f1,r2
 3026  00003818  0401000e	mult	f0,f0,f1
 3027  0000381c  00000834	movfp2i	r1,f0
 3028  00003820  3c050001	lhi	r5,((_freemap_LF1)>>16)&0xffff
 3029  00003824  24a55404	addui	r5,r5,(_freemap_LF1)&0xffff
 3030  00003828  00251020	add	r2,r1,r5
 3031  0000382c  8c410000	lw	r1,(r2)
 3032  00003830  afc1ffec	sw	-20(r30),r1
 3033  00003834  20010000	addi	r1,r0,#0
 3034  00003838  afc1fff0	sw	-16(r30),r1
 3035  0000383c          	L68_LF1:
 3036  0000383c  20010001	addi	r1,r0,#1
 3037  00003840  8fc2fff0	lw	r2,-16(r30)
 3038  00003844  00220804	sll	r1,r1,r2
 3039  00003848  8fc2ffec	lw	r2,-20(r30)
 3040  0000384c  00220824	and	r1,r1,r2
 3041  00003850  64220000	snei	r2,r1,#0
 3042  00003854  1040000c	beqz	r2,L70_LF1
 3043  00003858  54000000	nop; delay slot nop
 3044  0000385c  0800001c	j	L69_LF1
 3045  00003860  54000000	nop; delay slot nop
 3046  00003864          	L71_LF1:
 3047  00003864          	L70_LF1:
 3048  00003864  8fc2fff0	lw	r2,-16(r30)
 3049  00003868  20410001	addi	r1,r2,#1
 3050  0000386c  00011020	add	r2,r0,r1
 3051  00003870  afc2fff0	sw	-16(r30),r2
 3052  00003874  0bffffc4	j	L68_LF1
 3053  00003878  54000000	nop; delay slot nop
 3054  0000387c          	L69_LF1:
 3055  0000387c  23bdfff8	addi	r29,r29,#-8
 3056  00003880  001d0820	add	r1,r0,r29
 3057  00003884  20020001	addi	r2,r0,#1
 3058  00003888  8fc3fff0	lw	r3,-16(r30)
 3059  0000388c  00431004	sll	r2,r2,r3
 3060  00003890  ac220000	sw	(r1),r2
 3061  00003894  0c0004e0	jal	_invert_LF1
 3062  00003898  54000000	nop; delay slot nop
 3063  0000389c  23bd0008	addi	r29,r29,#8
 3064  000038a0  8fc2fff4	lw	r2,-12(r30)
 3065  000038a4  20040004	addi	r4,r0,#4
 3066  000038a8  00400035	movi2fp	f0,r2
 3067  000038ac  00800835	movi2fp	f1,r4
 3068  000038b0  0401000e	mult	f0,f0,f1
 3069  000038b4  00001834	movfp2i	r3,f0
 3070  000038b8  3c050001	lhi	r5,((_freemap_LF1)>>16)&0xffff
 3071  000038bc  24a55404	addui	r5,r5,(_freemap_LF1)&0xffff
 3072  000038c0  00651020	add	r2,r3,r5
 3073  000038c4  8fc3fff4	lw	r3,-12(r30)
 3074  000038c8  20040004	addi	r4,r0,#4
 3075  000038cc  00600035	movi2fp	f0,r3
 3076  000038d0  00800835	movi2fp	f1,r4
 3077  000038d4  0401000e	mult	f0,f0,f1
 3078  000038d8  00001834	movfp2i	r3,f0
 3079  000038dc  3c050001	lhi	r5,((_freemap_LF1)>>16)&0xffff
 3080  000038e0  24a55404	addui	r5,r5,(_freemap_LF1)&0xffff
 3081  000038e4  00652020	add	r4,r3,r5
 3082  000038e8  8c830000	lw	r3,(r4)
 3083  000038ec  00610824	and	r1,r3,r1
 3084  000038f0  ac410000	sw	(r2),r1
 3085  000038f4  8fc1fff4	lw	r1,-12(r30)
 3086  000038f8  00011020	add	r2,r0,r1
 3087  000038fc  50410005	slli	r1,r2,#0x5
 3088  00003900  8fc2fff0	lw	r2,-16(r30)
 3089  00003904  00220820	add	r1,r1,r2
 3090  00003908  afc1ffec	sw	-20(r30),r1
 3091  0000390c  23bdfff8	addi	r29,r29,#-8
 3092  00003910  001d0820	add	r1,r0,r29
 3093  00003914  3c020001	lhi	r2,((_debugstr)>>16)&0xffff
 3094  00003918  244261cb	addui	r2,r2,(_debugstr)&0xffff
 3095  0000391c  ac220000	sw	(r1),r2
 3096  00003920  2002006d	addi	r2,r0,#109
 3097  00003924  ac220004	sw	4(r1),r2
 3098  00003928  0c000b28	jal	_dindex
 3099  0000392c  54000000	nop; delay slot nop
 3100  00003930  23bd0008	addi	r29,r29,#8
 3101  00003934  64220000	snei	r2,r1,#0
 3102  00003938  10400060	beqz	r2,L72_LF1
 3103  0000393c  54000000	nop; delay slot nop
 3104  00003940  23bdfff0	addi	r29,r29,#-16
 3105  00003944  001d0820	add	r1,r0,r29
 3106  00003948  3c020001	lhi	r2,((LC9_LF1)>>16)&0xffff
 3107  0000394c  24425398	addui	r2,r2,(LC9_LF1)&0xffff
 3108  00003950  ac220000	sw	(r1),r2
 3109  00003954  8fc2ffec	lw	r2,-20(r30)
 3110  00003958  ac220004	sw	4(r1),r2
 3111  0000395c  8fc2fff4	lw	r2,-12(r30)
 3112  00003960  ac220008	sw	8(r1),r2
 3113  00003964  8fc2fff4	lw	r2,-12(r30)
 3114  00003968  20030004	addi	r3,r0,#4
 3115  0000396c  00400035	movi2fp	f0,r2
 3116  00003970  00600835	movi2fp	f1,r3
 3117  00003974  0401000e	mult	f0,f0,f1
 3118  00003978  00001034	movfp2i	r2,f0
 3119  0000397c  3c050001	lhi	r5,((_freemap_LF1)>>16)&0xffff
 3120  00003980  24a55404	addui	r5,r5,(_freemap_LF1)&0xffff
 3121  00003984  00451820	add	r3,r2,r5
 3122  00003988  8c620000	lw	r2,(r3)
 3123  0000398c  ac22000c	sw	12(r1),r2
 3124  00003990  0c00ebe8	jal	_printf
 3125  00003994  54000000	nop; delay slot nop
 3126  00003998  23bd0010	addi	r29,r29,#16
 3127  0000399c          	L72_LF1:
 3128  0000399c  23bdfff8	addi	r29,r29,#-8
 3129  000039a0  001d0820	add	r1,r0,r29
 3130  000039a4  3c020001	lhi	r2,((_debugstr)>>16)&0xffff
 3131  000039a8  244261cb	addui	r2,r2,(_debugstr)&0xffff
 3132  000039ac  ac220000	sw	(r1),r2
 3133  000039b0  2002002b	addi	r2,r0,#43
 3134  000039b4  ac220004	sw	4(r1),r2
 3135  000039b8  0c000a98	jal	_dindex
 3136  000039bc  54000000	nop; delay slot nop
 3137  000039c0  23bd0008	addi	r29,r29,#8
 3138  000039c4  64220000	snei	r2,r1,#0
 3139  000039c8  10400060	beqz	r2,L73_LF1
 3140  000039cc  54000000	nop; delay slot nop
 3141  000039d0  23bdfff0	addi	r29,r29,#-16
 3142  000039d4  001d0820	add	r1,r0,r29
 3143  000039d8  3c020001	lhi	r2,((LC9_LF1)>>16)&0xffff
 3144  000039dc  24425398	addui	r2,r2,(LC9_LF1)&0xffff
 3145  000039e0  ac220000	sw	(r1),r2
 3146  000039e4  8fc2ffec	lw	r2,-20(r30)
 3147  000039e8  ac220004	sw	4(r1),r2
 3148  000039ec  8fc2fff4	lw	r2,-12(r30)
 3149  000039f0  ac220008	sw	8(r1),r2
 3150  000039f4  8fc2fff4	lw	r2,-12(r30)
 3151  000039f8  20030004	addi	r3,r0,#4
 3152  000039fc  00400035	movi2fp	f0,r2
 3153  00003a00  00600835	movi2fp	f1,r3
 3154  00003a04  0401000e	mult	f0,f0,f1
 3155  00003a08  00001034	movfp2i	r2,f0
 3156  00003a0c  3c050001	lhi	r5,((_freemap_LF1)>>16)&0xffff
 3157  00003a10  24a55404	addui	r5,r5,(_freemap_LF1)&0xffff
 3158  00003a14  00451820	add	r3,r2,r5
 3159  00003a18  8c620000	lw	r2,(r3)
 3160  00003a1c  ac22000c	sw	12(r1),r2
 3161  00003a20  0c00eb58	jal	_printf
 3162  00003a24  54000000	nop; delay slot nop
 3163  00003a28  23bd0010	addi	r29,r29,#16
 3164  00003a2c          	L73_LF1:
 3165  00003a2c  3c010001	lhi	r1,((_nfreepages_LF1)>>16)&0xffff
 3166  00003a30  24215448	addui	r1,r1,(_nfreepages_LF1)&0xffff
 3167  00003a34  3c020001	lhi	r2,((_nfreepages_LF1)>>16)&0xffff
 3168  00003a38  24425448	addui	r2,r2,(_nfreepages_LF1)&0xffff
 3169  00003a3c  8c430000	lw	r3,(r2)
 3170  00003a40  2062ffff	addi	r2,r3,#-1
 3171  00003a44  ac220000	sw	(r1),r2
 3172  00003a48  8fc1ffec	lw	r1,-20(r30)
 3173  00003a4c  08000004	j	L58_LF1
 3174  00003a50  54000000	nop; delay slot nop
 3175  00003a54          	L58_LF1:
 3176  00003a54  8fa20000	lw	r2,0(r29)
 3177  00003a58  8fa30004	lw	r3,4(r29)
 3178  00003a5c  8fa40008	lw	r4,8(r29)
 3179  00003a60  8fa5000c	lw	r5,12(r29)
 3180  00003a64  8fdffff8	lw	r31,-8(r30)
 3181  00003a68  001ee820	add	r29,r0,r30
 3182  00003a6c  8fdefffc	lw	r30,-4(r30)
 3183  00003a70  4be00000	jr	r31
 3184  00003a74  54000000	nop
 3185  00003a78          	.endproc _MemoryAllocPage
 3186  00003a78          	.data
 3187  000153cb          	.align 2
 3188  000153cc          	LC10_LF1:
 3189  000153cc  456e7465	.ascii "Enter MemorySetupPte\n\000"
 3189  000153d0  72204d65	
 3189  000153d4  6d6f7279	
 3189  000153d8  53657475	
 3189  000153dc  70507465	
 3189  000153e0  0a00    	
 3190  000153e2          	.text
 3191  00003a78          	.align 2
 3192  00003a78          	.proc _MemorySetupPte
 3193  00003a78          	.global _MemorySetupPte
 3194  00003a78          	_MemorySetupPte:
 3195                      ;  Function 'MemorySetupPte'; 0 bytes of locals, 1 regs to save.
 3196  00003a78  afbefffc	sw	-4(r29),r30; push fp
 3197  00003a7c  001df020	add	r30,r0,r29; fp = sp
 3198  00003a80  afbffff8	sw	-8(r29),r31; push ret addr
 3199  00003a84  2fbd0010	subui	r29,r29,#16; alloc local storage
 3200  00003a88  afa20000	sw	0(r29),r2
 3201  00003a8c  23bdfff8	addi	r29,r29,#-8
 3202  00003a90  001d0820	add	r1,r0,r29
 3203  00003a94  3c020001	lhi	r2,((_debugstr)>>16)&0xffff
 3204  00003a98  244261cb	addui	r2,r2,(_debugstr)&0xffff
 3205  00003a9c  ac220000	sw	(r1),r2
 3206  00003aa0  2002006d	addi	r2,r0,#109
 3207  00003aa4  ac220004	sw	4(r1),r2
 3208  00003aa8  0c0009a8	jal	_dindex
 3209  00003aac  54000000	nop; delay slot nop
 3210  00003ab0  23bd0008	addi	r29,r29,#8
 3211  00003ab4  64220000	snei	r2,r1,#0
 3212  00003ab8  10400024	beqz	r2,L75_LF1
 3213  00003abc  54000000	nop; delay slot nop
 3214  00003ac0  23bdfff8	addi	r29,r29,#-8
 3215  00003ac4  001d0820	add	r1,r0,r29
 3216  00003ac8  3c020001	lhi	r2,((LC10_LF1)>>16)&0xffff
 3217  00003acc  244253cc	addui	r2,r2,(LC10_LF1)&0xffff
 3218  00003ad0  ac220000	sw	(r1),r2
 3219  00003ad4  0c00eaa4	jal	_printf
 3220  00003ad8  54000000	nop; delay slot nop
 3221  00003adc  23bd0008	addi	r29,r29,#8
 3222  00003ae0          	L75_LF1:
 3223  00003ae0  23bdfff8	addi	r29,r29,#-8
 3224  00003ae4  001d0820	add	r1,r0,r29
 3225  00003ae8  3c020001	lhi	r2,((_debugstr)>>16)&0xffff
 3226  00003aec  244261cb	addui	r2,r2,(_debugstr)&0xffff
 3227  00003af0  ac220000	sw	(r1),r2
 3228  00003af4  2002002b	addi	r2,r0,#43
 3229  00003af8  ac220004	sw	4(r1),r2
 3230  00003afc  0c000954	jal	_dindex
 3231  00003b00  54000000	nop; delay slot nop
 3232  00003b04  23bd0008	addi	r29,r29,#8
 3233  00003b08  64220000	snei	r2,r1,#0
 3234  00003b0c  10400024	beqz	r2,L76_LF1
 3235  00003b10  54000000	nop; delay slot nop
 3236  00003b14  23bdfff8	addi	r29,r29,#-8
 3237  00003b18  001d0820	add	r1,r0,r29
 3238  00003b1c  3c020001	lhi	r2,((LC10_LF1)>>16)&0xffff
 3239  00003b20  244253cc	addui	r2,r2,(LC10_LF1)&0xffff
 3240  00003b24  ac220000	sw	(r1),r2
 3241  00003b28  0c00ea50	jal	_printf
 3242  00003b2c  54000000	nop; delay slot nop
 3243  00003b30  23bd0008	addi	r29,r29,#8
 3244  00003b34          	L76_LF1:
 3245  00003b34  8fc10000	lw	r1,(r30)
 3246  00003b38  00011020	add	r2,r0,r1
 3247  00003b3c  5041000c	slli	r1,r2,#0xc
 3248  00003b40  34220001	ori	r2,r1,#1
 3249  00003b44  00020820	add	r1,r0,r2
 3250  00003b48  08000004	j	L74_LF1
 3251  00003b4c  54000000	nop; delay slot nop
 3252  00003b50          	L74_LF1:
 3253  00003b50  8fa20000	lw	r2,0(r29)
 3254  00003b54  8fdffff8	lw	r31,-8(r30)
 3255  00003b58  001ee820	add	r29,r0,r30
 3256  00003b5c  8fdefffc	lw	r30,-4(r30)
 3257  00003b60  4be00000	jr	r31
 3258  00003b64  54000000	nop
 3259  00003b68          	.endproc _MemorySetupPte
 3260  00003b68          	.data
 3261  000153e2          	.align 2
 3262  000153e4          	LC11_LF1:
 3263  000153e4  46726565	.ascii "Freed page 0x%x, %d remaining.\n\000"
 3263  000153e8  64207061	
 3263  000153ec  67652030	
 3263  000153f0  7825782c	
 3263  000153f4  20256420	
 3263  000153f8  72656d61	
 3263  000153fc  696e696e	
 3263  00015400  672e0a00	
 3264  00015404          	.text
 3265  00003b68          	.align 2
 3266  00003b68          	.proc _MemoryFreePage
 3267  00003b68          	.global _MemoryFreePage
 3268  00003b68          	_MemoryFreePage:
 3269                      ;  Function 'MemoryFreePage'; 0 bytes of locals, 2 regs to save.
 3270  00003b68  afbefffc	sw	-4(r29),r30; push fp
 3271  00003b6c  001df020	add	r30,r0,r29; fp = sp
 3272  00003b70  afbffff8	sw	-8(r29),r31; push ret addr
 3273  00003b74  2fbd0010	subui	r29,r29,#16; alloc local storage
 3274  00003b78  afa20000	sw	0(r29),r2
 3275  00003b7c  afa30004	sw	4(r29),r3
 3276  00003b80  23bdfff8	addi	r29,r29,#-8
 3277  00003b84  001d0820	add	r1,r0,r29
 3278  00003b88  8fc20000	lw	r2,(r30)
 3279  00003b8c  ac220000	sw	(r1),r2
 3280  00003b90  20020001	addi	r2,r0,#1
 3281  00003b94  ac220004	sw	4(r1),r2
 3282  00003b98  0ffff1c0	jal	_MemorySetFreemap
 3283  00003b9c  54000000	nop; delay slot nop
 3284  00003ba0  23bd0008	addi	r29,r29,#8
 3285  00003ba4  3c010001	lhi	r1,((_nfreepages_LF1)>>16)&0xffff
 3286  00003ba8  24215448	addui	r1,r1,(_nfreepages_LF1)&0xffff
 3287  00003bac  3c020001	lhi	r2,((_nfreepages_LF1)>>16)&0xffff
 3288  00003bb0  24425448	addui	r2,r2,(_nfreepages_LF1)&0xffff
 3289  00003bb4  8c430000	lw	r3,(r2)
 3290  00003bb8  20620001	addi	r2,r3,#1
 3291  00003bbc  ac220000	sw	(r1),r2
 3292  00003bc0  23bdfff8	addi	r29,r29,#-8
 3293  00003bc4  001d0820	add	r1,r0,r29
 3294  00003bc8  3c020001	lhi	r2,((_debugstr)>>16)&0xffff
 3295  00003bcc  244261cb	addui	r2,r2,(_debugstr)&0xffff
 3296  00003bd0  ac220000	sw	(r1),r2
 3297  00003bd4  2002006d	addi	r2,r0,#109
 3298  00003bd8  ac220004	sw	4(r1),r2
 3299  00003bdc  0c000874	jal	_dindex
 3300  00003be0  54000000	nop; delay slot nop
 3301  00003be4  23bd0008	addi	r29,r29,#8
 3302  00003be8  64220000	snei	r2,r1,#0
 3303  00003bec  1040003c	beqz	r2,L78_LF1
 3304  00003bf0  54000000	nop; delay slot nop
 3305  00003bf4  23bdfff0	addi	r29,r29,#-16
 3306  00003bf8  001d0820	add	r1,r0,r29
 3307  00003bfc  3c020001	lhi	r2,((LC11_LF1)>>16)&0xffff
 3308  00003c00  244253e4	addui	r2,r2,(LC11_LF1)&0xffff
 3309  00003c04  ac220000	sw	(r1),r2
 3310  00003c08  8fc20000	lw	r2,(r30)
 3311  00003c0c  ac220004	sw	4(r1),r2
 3312  00003c10  3c020001	lhi	r2,((_nfreepages_LF1)>>16)&0xffff
 3313  00003c14  24425448	addui	r2,r2,(_nfreepages_LF1)&0xffff
 3314  00003c18  8c430000	lw	r3,(r2)
 3315  00003c1c  ac230008	sw	8(r1),r3
 3316  00003c20  0c00e958	jal	_printf
 3317  00003c24  54000000	nop; delay slot nop
 3318  00003c28  23bd0010	addi	r29,r29,#16
 3319  00003c2c          	L78_LF1:
 3320  00003c2c  23bdfff8	addi	r29,r29,#-8
 3321  00003c30  001d0820	add	r1,r0,r29
 3322  00003c34  3c020001	lhi	r2,((_debugstr)>>16)&0xffff
 3323  00003c38  244261cb	addui	r2,r2,(_debugstr)&0xffff
 3324  00003c3c  ac220000	sw	(r1),r2
 3325  00003c40  2002002b	addi	r2,r0,#43
 3326  00003c44  ac220004	sw	4(r1),r2
 3327  00003c48  0c000808	jal	_dindex
 3328  00003c4c  54000000	nop; delay slot nop
 3329  00003c50  23bd0008	addi	r29,r29,#8
 3330  00003c54  64220000	snei	r2,r1,#0
 3331  00003c58  1040003c	beqz	r2,L79_LF1
 3332  00003c5c  54000000	nop; delay slot nop
 3333  00003c60  23bdfff0	addi	r29,r29,#-16
 3334  00003c64  001d0820	add	r1,r0,r29
 3335  00003c68  3c020001	lhi	r2,((LC11_LF1)>>16)&0xffff
 3336  00003c6c  244253e4	addui	r2,r2,(LC11_LF1)&0xffff
 3337  00003c70  ac220000	sw	(r1),r2
 3338  00003c74  8fc20000	lw	r2,(r30)
 3339  00003c78  ac220004	sw	4(r1),r2
 3340  00003c7c  3c020001	lhi	r2,((_nfreepages_LF1)>>16)&0xffff
 3341  00003c80  24425448	addui	r2,r2,(_nfreepages_LF1)&0xffff
 3342  00003c84  8c430000	lw	r3,(r2)
 3343  00003c88  ac230008	sw	8(r1),r3
 3344  00003c8c  0c00e8ec	jal	_printf
 3345  00003c90  54000000	nop; delay slot nop
 3346  00003c94  23bd0010	addi	r29,r29,#16
 3347  00003c98          	L79_LF1:
 3348  00003c98          	L77_LF1:
 3349  00003c98  8fa20000	lw	r2,0(r29)
 3350  00003c9c  8fa30004	lw	r3,4(r29)
 3351  00003ca0  8fdffff8	lw	r31,-8(r30)
 3352  00003ca4  001ee820	add	r29,r0,r30
 3353  00003ca8  8fdefffc	lw	r30,-4(r30)
 3354  00003cac  4be00000	jr	r31
 3355  00003cb0  54000000	nop
 3356  00003cb4          	.endproc _MemoryFreePage
 3357  00003cb4          	.align 2
 3358  00003cb4          	.proc _MemoryFreePte
 3359  00003cb4          	.global _MemoryFreePte
 3360  00003cb4          	_MemoryFreePte:
 3361                      ;  Function 'MemoryFreePte'; 0 bytes of locals, 3 regs to save.
 3362  00003cb4  afbefffc	sw	-4(r29),r30; push fp
 3363  00003cb8  001df020	add	r30,r0,r29; fp = sp
 3364  00003cbc  afbffff8	sw	-8(r29),r31; push ret addr
 3365  00003cc0  2fbd0018	subui	r29,r29,#24; alloc local storage
 3366  00003cc4  afa20000	sw	0(r29),r2
 3367  00003cc8  afa30004	sw	4(r29),r3
 3368  00003ccc  afa40008	sw	8(r29),r4
 3369  00003cd0  23bdfff8	addi	r29,r29,#-8
 3370  00003cd4  001d0820	add	r1,r0,r29
 3371  00003cd8  8fc30000	lw	r3,(r30)
 3372  00003cdc  2004fff8	addi	r4,r0,#-8
 3373  00003ce0  00641024	and	r2,r3,r4
 3374  00003ce4  5843000c	srli	r3,r2,#0xc
 3375  00003ce8  ac230000	sw	(r1),r3
 3376  00003cec  0ffffe78	jal	_MemoryFreePage
 3377  00003cf0  54000000	nop; delay slot nop
 3378  00003cf4  23bd0008	addi	r29,r29,#8
 3379  00003cf8          	L80_LF1:
 3380  00003cf8  8fa20000	lw	r2,0(r29)
 3381  00003cfc  8fa30004	lw	r3,4(r29)
 3382  00003d00  8fa40008	lw	r4,8(r29)
 3383  00003d04  8fdffff8	lw	r31,-8(r30)
 3384  00003d08  001ee820	add	r29,r0,r30
 3385  00003d0c  8fdefffc	lw	r30,-4(r30)
 3386  00003d10  4be00000	jr	r31
 3387  00003d14  54000000	nop
 3388  00003d18          	.endproc _MemoryFreePte
 3389  00003d18          	.align 2
 3390  00003d18          	.proc _malloc
 3391  00003d18          	.global _malloc
 3392  00003d18          	_malloc:
 3393                      ;  Function 'malloc'; 0 bytes of locals, 0 regs to save.
 3394  00003d18  afbefffc	sw	-4(r29),r30; push fp
 3395  00003d1c  001df020	add	r30,r0,r29; fp = sp
 3396  00003d20  afbffff8	sw	-8(r29),r31; push ret addr
 3397  00003d24  2fbd0008	subui	r29,r29,#8; alloc local storage
 3398  00003d28  20010000	addi	r1,r0,#0
 3399  00003d2c  08000004	j	L81_LF1
 3400  00003d30  54000000	nop; delay slot nop
 3401  00003d34          	L81_LF1:
 3402  00003d34  8fdffff8	lw	r31,-8(r30)
 3403  00003d38  001ee820	add	r29,r0,r30
 3404  00003d3c  8fdefffc	lw	r30,-4(r30)
 3405  00003d40  4be00000	jr	r31
 3406  00003d44  54000000	nop
 3407  00003d48          	.endproc _malloc
 3408  00003d48          	.align 2
 3409  00003d48          	.proc _mfree
 3410  00003d48          	.global _mfree
 3411  00003d48          	_mfree:
 3412                      ;  Function 'mfree'; 0 bytes of locals, 0 regs to save.
 3413  00003d48  afbefffc	sw	-4(r29),r30; push fp
 3414  00003d4c  001df020	add	r30,r0,r29; fp = sp
 3415  00003d50  afbffff8	sw	-8(r29),r31; push ret addr
 3416  00003d54  2fbd0008	subui	r29,r29,#8; alloc local storage
 3417  00003d58  2001ffff	addi	r1,r0,#-1
 3418  00003d5c  08000004	j	L82_LF1
 3419  00003d60  54000000	nop; delay slot nop
 3420  00003d64          	L82_LF1:
 3421  00003d64  8fdffff8	lw	r31,-8(r30)
 3422  00003d68  001ee820	add	r29,r0,r30
 3423  00003d6c  8fdefffc	lw	r30,-4(r30)
 3424  00003d70  4be00000	jr	r31
 3425  00003d74  54000000	nop
 3426  00003d78          	.endproc _mfree
 3427  00003d78          	.data
 3428  00015404          	.align 2
 3429  00015404          	_freemap_LF1:
 3430  00015404          	.space 64
 3431  00015444          	.align 2
 3432  00015444          	_pagestart_LF1:
 3433  00015444          	.space 4
 3434  00015448          	.align 2
 3435  00015448          	_nfreepages_LF1:
 3436  00015448          	.space 4
 3437  0001544c          	.align 2
 3438  0001544c          	_freemapmax_LF1:
 3439  0001544c          	.space 4
 3440  00015450          	.text
 3441  00003d78          	.align 2
 3442  00003d78          	.proc _invert_LF1
 3443  00003d78          	_invert_LF1:
 3444                      ;  Function 'invert'; 0 bytes of locals, 3 regs to save.
 3445  00003d78  afbefffc	sw	-4(r29),r30; push fp
 3446  00003d7c  001df020	add	r30,r0,r29; fp = sp
 3447  00003d80  afbffff8	sw	-8(r29),r31; push ret addr
 3448  00003d84  2fbd0018	subui	r29,r29,#24; alloc local storage
 3449  00003d88  afa20000	sw	0(r29),r2
 3450  00003d8c  afa30004	sw	4(r29),r3
 3451  00003d90  afa40008	sw	8(r29),r4
 3452  00003d94  8fc20000	lw	r2,(r30)
 3453  00003d98  3c010001	lhi	r1,((_negativeone_LF1)>>16)&0xffff
 3454  00003d9c  24215258	addui	r1,r1,(_negativeone_LF1)&0xffff
 3455  00003da0  8c240000	lw	r4,(r1)
 3456  00003da4  00441826	xor	r3,r2,r4
 3457  00003da8  00030820	add	r1,r0,r3
 3458  00003dac  08000004	j	L12_LF1
 3459  00003db0  54000000	nop; delay slot nop
 3460  00003db4          	L12_LF1:
 3461  00003db4  8fa20000	lw	r2,0(r29)
 3462  00003db8  8fa30004	lw	r3,4(r29)
 3463  00003dbc  8fa40008	lw	r4,8(r29)
 3464  00003dc0  8fdffff8	lw	r31,-8(r30)
 3465  00003dc4  001ee820	add	r29,r0,r30
 3466  00003dc8  8fdefffc	lw	r30,-4(r30)
 3467  00003dcc  4be00000	jr	r31
 3468  00003dd0  54000000	nop
 3469  00003dd4          	.endproc _invert_LF1
 3470                      ; Compiled by GCC
 3472  00003dd4          	.align 2
 3473  00003dd4          	.proc _isspace
 3474  00003dd4          	.global _isspace
 3475  00003dd4          	_isspace:
 3476                      ;  Function 'isspace'; 0 bytes of locals, 3 regs to save.
 3477  00003dd4  afbefffc	sw	-4(r29),r30; push fp
 3478  00003dd8  001df020	add	r30,r0,r29; fp = sp
 3479  00003ddc  afbffff8	sw	-8(r29),r31; push ret addr
 3480  00003de0  2fbd0018	subui	r29,r29,#24; alloc local storage
 3481  00003de4  afa20000	sw	0(r29),r2
 3482  00003de8  afa30004	sw	4(r29),r3
 3483  00003dec  afa40008	sw	8(r29),r4
 3484  00003df0  83c20003	lb	r2,3(r30)
 3485  00003df4  20010000	addi	r1,r0,#0
 3486  00003df8  304300ff	andi	r3,r2,#0x00ff
 3487  00003dfc  60640020	seqi	r4,r3,#32
 3488  00003e00  1480002c	bnez	r4,L3_LF2
 3489  00003e04  54000000	nop; delay slot nop
 3490  00003e08  304300ff	andi	r3,r2,#0x00ff
 3491  00003e0c  60640009	seqi	r4,r3,#9
 3492  00003e10  1480001c	bnez	r4,L3_LF2
 3493  00003e14  54000000	nop; delay slot nop
 3494  00003e18  304300ff	andi	r3,r2,#0x00ff
 3495  00003e1c  6064000a	seqi	r4,r3,#10
 3496  00003e20  1480000c	bnez	r4,L3_LF2
 3497  00003e24  54000000	nop; delay slot nop
 3498  00003e28  08000008	j	L2_LF2
 3499  00003e2c  54000000	nop; delay slot nop
 3500  00003e30          	L3_LF2:
 3501  00003e30  20010001	addi	r1,r0,#1
 3502  00003e34          	L2_LF2:
 3503  00003e34  08000004	j	L1_LF2
 3504  00003e38  54000000	nop; delay slot nop
 3505  00003e3c          	L1_LF2:
 3506  00003e3c  8fa20000	lw	r2,0(r29)
 3507  00003e40  8fa30004	lw	r3,4(r29)
 3508  00003e44  8fa40008	lw	r4,8(r29)
 3509  00003e48  8fdffff8	lw	r31,-8(r30)
 3510  00003e4c  001ee820	add	r29,r0,r30
 3511  00003e50  8fdefffc	lw	r30,-4(r30)
 3512  00003e54  4be00000	jr	r31
 3513  00003e58  54000000	nop
 3514  00003e5c          	.endproc _isspace
 3515  00003e5c          	.align 2
 3516  00003e5c          	.proc _isxdigit
 3517  00003e5c          	.global _isxdigit
 3518  00003e5c          	_isxdigit:
 3519                      ;  Function 'isxdigit'; 0 bytes of locals, 3 regs to save.
 3520  00003e5c  afbefffc	sw	-4(r29),r30; push fp
 3521  00003e60  001df020	add	r30,r0,r29; fp = sp
 3522  00003e64  afbffff8	sw	-8(r29),r31; push ret addr
 3523  00003e68  2fbd0018	subui	r29,r29,#24; alloc local storage
 3524  00003e6c  afa20000	sw	0(r29),r2
 3525  00003e70  afa30004	sw	4(r29),r3
 3526  00003e74  afa40008	sw	8(r29),r4
 3527  00003e78  83c20003	lb	r2,3(r30)
 3528  00003e7c  20010000	addi	r1,r0,#0
 3529  00003e80  304300ff	andi	r3,r2,#0x00ff
 3530  00003e84  6c64002f	sgtui	r4,r3,#47
 3531  00003e88  1080001c	beqz	r4,L7_LF2
 3532  00003e8c  54000000	nop; delay slot nop
 3533  00003e90  304300ff	andi	r3,r2,#0x00ff
 3534  00003e94  70640039	sleui	r4,r3,#57
 3535  00003e98  1480005c	bnez	r4,L6_LF2
 3536  00003e9c  54000000	nop; delay slot nop
 3537  00003ea0  08000004	j	L7_LF2
 3538  00003ea4  54000000	nop; delay slot nop
 3539  00003ea8          	L7_LF2:
 3540  00003ea8  304300ff	andi	r3,r2,#0x00ff
 3541  00003eac  6c640060	sgtui	r4,r3,#96
 3542  00003eb0  1080001c	beqz	r4,L8_LF2
 3543  00003eb4  54000000	nop; delay slot nop
 3544  00003eb8  304300ff	andi	r3,r2,#0x00ff
 3545  00003ebc  70640066	sleui	r4,r3,#102
 3546  00003ec0  14800034	bnez	r4,L6_LF2
 3547  00003ec4  54000000	nop; delay slot nop
 3548  00003ec8  08000004	j	L8_LF2
 3549  00003ecc  54000000	nop; delay slot nop
 3550  00003ed0          	L8_LF2:
 3551  00003ed0  304300ff	andi	r3,r2,#0x00ff
 3552  00003ed4  6c640040	sgtui	r4,r3,#64
 3553  00003ed8  10800020	beqz	r4,L5_LF2
 3554  00003edc  54000000	nop; delay slot nop
 3555  00003ee0  304300ff	andi	r3,r2,#0x00ff
 3556  00003ee4  70640041	sleui	r4,r3,#65
 3557  00003ee8  1480000c	bnez	r4,L6_LF2
 3558  00003eec  54000000	nop; delay slot nop
 3559  00003ef0  08000008	j	L5_LF2
 3560  00003ef4  54000000	nop; delay slot nop
 3561  00003ef8          	L6_LF2:
 3562  00003ef8  20010001	addi	r1,r0,#1
 3563  00003efc          	L5_LF2:
 3564  00003efc  08000004	j	L4_LF2
 3565  00003f00  54000000	nop; delay slot nop
 3566  00003f04          	L4_LF2:
 3567  00003f04  8fa20000	lw	r2,0(r29)
 3568  00003f08  8fa30004	lw	r3,4(r29)
 3569  00003f0c  8fa40008	lw	r4,8(r29)
 3570  00003f10  8fdffff8	lw	r31,-8(r30)
 3571  00003f14  001ee820	add	r29,r0,r30
 3572  00003f18  8fdefffc	lw	r30,-4(r30)
 3573  00003f1c  4be00000	jr	r31
 3574  00003f20  54000000	nop
 3575  00003f24          	.endproc _isxdigit
 3576  00003f24          	.align 2
 3577  00003f24          	.proc _dstrcpy
 3578  00003f24          	.global _dstrcpy
 3579  00003f24          	_dstrcpy:
 3580                      ;  Function 'dstrcpy'; 8 bytes of locals, 2 regs to save.
 3581  00003f24  afbefffc	sw	-4(r29),r30; push fp
 3582  00003f28  001df020	add	r30,r0,r29; fp = sp
 3583  00003f2c  afbffff8	sw	-8(r29),r31; push ret addr
 3584  00003f30  2fbd0018	subui	r29,r29,#24; alloc local storage
 3585  00003f34  afa20000	sw	0(r29),r2
 3586  00003f38  afa30004	sw	4(r29),r3
 3587  00003f3c  8fc10000	lw	r1,(r30)
 3588  00003f40  afc1fff4	sw	-12(r30),r1
 3589  00003f44          	L10_LF2:
 3590  00003f44  8fc10000	lw	r1,(r30)
 3591  00003f48  20220001	addi	r2,r1,#1
 3592  00003f4c  afc20000	sw	(r30),r2
 3593  00003f50  8fc20004	lw	r2,4(r30)
 3594  00003f54  20430001	addi	r3,r2,#1
 3595  00003f58  afc30004	sw	4(r30),r3
 3596  00003f5c  80420000	lb	r2,(r2)
 3597  00003f60  a0220000	sb	(r1),r2
 3598  00003f64  a3c2fff3	sb	-13(r30),r2
 3599  00003f68          	L12_LF2:
 3600  00003f68  93c1fff3	lbu	r1,-13(r30)
 3601  00003f6c  64220000	snei	r2,r1,#0
 3602  00003f70  1440000c	bnez	r2,L13_LF2
 3603  00003f74  54000000	nop; delay slot nop
 3604  00003f78  0800000c	j	L11_LF2
 3605  00003f7c  54000000	nop; delay slot nop
 3606  00003f80          	L13_LF2:
 3607  00003f80  0bffffc0	j	L10_LF2
 3608  00003f84  54000000	nop; delay slot nop
 3609  00003f88          	L11_LF2:
 3610  00003f88  8fc1fff4	lw	r1,-12(r30)
 3611  00003f8c  08000004	j	L9_LF2
 3612  00003f90  54000000	nop; delay slot nop
 3613  00003f94          	L9_LF2:
 3614  00003f94  8fa20000	lw	r2,0(r29)
 3615  00003f98  8fa30004	lw	r3,4(r29)
 3616  00003f9c  8fdffff8	lw	r31,-8(r30)
 3617  00003fa0  001ee820	add	r29,r0,r30
 3618  00003fa4  8fdefffc	lw	r30,-4(r30)
 3619  00003fa8  4be00000	jr	r31
 3620  00003fac  54000000	nop
 3621  00003fb0          	.endproc _dstrcpy
 3622  00003fb0          	.align 2
 3623  00003fb0          	.proc _dstrncpy
 3624  00003fb0          	.global _dstrncpy
 3625  00003fb0          	_dstrncpy:
 3626                      ;  Function 'dstrncpy'; 8 bytes of locals, 2 regs to save.
 3627  00003fb0  afbefffc	sw	-4(r29),r30; push fp
 3628  00003fb4  001df020	add	r30,r0,r29; fp = sp
 3629  00003fb8  afbffff8	sw	-8(r29),r31; push ret addr
 3630  00003fbc  2fbd0018	subui	r29,r29,#24; alloc local storage
 3631  00003fc0  afa20000	sw	0(r29),r2
 3632  00003fc4  afa30004	sw	4(r29),r3
 3633  00003fc8  8fc10000	lw	r1,(r30)
 3634  00003fcc  afc1fff4	sw	-12(r30),r1
 3635  00003fd0          	L15_LF2:
 3636  00003fd0  8fc10008	lw	r1,8(r30)
 3637  00003fd4  2022ffff	addi	r2,r1,#-1
 3638  00003fd8  afc20008	sw	8(r30),r2
 3639  00003fdc  70210000	slei	r1,r1,#0
 3640  00003fe0  1020000c	beqz	r1,L18_LF2
 3641  00003fe4  54000000	nop; delay slot nop
 3642  00003fe8  08000048	j	L16_LF2
 3643  00003fec  54000000	nop; delay slot nop
 3644  00003ff0          	L18_LF2:
 3645  00003ff0  8fc10000	lw	r1,(r30)
 3646  00003ff4  20220001	addi	r2,r1,#1
 3647  00003ff8  afc20000	sw	(r30),r2
 3648  00003ffc  8fc20004	lw	r2,4(r30)
 3649  00004000  20430001	addi	r3,r2,#1
 3650  00004004  afc30004	sw	4(r30),r3
 3651  00004008  80420000	lb	r2,(r2)
 3652  0000400c  a0220000	sb	(r1),r2
 3653  00004010  a3c2fff3	sb	-13(r30),r2
 3654  00004014          	L17_LF2:
 3655  00004014  93c1fff3	lbu	r1,-13(r30)
 3656  00004018  64220000	snei	r2,r1,#0
 3657  0000401c  1440000c	bnez	r2,L19_LF2
 3658  00004020  54000000	nop; delay slot nop
 3659  00004024  0800000c	j	L16_LF2
 3660  00004028  54000000	nop; delay slot nop
 3661  0000402c          	L19_LF2:
 3662  0000402c  0bffffa0	j	L15_LF2
 3663  00004030  54000000	nop; delay slot nop
 3664  00004034          	L16_LF2:
 3665  00004034  8fc1fff4	lw	r1,-12(r30)
 3666  00004038  08000004	j	L14_LF2
 3667  0000403c  54000000	nop; delay slot nop
 3668  00004040          	L14_LF2:
 3669  00004040  8fa20000	lw	r2,0(r29)
 3670  00004044  8fa30004	lw	r3,4(r29)
 3671  00004048  8fdffff8	lw	r31,-8(r30)
 3672  0000404c  001ee820	add	r29,r0,r30
 3673  00004050  8fdefffc	lw	r30,-4(r30)
 3674  00004054  4be00000	jr	r31
 3675  00004058  54000000	nop
 3676  0000405c          	.endproc _dstrncpy
 3677  0000405c          	.align 2
 3678  0000405c          	.proc _dstrcat
 3679  0000405c          	.global _dstrcat
 3680  0000405c          	_dstrcat:
 3681                      ;  Function 'dstrcat'; 8 bytes of locals, 1 regs to save.
 3682  0000405c  afbefffc	sw	-4(r29),r30; push fp
 3683  00004060  001df020	add	r30,r0,r29; fp = sp
 3684  00004064  afbffff8	sw	-8(r29),r31; push ret addr
 3685  00004068  2fbd0018	subui	r29,r29,#24; alloc local storage
 3686  0000406c  afa20000	sw	0(r29),r2
 3687  00004070  8fc10000	lw	r1,(r30)
 3688  00004074  afc1fff4	sw	-12(r30),r1
 3689  00004078          	L21_LF2:
 3690  00004078  8fc10000	lw	r1,(r30)
 3691  0000407c  90220000	lbu	r2,(r1)
 3692  00004080  64410000	snei	r1,r2,#0
 3693  00004084  1420000c	bnez	r1,L23_LF2
 3694  00004088  54000000	nop; delay slot nop
 3695  0000408c  0800001c	j	L22_LF2
 3696  00004090  54000000	nop; delay slot nop
 3697  00004094          	L23_LF2:
 3698  00004094  8fc20000	lw	r2,(r30)
 3699  00004098  20410001	addi	r1,r2,#1
 3700  0000409c  00011020	add	r2,r0,r1
 3701  000040a0  afc20000	sw	(r30),r2
 3702  000040a4  0bffffd0	j	L21_LF2
 3703  000040a8  54000000	nop; delay slot nop
 3704  000040ac          	L22_LF2:
 3705  000040ac  23bdfff8	addi	r29,r29,#-8
 3706  000040b0  001d0820	add	r1,r0,r29
 3707  000040b4  8fc20000	lw	r2,(r30)
 3708  000040b8  ac220000	sw	(r1),r2
 3709  000040bc  8fc20004	lw	r2,4(r30)
 3710  000040c0  ac220004	sw	4(r1),r2
 3711  000040c4  0ffffe5c	jal	_dstrcpy
 3712  000040c8  54000000	nop; delay slot nop
 3713  000040cc  23bd0008	addi	r29,r29,#8
 3714  000040d0  8fc1fff4	lw	r1,-12(r30)
 3715  000040d4  08000004	j	L20_LF2
 3716  000040d8  54000000	nop; delay slot nop
 3717  000040dc          	L20_LF2:
 3718  000040dc  8fa20000	lw	r2,0(r29)
 3719  000040e0  8fdffff8	lw	r31,-8(r30)
 3720  000040e4  001ee820	add	r29,r0,r30
 3721  000040e8  8fdefffc	lw	r30,-4(r30)
 3722  000040ec  4be00000	jr	r31
 3723  000040f0  54000000	nop
 3724  000040f4          	.endproc _dstrcat
 3725  000040f4          	.align 2
 3726  000040f4          	.proc _dstrncmp
 3727  000040f4          	.global _dstrncmp
 3728  000040f4          	_dstrncmp:
 3729                      ;  Function 'dstrncmp'; 8 bytes of locals, 2 regs to save.
 3730  000040f4  afbefffc	sw	-4(r29),r30; push fp
 3731  000040f8  001df020	add	r30,r0,r29; fp = sp
 3732  000040fc  afbffff8	sw	-8(r29),r31; push ret addr
 3733  00004100  2fbd0018	subui	r29,r29,#24; alloc local storage
 3734  00004104  afa20000	sw	0(r29),r2
 3735  00004108  afa30004	sw	4(r29),r3
 3736  0000410c  54000000	nop
 3737  00004110  20010000	addi	r1,r0,#0
 3738  00004114  afc1fff4	sw	-12(r30),r1
 3739  00004118          	L25_LF2:
 3740  00004118  8fc1fff4	lw	r1,-12(r30)
 3741  0000411c  8fc20008	lw	r2,8(r30)
 3742  00004120  0022082a	slt	r1,r1,r2
 3743  00004124  1420000c	bnez	r1,L28_LF2
 3744  00004128  54000000	nop; delay slot nop
 3745  0000412c  08000088	j	L26_LF2
 3746  00004130  54000000	nop; delay slot nop
 3747  00004134          	L28_LF2:
 3748  00004134  8fc10004	lw	r1,4(r30)
 3749  00004138  90220000	lbu	r2,(r1)
 3750  0000413c  64410000	snei	r1,r2,#0
 3751  00004140  14200018	bnez	r1,L29_LF2
 3752  00004144  54000000	nop; delay slot nop
 3753  00004148  20010000	addi	r1,r0,#0
 3754  0000414c  080000d8	j	L24_LF2
 3755  00004150  54000000	nop; delay slot nop
 3756  00004154  08000028	j	L30_LF2
 3757  00004158  54000000	nop; delay slot nop
 3758  0000415c          	L29_LF2:
 3759  0000415c  8fc10000	lw	r1,(r30)
 3760  00004160  8fc20004	lw	r2,4(r30)
 3761  00004164  90210000	lbu	r1,(r1)
 3762  00004168  90420000	lbu	r2,(r2)
 3763  0000416c  00220829	sne	r1,r1,r2
 3764  00004170  1020000c	beqz	r1,L30_LF2
 3765  00004174  54000000	nop; delay slot nop
 3766  00004178  0800003c	j	L26_LF2
 3767  0000417c  54000000	nop; delay slot nop
 3768  00004180          	L31_LF2:
 3769  00004180          	L30_LF2:
 3770  00004180  8fc20000	lw	r2,(r30)
 3771  00004184  20410001	addi	r1,r2,#1
 3772  00004188  00011020	add	r2,r0,r1
 3773  0000418c  afc20000	sw	(r30),r2
 3774  00004190  8fc20004	lw	r2,4(r30)
 3775  00004194  20410001	addi	r1,r2,#1
 3776  00004198  00011020	add	r2,r0,r1
 3777  0000419c  afc20004	sw	4(r30),r2
 3778  000041a0          	L27_LF2:
 3779  000041a0  8fc2fff4	lw	r2,-12(r30)
 3780  000041a4  20410001	addi	r1,r2,#1
 3781  000041a8  00011020	add	r2,r0,r1
 3782  000041ac  afc2fff4	sw	-12(r30),r2
 3783  000041b0  0bffff64	j	L25_LF2
 3784  000041b4  54000000	nop; delay slot nop
 3785  000041b8          	L26_LF2:
 3786  000041b8  8fc1fff4	lw	r1,-12(r30)
 3787  000041bc  8fc20008	lw	r2,8(r30)
 3788  000041c0  00220828	seq	r1,r1,r2
 3789  000041c4  10200018	beqz	r1,L32_LF2
 3790  000041c8  54000000	nop; delay slot nop
 3791  000041cc  20010000	addi	r1,r0,#0
 3792  000041d0  08000054	j	L24_LF2
 3793  000041d4  54000000	nop; delay slot nop
 3794  000041d8  0800004c	j	L33_LF2
 3795  000041dc  54000000	nop; delay slot nop
 3796  000041e0          	L32_LF2:
 3797  000041e0  8fc20000	lw	r2,(r30)
 3798  000041e4  90410000	lbu	r1,(r2)
 3799  000041e8  8fc20004	lw	r2,4(r30)
 3800  000041ec  90430000	lbu	r3,(r2)
 3801  000041f0  00230822	sub	r1,r1,r3
 3802  000041f4  74220000	sgei	r2,r1,#0
 3803  000041f8  10400020	beqz	r2,L34_LF2
 3804  000041fc  54000000	nop; delay slot nop
 3805  00004200  8fc10000	lw	r1,(r30)
 3806  00004204  8fc20004	lw	r2,4(r30)
 3807  00004208  90210000	lbu	r1,(r1)
 3808  0000420c  90420000	lbu	r2,(r2)
 3809  00004210  00220829	sne	r1,r1,r2
 3810  00004214  08000008	j	L35_LF2
 3811  00004218  54000000	nop; delay slot nop
 3812  0000421c          	L34_LF2:
 3813  0000421c  2001ffff	addi	r1,r0,#-1
 3814  00004220          	L35_LF2:
 3815  00004220  08000004	j	L24_LF2
 3816  00004224  54000000	nop; delay slot nop
 3817  00004228          	L33_LF2:
 3818  00004228          	L24_LF2:
 3819  00004228  8fa20000	lw	r2,0(r29)
 3820  0000422c  8fa30004	lw	r3,4(r29)
 3821  00004230  8fdffff8	lw	r31,-8(r30)
 3822  00004234  001ee820	add	r29,r0,r30
 3823  00004238  8fdefffc	lw	r30,-4(r30)
 3824  0000423c  4be00000	jr	r31
 3825  00004240  54000000	nop
 3826  00004244          	.endproc _dstrncmp
 3827  00004244          	.align 2
 3828  00004244          	.proc _dstrlen
 3829  00004244          	.global _dstrlen
 3830  00004244          	_dstrlen:
 3831                      ;  Function 'dstrlen'; 8 bytes of locals, 1 regs to save.
 3832  00004244  afbefffc	sw	-4(r29),r30; push fp
 3833  00004248  001df020	add	r30,r0,r29; fp = sp
 3834  0000424c  afbffff8	sw	-8(r29),r31; push ret addr
 3835  00004250  2fbd0018	subui	r29,r29,#24; alloc local storage
 3836  00004254  afa20000	sw	0(r29),r2
 3837  00004258  20010000	addi	r1,r0,#0
 3838  0000425c  afc1fff4	sw	-12(r30),r1
 3839  00004260          	L37_LF2:
 3840  00004260  8fc10000	lw	r1,(r30)
 3841  00004264  20220001	addi	r2,r1,#1
 3842  00004268  afc20000	sw	(r30),r2
 3843  0000426c  90210000	lbu	r1,(r1)
 3844  00004270  64220000	snei	r2,r1,#0
 3845  00004274  1440000c	bnez	r2,L39_LF2
 3846  00004278  54000000	nop; delay slot nop
 3847  0000427c  0800001c	j	L38_LF2
 3848  00004280  54000000	nop; delay slot nop
 3849  00004284          	L39_LF2:
 3850  00004284  8fc2fff4	lw	r2,-12(r30)
 3851  00004288  20410001	addi	r1,r2,#1
 3852  0000428c  00011020	add	r2,r0,r1
 3853  00004290  afc2fff4	sw	-12(r30),r2
 3854  00004294  0bffffc8	j	L37_LF2
 3855  00004298  54000000	nop; delay slot nop
 3856  0000429c          	L38_LF2:
 3857  0000429c  8fc1fff4	lw	r1,-12(r30)
 3858  000042a0  08000004	j	L36_LF2
 3859  000042a4  54000000	nop; delay slot nop
 3860  000042a8          	L36_LF2:
 3861  000042a8  8fa20000	lw	r2,0(r29)
 3862  000042ac  8fdffff8	lw	r31,-8(r30)
 3863  000042b0  001ee820	add	r29,r0,r30
 3864  000042b4  8fdefffc	lw	r30,-4(r30)
 3865  000042b8  4be00000	jr	r31
 3866  000042bc  54000000	nop
 3867  000042c0          	.endproc _dstrlen
 3868  000042c0          	.align 2
 3869  000042c0          	.proc _dstrstr
 3870  000042c0          	.global _dstrstr
 3871  000042c0          	_dstrstr:
 3872                      ;  Function 'dstrstr'; 8 bytes of locals, 1 regs to save.
 3873  000042c0  afbefffc	sw	-4(r29),r30; push fp
 3874  000042c4  001df020	add	r30,r0,r29; fp = sp
 3875  000042c8  afbffff8	sw	-8(r29),r31; push ret addr
 3876  000042cc  2fbd0018	subui	r29,r29,#24; alloc local storage
 3877  000042d0  afa20000	sw	0(r29),r2
 3878  000042d4  23bdfff8	addi	r29,r29,#-8
 3879  000042d8  001d0820	add	r1,r0,r29
 3880  000042dc  8fc20004	lw	r2,4(r30)
 3881  000042e0  ac220000	sw	(r1),r2
 3882  000042e4  0fffff5c	jal	_dstrlen
 3883  000042e8  54000000	nop; delay slot nop
 3884  000042ec  23bd0008	addi	r29,r29,#8
 3885  000042f0  afc1fff4	sw	-12(r30),r1
 3886  000042f4          	L41_LF2:
 3887  000042f4  8fc10000	lw	r1,(r30)
 3888  000042f8  90220000	lbu	r2,(r1)
 3889  000042fc  64410000	snei	r1,r2,#0
 3890  00004300  1420000c	bnez	r1,L43_LF2
 3891  00004304  54000000	nop; delay slot nop
 3892  00004308  08000060	j	L42_LF2
 3893  0000430c  54000000	nop; delay slot nop
 3894  00004310          	L43_LF2:
 3895  00004310  23bdfff0	addi	r29,r29,#-16
 3896  00004314  001d0820	add	r1,r0,r29
 3897  00004318  8fc20000	lw	r2,(r30)
 3898  0000431c  ac220000	sw	(r1),r2
 3899  00004320  8fc20004	lw	r2,4(r30)
 3900  00004324  ac220004	sw	4(r1),r2
 3901  00004328  8fc2fff4	lw	r2,-12(r30)
 3902  0000432c  ac220008	sw	8(r1),r2
 3903  00004330  0ffffdc0	jal	_dstrncmp
 3904  00004334  54000000	nop; delay slot nop
 3905  00004338  23bd0010	addi	r29,r29,#16
 3906  0000433c  64220000	snei	r2,r1,#0
 3907  00004340  14400010	bnez	r2,L44_LF2
 3908  00004344  54000000	nop; delay slot nop
 3909  00004348  8fc10000	lw	r1,(r30)
 3910  0000434c  08000028	j	L40_LF2
 3911  00004350  54000000	nop; delay slot nop
 3912  00004354          	L44_LF2:
 3913  00004354  8fc20000	lw	r2,(r30)
 3914  00004358  20410001	addi	r1,r2,#1
 3915  0000435c  00011020	add	r2,r0,r1
 3916  00004360  afc20000	sw	(r30),r2
 3917  00004364  0bffff8c	j	L41_LF2
 3918  00004368  54000000	nop; delay slot nop
 3919  0000436c          	L42_LF2:
 3920  0000436c  20010000	addi	r1,r0,#0
 3921  00004370  08000004	j	L40_LF2
 3922  00004374  54000000	nop; delay slot nop
 3923  00004378          	L40_LF2:
 3924  00004378  8fa20000	lw	r2,0(r29)
 3925  0000437c  8fdffff8	lw	r31,-8(r30)
 3926  00004380  001ee820	add	r29,r0,r30
 3927  00004384  8fdefffc	lw	r30,-4(r30)
 3928  00004388  4be00000	jr	r31
 3929  0000438c  54000000	nop
 3930  00004390          	.endproc _dstrstr
 3931  00004390          	.align 2
 3932  00004390          	.proc _dmindex
 3933  00004390          	.global _dmindex
 3934  00004390          	_dmindex:
 3935                      ;  Function 'dmindex'; 8 bytes of locals, 1 regs to save.
 3936  00004390  afbefffc	sw	-4(r29),r30; push fp
 3937  00004394  001df020	add	r30,r0,r29; fp = sp
 3938  00004398  afbffff8	sw	-8(r29),r31; push ret addr
 3939  0000439c  2fbd0018	subui	r29,r29,#24; alloc local storage
 3940  000043a0  afa20000	sw	0(r29),r2
 3941  000043a4  54000000	nop
 3942  000043a8          	L46_LF2:
 3943  000043a8  8fc10000	lw	r1,(r30)
 3944  000043ac  90220000	lbu	r2,(r1)
 3945  000043b0  64410000	snei	r1,r2,#0
 3946  000043b4  1420000c	bnez	r1,L48_LF2
 3947  000043b8  54000000	nop; delay slot nop
 3948  000043bc  08000070	j	L47_LF2
 3949  000043c0  54000000	nop; delay slot nop
 3950  000043c4          	L48_LF2:
 3951  000043c4  8fc10004	lw	r1,4(r30)
 3952  000043c8  afc1fff4	sw	-12(r30),r1
 3953  000043cc          	L49_LF2:
 3954  000043cc  8fc1fff4	lw	r1,-12(r30)
 3955  000043d0  90220000	lbu	r2,(r1)
 3956  000043d4  64410000	snei	r1,r2,#0
 3957  000043d8  1420000c	bnez	r1,L52_LF2
 3958  000043dc  54000000	nop; delay slot nop
 3959  000043e0  08000044	j	L50_LF2
 3960  000043e4  54000000	nop; delay slot nop
 3961  000043e8          	L52_LF2:
 3962  000043e8  8fc10000	lw	r1,(r30)
 3963  000043ec  8fc2fff4	lw	r2,-12(r30)
 3964  000043f0  90210000	lbu	r1,(r1)
 3965  000043f4  90420000	lbu	r2,(r2)
 3966  000043f8  00220828	seq	r1,r1,r2
 3967  000043fc  10200010	beqz	r1,L51_LF2
 3968  00004400  54000000	nop; delay slot nop
 3969  00004404  8fc10000	lw	r1,(r30)
 3970  00004408  08000030	j	L45_LF2
 3971  0000440c  54000000	nop; delay slot nop
 3972  00004410          	L53_LF2:
 3973  00004410          	L51_LF2:
 3974  00004410  8fc2fff4	lw	r2,-12(r30)
 3975  00004414  20410001	addi	r1,r2,#1
 3976  00004418  00011020	add	r2,r0,r1
 3977  0000441c  afc2fff4	sw	-12(r30),r2
 3978  00004420  0bffffa8	j	L49_LF2
 3979  00004424  54000000	nop; delay slot nop
 3980  00004428          	L50_LF2:
 3981  00004428  0bffff7c	j	L46_LF2
 3982  0000442c  54000000	nop; delay slot nop
 3983  00004430          	L47_LF2:
 3984  00004430  20010000	addi	r1,r0,#0
 3985  00004434  08000004	j	L45_LF2
 3986  00004438  54000000	nop; delay slot nop
 3987  0000443c          	L45_LF2:
 3988  0000443c  8fa20000	lw	r2,0(r29)
 3989  00004440  8fdffff8	lw	r31,-8(r30)
 3990  00004444  001ee820	add	r29,r0,r30
 3991  00004448  8fdefffc	lw	r30,-4(r30)
 3992  0000444c  4be00000	jr	r31
 3993  00004450  54000000	nop
 3994  00004454          	.endproc _dmindex
 3995  00004454          	.align 2
 3996  00004454          	.proc _dindex
 3997  00004454          	.global _dindex
 3998  00004454          	_dindex:
 3999                      ;  Function 'dindex'; 0 bytes of locals, 1 regs to save.
 4000  00004454  afbefffc	sw	-4(r29),r30; push fp
 4001  00004458  001df020	add	r30,r0,r29; fp = sp
 4002  0000445c  afbffff8	sw	-8(r29),r31; push ret addr
 4003  00004460  2fbd0010	subui	r29,r29,#16; alloc local storage
 4004  00004464  afa20000	sw	0(r29),r2
 4005  00004468  54000000	nop
 4006  0000446c          	L55_LF2:
 4007  0000446c  8fc10000	lw	r1,(r30)
 4008  00004470  90220000	lbu	r2,(r1)
 4009  00004474  64410000	snei	r1,r2,#0
 4010  00004478  1420000c	bnez	r1,L57_LF2
 4011  0000447c  54000000	nop; delay slot nop
 4012  00004480  08000040	j	L56_LF2
 4013  00004484  54000000	nop; delay slot nop
 4014  00004488          	L57_LF2:
 4015  00004488  8fc10000	lw	r1,(r30)
 4016  0000448c  90220000	lbu	r2,(r1)
 4017  00004490  8fc10004	lw	r1,4(r30)
 4018  00004494  00411028	seq	r2,r2,r1
 4019  00004498  10400010	beqz	r2,L58_LF2
 4020  0000449c  54000000	nop; delay slot nop
 4021  000044a0  8fc10000	lw	r1,(r30)
 4022  000044a4  08000028	j	L54_LF2
 4023  000044a8  54000000	nop; delay slot nop
 4024  000044ac          	L58_LF2:
 4025  000044ac  8fc20000	lw	r2,(r30)
 4026  000044b0  20410001	addi	r1,r2,#1
 4027  000044b4  00011020	add	r2,r0,r1
 4028  000044b8  afc20000	sw	(r30),r2
 4029  000044bc  0bffffac	j	L55_LF2
 4030  000044c0  54000000	nop; delay slot nop
 4031  000044c4          	L56_LF2:
 4032  000044c4  20010000	addi	r1,r0,#0
 4033  000044c8  08000004	j	L54_LF2
 4034  000044cc  54000000	nop; delay slot nop
 4035  000044d0          	L54_LF2:
 4036  000044d0  8fa20000	lw	r2,0(r29)
 4037  000044d4  8fdffff8	lw	r31,-8(r30)
 4038  000044d8  001ee820	add	r29,r0,r30
 4039  000044dc  8fdefffc	lw	r30,-4(r30)
 4040  000044e0  4be00000	jr	r31
 4041  000044e4  54000000	nop
 4042  000044e8          	.endproc _dindex
 4043  000044e8          	.align 2
 4044  000044e8          	.proc _ditoa
 4045  000044e8          	.global _ditoa
 4046  000044e8          	_ditoa:
 4047                      ;  Function 'ditoa'; 8 bytes of locals, 2 regs to save.
 4048  000044e8  afbefffc	sw	-4(r29),r30; push fp
 4049  000044ec  001df020	add	r30,r0,r29; fp = sp
 4050  000044f0  afbffff8	sw	-8(r29),r31; push ret addr
 4051  000044f4  2fbd0018	subui	r29,r29,#24; alloc local storage
 4052  000044f8  afa20000	sw	0(r29),r2
 4053  000044fc  afa30004	sw	4(r29),r3
 4054  00004500  8fc10000	lw	r1,(r30)
 4055  00004504  68220000	slti	r2,r1,#0
 4056  00004508  1040002c	beqz	r2,L60_LF2
 4057  0000450c  54000000	nop; delay slot nop
 4058  00004510  8fc10004	lw	r1,4(r30)
 4059  00004514  20220001	addi	r2,r1,#1
 4060  00004518  afc20004	sw	4(r30),r2
 4061  0000451c  2002002d	addi	r2,r0,(#0x2d)&0xff
 4062  00004520  a0220000	sb	(r1),r2
 4063  00004524  8fc10000	lw	r1,(r30)
 4064  00004528  00011022	sub	r2,r0,r1
 4065  0000452c  afc20000	sw	(r30),r2
 4066  00004530  08000118	j	L61_LF2
 4067  00004534  54000000	nop; delay slot nop
 4068  00004538          	L60_LF2:
 4069  00004538  8fc10000	lw	r1,(r30)
 4070  0000453c  64220000	snei	r2,r1,#0
 4071  00004540  14400020	bnez	r2,L62_LF2
 4072  00004544  54000000	nop; delay slot nop
 4073  00004548  8fc10004	lw	r1,4(r30)
 4074  0000454c  20220001	addi	r2,r1,#1
 4075  00004550  afc20004	sw	4(r30),r2
 4076  00004554  20020030	addi	r2,r0,(#0x30)&0xff
 4077  00004558  a0220000	sb	(r1),r2
 4078  0000455c  080000ec	j	L61_LF2
 4079  00004560  54000000	nop; delay slot nop
 4080  00004564          	L62_LF2:
 4081  00004564  20010001	addi	r1,r0,#1
 4082  00004568  afc1fff4	sw	-12(r30),r1
 4083  0000456c          	L64_LF2:
 4084  0000456c  8fc1fff4	lw	r1,-12(r30)
 4085  00004570  8fc20000	lw	r2,(r30)
 4086  00004574  0022082c	sle	r1,r1,r2
 4087  00004578  1420000c	bnez	r1,L66_LF2
 4088  0000457c  54000000	nop; delay slot nop
 4089  00004580  08000024	j	L65_LF2
 4090  00004584  54000000	nop; delay slot nop
 4091  00004588          	L67_LF2:
 4092  00004588          	L66_LF2:
 4093  00004588  8fc1fff4	lw	r1,-12(r30)
 4094  0000458c  00011820	add	r3,r0,r1
 4095  00004590  50620002	slli	r2,r3,#0x2
 4096  00004594  00411020	add	r2,r2,r1
 4097  00004598  50410001	slli	r1,r2,#0x1
 4098  0000459c  afc1fff4	sw	-12(r30),r1
 4099  000045a0  0bffffc8	j	L64_LF2
 4100  000045a4  54000000	nop; delay slot nop
 4101  000045a8          	L65_LF2:
 4102  000045a8  54000000	nop
 4103  000045ac          	L68_LF2:
 4104  000045ac  8fc1fff4	lw	r1,-12(r30)
 4105  000045b0  2002000a	addi	r2,r0,#10
 4106  000045b4  00200035	movi2fp	f0,r1
 4107  000045b8  00400835	movi2fp	f1,r2
 4108  000045bc  0401000f	div	f0,f0,f1
 4109  000045c0  00000834	movfp2i	r1,f0
 4110  000045c4  afc1fff4	sw	-12(r30),r1
 4111  000045c8  8fc10004	lw	r1,4(r30)
 4112  000045cc  20220001	addi	r2,r1,#1
 4113  000045d0  afc20004	sw	4(r30),r2
 4114  000045d4  8fc20000	lw	r2,(r30)
 4115  000045d8  8fc3fff4	lw	r3,-12(r30)
 4116  000045dc  00400035	movi2fp	f0,r2
 4117  000045e0  00600835	movi2fp	f1,r3
 4118  000045e4  0401000f	div	f0,f0,f1
 4119  000045e8  00001034	movfp2i	r2,f0
 4120  000045ec  00021820	add	r3,r0,r2
 4121  000045f0  20620030	addi	r2,r3,#48
 4122  000045f4  a0220000	sb	(r1),r2
 4123  000045f8  8fc10000	lw	r1,(r30)
 4124  000045fc  8fc3fff4	lw	r3,-12(r30)
 4125  00004600  00200035	movi2fp	f0,r1
 4126  00004604  00600835	movi2fp	f1,r3
 4127  00004608  0401000f	div	f0,f0,f1
 4128  0000460c  00001034	movfp2i	r2,f0
 4129  00004610  8fc3fff4	lw	r3,-12(r30)
 4130  00004614  00400035	movi2fp	f0,r2
 4131  00004618  00600835	movi2fp	f1,r3
 4132  0000461c  0401000e	mult	f0,f0,f1
 4133  00004620  00001034	movfp2i	r2,f0
 4134  00004624  00220822	sub	r1,r1,r2
 4135  00004628  afc10000	sw	(r30),r1
 4136  0000462c          	L70_LF2:
 4137  0000462c  8fc1fff4	lw	r1,-12(r30)
 4138  00004630  6c220001	sgti	r2,r1,#1
 4139  00004634  1440000c	bnez	r2,L71_LF2
 4140  00004638  54000000	nop; delay slot nop
 4141  0000463c  0800000c	j	L61_LF2
 4142  00004640  54000000	nop; delay slot nop
 4143  00004644          	L71_LF2:
 4144  00004644  0bffff64	j	L68_LF2
 4145  00004648  54000000	nop; delay slot nop
 4146  0000464c          	L69_LF2:
 4147  0000464c          	L63_LF2:
 4148  0000464c          	L61_LF2:
 4149  0000464c  8fc10004	lw	r1,4(r30)
 4150  00004650  20020000	addi	r2,r0,(#0x0)&0xff
 4151  00004654  a0220000	sb	(r1),r2
 4152  00004658          	L59_LF2:
 4153  00004658  8fa20000	lw	r2,0(r29)
 4154  0000465c  8fa30004	lw	r3,4(r29)
 4155  00004660  8fdffff8	lw	r31,-8(r30)
 4156  00004664  001ee820	add	r29,r0,r30
 4157  00004668  8fdefffc	lw	r30,-4(r30)
 4158  0000466c  4be00000	jr	r31
 4159  00004670  54000000	nop
 4160  00004674          	.endproc _ditoa
 4161  00004674          	.align 2
 4162  00004674          	.proc _dstrtol
 4163  00004674          	.global _dstrtol
 4164  00004674          	_dstrtol:
 4165                      ;  Function 'dstrtol'; 16 bytes of locals, 1 regs to save.
 4166  00004674  afbefffc	sw	-4(r29),r30; push fp
 4167  00004678  001df020	add	r30,r0,r29; fp = sp
 4168  0000467c  afbffff8	sw	-8(r29),r31; push ret addr
 4169  00004680  2fbd0020	subui	r29,r29,#32; alloc local storage
 4170  00004684  afa20000	sw	0(r29),r2
 4171  00004688  20010000	addi	r1,r0,#0
 4172  0000468c  afc1fff4	sw	-12(r30),r1
 4173  00004690          	L73_LF2:
 4174  00004690  8fc10000	lw	r1,(r30)
 4175  00004694  90220000	lbu	r2,(r1)
 4176  00004698  60410020	seqi	r1,r2,#32
 4177  0000469c  14200034	bnez	r1,L75_LF2
 4178  000046a0  54000000	nop; delay slot nop
 4179  000046a4  8fc10000	lw	r1,(r30)
 4180  000046a8  90220000	lbu	r2,(r1)
 4181  000046ac  60410009	seqi	r1,r2,#9
 4182  000046b0  14200020	bnez	r1,L75_LF2
 4183  000046b4  54000000	nop; delay slot nop
 4184  000046b8  8fc10000	lw	r1,(r30)
 4185  000046bc  90220000	lbu	r2,(r1)
 4186  000046c0  6041000a	seqi	r1,r2,#10
 4187  000046c4  1420000c	bnez	r1,L75_LF2
 4188  000046c8  54000000	nop; delay slot nop
 4189  000046cc  0800001c	j	L74_LF2
 4190  000046d0  54000000	nop; delay slot nop
 4191  000046d4          	L75_LF2:
 4192  000046d4  8fc20000	lw	r2,(r30)
 4193  000046d8  20410001	addi	r1,r2,#1
 4194  000046dc  00011020	add	r2,r0,r1
 4195  000046e0  afc20000	sw	(r30),r2
 4196  000046e4  0bffffa8	j	L73_LF2
 4197  000046e8  54000000	nop; delay slot nop
 4198  000046ec          	L74_LF2:
 4199  000046ec  8fc10004	lw	r1,4(r30)
 4200  000046f0  64220000	snei	r2,r1,#0
 4201  000046f4  10400010	beqz	r2,L76_LF2
 4202  000046f8  54000000	nop; delay slot nop
 4203  000046fc  8fc10004	lw	r1,4(r30)
 4204  00004700  8fc20000	lw	r2,(r30)
 4205  00004704  ac220000	sw	(r1),r2
 4206  00004708          	L76_LF2:
 4207  00004708  8fc10000	lw	r1,(r30)
 4208  0000470c  90220000	lbu	r2,(r1)
 4209  00004710  64410000	snei	r1,r2,#0
 4210  00004714  14200010	bnez	r1,L77_LF2
 4211  00004718  54000000	nop; delay slot nop
 4212  0000471c  8fc1fff4	lw	r1,-12(r30)
 4213  00004720  08000294	j	L72_LF2
 4214  00004724  54000000	nop; delay slot nop
 4215  00004728          	L77_LF2:
 4216  00004728  8fc10000	lw	r1,(r30)
 4217  0000472c  90220000	lbu	r2,(r1)
 4218  00004730  6041002d	seqi	r1,r2,#45
 4219  00004734  10200024	beqz	r1,L78_LF2
 4220  00004738  54000000	nop; delay slot nop
 4221  0000473c  2001ffff	addi	r1,r0,#-1
 4222  00004740  afc1ffec	sw	-20(r30),r1
 4223  00004744  8fc20000	lw	r2,(r30)
 4224  00004748  20410001	addi	r1,r2,#1
 4225  0000474c  00011020	add	r2,r0,r1
 4226  00004750  afc20000	sw	(r30),r2
 4227  00004754  0800000c	j	L79_LF2
 4228  00004758  54000000	nop; delay slot nop
 4229  0000475c          	L78_LF2:
 4230  0000475c  20010001	addi	r1,r0,#1
 4231  00004760  afc1ffec	sw	-20(r30),r1
 4232  00004764          	L79_LF2:
 4233  00004764  8fc10008	lw	r1,8(r30)
 4234  00004768  64220000	snei	r2,r1,#0
 4235  0000476c  14400090	bnez	r2,L80_LF2
 4236  00004770  54000000	nop; delay slot nop
 4237  00004774  8fc10000	lw	r1,(r30)
 4238  00004778  90220000	lbu	r2,(r1)
 4239  0000477c  60410030	seqi	r1,r2,#48
 4240  00004780  10200074	beqz	r1,L81_LF2
 4241  00004784  54000000	nop; delay slot nop
 4242  00004788  8fc20000	lw	r2,(r30)
 4243  0000478c  20410001	addi	r1,r2,#1
 4244  00004790  00011020	add	r2,r0,r1
 4245  00004794  afc20000	sw	(r30),r2
 4246  00004798  8fc10000	lw	r1,(r30)
 4247  0000479c  90220000	lbu	r2,(r1)
 4248  000047a0  60410078	seqi	r1,r2,#120
 4249  000047a4  14200020	bnez	r1,L83_LF2
 4250  000047a8  54000000	nop; delay slot nop
 4251  000047ac  8fc10000	lw	r1,(r30)
 4252  000047b0  90220000	lbu	r2,(r1)
 4253  000047b4  60410058	seqi	r1,r2,#88
 4254  000047b8  1420000c	bnez	r1,L83_LF2
 4255  000047bc  54000000	nop; delay slot nop
 4256  000047c0  08000024	j	L82_LF2
 4257  000047c4  54000000	nop; delay slot nop
 4258  000047c8          	L83_LF2:
 4259  000047c8  20010010	addi	r1,r0,#16
 4260  000047cc  afc10008	sw	8(r30),r1
 4261  000047d0  8fc20000	lw	r2,(r30)
 4262  000047d4  20410001	addi	r1,r2,#1
 4263  000047d8  00011020	add	r2,r0,r1
 4264  000047dc  afc20000	sw	(r30),r2
 4265  000047e0  0800000c	j	L84_LF2
 4266  000047e4  54000000	nop; delay slot nop
 4267  000047e8          	L82_LF2:
 4268  000047e8  20010008	addi	r1,r0,#8
 4269  000047ec  afc10008	sw	8(r30),r1
 4270  000047f0          	L84_LF2:
 4271  000047f0  0800000c	j	L80_LF2
 4272  000047f4  54000000	nop; delay slot nop
 4273  000047f8          	L81_LF2:
 4274  000047f8  2001000a	addi	r1,r0,#10
 4275  000047fc  afc10008	sw	8(r30),r1
 4276  00004800          	L85_LF2:
 4277  00004800          	L80_LF2:
 4278  00004800  8fc10008	lw	r1,8(r30)
 4279  00004804  70220000	slei	r2,r1,#0
 4280  00004808  1440001c	bnez	r2,L87_LF2
 4281  0000480c  54000000	nop; delay slot nop
 4282  00004810  8fc10008	lw	r1,8(r30)
 4283  00004814  6c220010	sgti	r2,r1,#16
 4284  00004818  1440000c	bnez	r2,L87_LF2
 4285  0000481c  54000000	nop; delay slot nop
 4286  00004820  08000010	j	L86_LF2
 4287  00004824  54000000	nop; delay slot nop
 4288  00004828          	L87_LF2:
 4289  00004828  8fc1fff4	lw	r1,-12(r30)
 4290  0000482c  08000188	j	L72_LF2
 4291  00004830  54000000	nop; delay slot nop
 4292  00004834          	L86_LF2:
 4293  00004834  54000000	nop
 4294  00004838          	L88_LF2:
 4295  00004838  8fc10000	lw	r1,(r30)
 4296  0000483c  90220000	lbu	r2,(r1)
 4297  00004840  6c41002f	sgtui	r1,r2,#47
 4298  00004844  10200030	beqz	r1,L91_LF2
 4299  00004848  54000000	nop; delay slot nop
 4300  0000484c  8fc10000	lw	r1,(r30)
 4301  00004850  90220000	lbu	r2,(r1)
 4302  00004854  70410039	sleui	r1,r2,#57
 4303  00004858  1020001c	beqz	r1,L91_LF2
 4304  0000485c  54000000	nop; delay slot nop
 4305  00004860  8fc10000	lw	r1,(r30)
 4306  00004864  90220000	lbu	r2,(r1)
 4307  00004868  2041ffd0	addi	r1,r2,#-48
 4308  0000486c  afc1fff0	sw	-16(r30),r1
 4309  00004870  0800008c	j	L92_LF2
 4310  00004874  54000000	nop; delay slot nop
 4311  00004878          	L91_LF2:
 4312  00004878  8fc10000	lw	r1,(r30)
 4313  0000487c  90220000	lbu	r2,(r1)
 4314  00004880  6c410060	sgtui	r1,r2,#96
 4315  00004884  10200030	beqz	r1,L93_LF2
 4316  00004888  54000000	nop; delay slot nop
 4317  0000488c  8fc10000	lw	r1,(r30)
 4318  00004890  90220000	lbu	r2,(r1)
 4319  00004894  7041007a	sleui	r1,r2,#122
 4320  00004898  1020001c	beqz	r1,L93_LF2
 4321  0000489c  54000000	nop; delay slot nop
 4322  000048a0  8fc10000	lw	r1,(r30)
 4323  000048a4  90220000	lbu	r2,(r1)
 4324  000048a8  2041ffa9	addi	r1,r2,#-87
 4325  000048ac  afc1fff0	sw	-16(r30),r1
 4326  000048b0  0800004c	j	L92_LF2
 4327  000048b4  54000000	nop; delay slot nop
 4328  000048b8          	L93_LF2:
 4329  000048b8  8fc10000	lw	r1,(r30)
 4330  000048bc  90220000	lbu	r2,(r1)
 4331  000048c0  6c410040	sgtui	r1,r2,#64
 4332  000048c4  10200030	beqz	r1,L95_LF2
 4333  000048c8  54000000	nop; delay slot nop
 4334  000048cc  8fc10000	lw	r1,(r30)
 4335  000048d0  90220000	lbu	r2,(r1)
 4336  000048d4  7041005a	sleui	r1,r2,#90
 4337  000048d8  1020001c	beqz	r1,L95_LF2
 4338  000048dc  54000000	nop; delay slot nop
 4339  000048e0  8fc10000	lw	r1,(r30)
 4340  000048e4  90220000	lbu	r2,(r1)
 4341  000048e8  2041ffc9	addi	r1,r2,#-55
 4342  000048ec  afc1fff0	sw	-16(r30),r1
 4343  000048f0  0800000c	j	L92_LF2
 4344  000048f4  54000000	nop; delay slot nop
 4345  000048f8          	L95_LF2:
 4346  000048f8  200103e8	addi	r1,r0,#1000
 4347  000048fc  afc1fff0	sw	-16(r30),r1
 4348  00004900          	L96_LF2:
 4349  00004900          	L94_LF2:
 4350  00004900          	L92_LF2:
 4351  00004900  8fc1fff0	lw	r1,-16(r30)
 4352  00004904  8fc20008	lw	r2,8(r30)
 4353  00004908  0022082a	slt	r1,r1,r2
 4354  0000490c  10200040	beqz	r1,L90_LF2
 4355  00004910  54000000	nop; delay slot nop
 4356  00004914  8fc1fff4	lw	r1,-12(r30)
 4357  00004918  8fc20008	lw	r2,8(r30)
 4358  0000491c  00200035	movi2fp	f0,r1
 4359  00004920  00400835	movi2fp	f1,r2
 4360  00004924  0401000e	mult	f0,f0,f1
 4361  00004928  00000834	movfp2i	r1,f0
 4362  0000492c  afc1fff4	sw	-12(r30),r1
 4363  00004930  8fc1fff4	lw	r1,-12(r30)
 4364  00004934  8fc2fff0	lw	r2,-16(r30)
 4365  00004938  00220820	add	r1,r1,r2
 4366  0000493c  afc1fff4	sw	-12(r30),r1
 4367  00004940  8fc20000	lw	r2,(r30)
 4368  00004944  20410001	addi	r1,r2,#1
 4369  00004948  00011020	add	r2,r0,r1
 4370  0000494c  afc20000	sw	(r30),r2
 4371  00004950          	L97_LF2:
 4372  00004950          	L90_LF2:
 4373  00004950  8fc1fff0	lw	r1,-16(r30)
 4374  00004954  8fc20008	lw	r2,8(r30)
 4375  00004958  0022082a	slt	r1,r1,r2
 4376  0000495c  1420000c	bnez	r1,L98_LF2
 4377  00004960  54000000	nop; delay slot nop
 4378  00004964  0800000c	j	L89_LF2
 4379  00004968  54000000	nop; delay slot nop
 4380  0000496c          	L98_LF2:
 4381  0000496c  0bfffec8	j	L88_LF2
 4382  00004970  54000000	nop; delay slot nop
 4383  00004974          	L89_LF2:
 4384  00004974  8fc10004	lw	r1,4(r30)
 4385  00004978  64220000	snei	r2,r1,#0
 4386  0000497c  10400010	beqz	r2,L99_LF2
 4387  00004980  54000000	nop; delay slot nop
 4388  00004984  8fc10004	lw	r1,4(r30)
 4389  00004988  8fc20000	lw	r2,(r30)
 4390  0000498c  ac220000	sw	(r1),r2
 4391  00004990          	L99_LF2:
 4392  00004990  8fc1fff4	lw	r1,-12(r30)
 4393  00004994  8fc2ffec	lw	r2,-20(r30)
 4394  00004998  00200035	movi2fp	f0,r1
 4395  0000499c  00400835	movi2fp	f1,r2
 4396  000049a0  0401000e	mult	f0,f0,f1
 4397  000049a4  00000834	movfp2i	r1,f0
 4398  000049a8  afc1fff4	sw	-12(r30),r1
 4399  000049ac  8fc1fff4	lw	r1,-12(r30)
 4400  000049b0  08000004	j	L72_LF2
 4401  000049b4  54000000	nop; delay slot nop
 4402  000049b8          	L72_LF2:
 4403  000049b8  8fa20000	lw	r2,0(r29)
 4404  000049bc  8fdffff8	lw	r31,-8(r30)
 4405  000049c0  001ee820	add	r29,r0,r30
 4406  000049c4  8fdefffc	lw	r30,-4(r30)
 4407  000049c8  4be00000	jr	r31
 4408  000049cc  54000000	nop
 4409  000049d0          	.endproc _dstrtol
 4410  000049d0          	.align 2
 4411  000049d0          	.proc _bcopy
 4412  000049d0          	.global _bcopy
 4413  000049d0          	_bcopy:
 4414                      ;  Function 'bcopy'; 0 bytes of locals, 2 regs to save.
 4415  000049d0  afbefffc	sw	-4(r29),r30; push fp
 4416  000049d4  001df020	add	r30,r0,r29; fp = sp
 4417  000049d8  afbffff8	sw	-8(r29),r31; push ret addr
 4418  000049dc  2fbd0010	subui	r29,r29,#16; alloc local storage
 4419  000049e0  afa20000	sw	0(r29),r2
 4420  000049e4  afa30004	sw	4(r29),r3
 4421  000049e8  54000000	nop
 4422  000049ec          	L101_LF2:
 4423  000049ec  8fc10008	lw	r1,8(r30)
 4424  000049f0  2022ffff	addi	r2,r1,#-1
 4425  000049f4  afc20008	sw	8(r30),r2
 4426  000049f8  6c210000	sgti	r1,r1,#0
 4427  000049fc  1420000c	bnez	r1,L103_LF2
 4428  00004a00  54000000	nop; delay slot nop
 4429  00004a04  0800002c	j	L102_LF2
 4430  00004a08  54000000	nop; delay slot nop
 4431  00004a0c          	L103_LF2:
 4432  00004a0c  8fc10004	lw	r1,4(r30)
 4433  00004a10  20220001	addi	r2,r1,#1
 4434  00004a14  afc20004	sw	4(r30),r2
 4435  00004a18  8fc20000	lw	r2,(r30)
 4436  00004a1c  20430001	addi	r3,r2,#1
 4437  00004a20  afc30000	sw	(r30),r3
 4438  00004a24  80420000	lb	r2,(r2)
 4439  00004a28  a0220000	sb	(r1),r2
 4440  00004a2c  0bffffbc	j	L101_LF2
 4441  00004a30  54000000	nop; delay slot nop
 4442  00004a34          	L102_LF2:
 4443  00004a34          	L100_LF2:
 4444  00004a34  8fa20000	lw	r2,0(r29)
 4445  00004a38  8fa30004	lw	r3,4(r29)
 4446  00004a3c  8fdffff8	lw	r31,-8(r30)
 4447  00004a40  001ee820	add	r29,r0,r30
 4448  00004a44  8fdefffc	lw	r30,-4(r30)
 4449  00004a48  4be00000	jr	r31
 4450  00004a4c  54000000	nop
 4451  00004a50          	.endproc _bcopy
 4452  00004a50          	.align 2
 4453  00004a50          	.proc _bzero
 4454  00004a50          	.global _bzero
 4455  00004a50          	_bzero:
 4456                      ;  Function 'bzero'; 0 bytes of locals, 1 regs to save.
 4457  00004a50  afbefffc	sw	-4(r29),r30; push fp
 4458  00004a54  001df020	add	r30,r0,r29; fp = sp
 4459  00004a58  afbffff8	sw	-8(r29),r31; push ret addr
 4460  00004a5c  2fbd0010	subui	r29,r29,#16; alloc local storage
 4461  00004a60  afa20000	sw	0(r29),r2
 4462  00004a64  54000000	nop
 4463  00004a68          	L105_LF2:
 4464  00004a68  8fc10004	lw	r1,4(r30)
 4465  00004a6c  2022ffff	addi	r2,r1,#-1
 4466  00004a70  afc20004	sw	4(r30),r2
 4467  00004a74  6c210000	sgti	r1,r1,#0
 4468  00004a78  1420000c	bnez	r1,L107_LF2
 4469  00004a7c  54000000	nop; delay slot nop
 4470  00004a80  08000020	j	L106_LF2
 4471  00004a84  54000000	nop; delay slot nop
 4472  00004a88          	L107_LF2:
 4473  00004a88  8fc10000	lw	r1,(r30)
 4474  00004a8c  20220001	addi	r2,r1,#1
 4475  00004a90  afc20000	sw	(r30),r2
 4476  00004a94  20020000	addi	r2,r0,(#0x0)&0xff
 4477  00004a98  a0220000	sb	(r1),r2
 4478  00004a9c  0bffffc8	j	L105_LF2
 4479  00004aa0  54000000	nop; delay slot nop
 4480  00004aa4          	L106_LF2:
 4481  00004aa4          	L104_LF2:
 4482  00004aa4  8fa20000	lw	r2,0(r29)
 4483  00004aa8  8fdffff8	lw	r31,-8(r30)
 4484  00004aac  001ee820	add	r29,r0,r30
 4485  00004ab0  8fdefffc	lw	r30,-4(r30)
 4486  00004ab4  4be00000	jr	r31
 4487  00004ab8  54000000	nop
 4488  00004abc          	.endproc _bzero
 4489  00004abc          	.align 2
 4490  00004abc          	.proc _min
 4491  00004abc          	.global _min
 4492  00004abc          	_min:
 4493                      ;  Function 'min'; 0 bytes of locals, 2 regs to save.
 4494  00004abc  afbefffc	sw	-4(r29),r30; push fp
 4495  00004ac0  001df020	add	r30,r0,r29; fp = sp
 4496  00004ac4  afbffff8	sw	-8(r29),r31; push ret addr
 4497  00004ac8  2fbd0010	subui	r29,r29,#16; alloc local storage
 4498  00004acc  afa20000	sw	0(r29),r2
 4499  00004ad0  afa30004	sw	4(r29),r3
 4500  00004ad4  8fc10000	lw	r1,(r30)
 4501  00004ad8  8fc20004	lw	r2,4(r30)
 4502  00004adc  0022182c	sle	r3,r1,r2
 4503  00004ae0  14600008	bnez	r3,L109_LF2
 4504  00004ae4  54000000	nop; delay slot nop
 4505  00004ae8  8fc10004	lw	r1,4(r30)
 4506  00004aec          	L109_LF2:
 4507  00004aec  08000004	j	L108_LF2
 4508  00004af0  54000000	nop; delay slot nop
 4509  00004af4          	L108_LF2:
 4510  00004af4  8fa20000	lw	r2,0(r29)
 4511  00004af8  8fa30004	lw	r3,4(r29)
 4512  00004afc  8fdffff8	lw	r31,-8(r30)
 4513  00004b00  001ee820	add	r29,r0,r30
 4514  00004b04  8fdefffc	lw	r30,-4(r30)
 4515  00004b08  4be00000	jr	r31
 4516  00004b0c  54000000	nop
 4517  00004b10          	.endproc _min
 4518  00004b10          	.align 2
 4519  00004b10          	.proc _max
 4520  00004b10          	.global _max
 4521  00004b10          	_max:
 4522                      ;  Function 'max'; 0 bytes of locals, 2 regs to save.
 4523  00004b10  afbefffc	sw	-4(r29),r30; push fp
 4524  00004b14  001df020	add	r30,r0,r29; fp = sp
 4525  00004b18  afbffff8	sw	-8(r29),r31; push ret addr
 4526  00004b1c  2fbd0010	subui	r29,r29,#16; alloc local storage
 4527  00004b20  afa20000	sw	0(r29),r2
 4528  00004b24  afa30004	sw	4(r29),r3
 4529  00004b28  8fc10000	lw	r1,(r30)
 4530  00004b2c  8fc20004	lw	r2,4(r30)
 4531  00004b30  0022182d	sge	r3,r1,r2
 4532  00004b34  14600008	bnez	r3,L111_LF2
 4533  00004b38  54000000	nop; delay slot nop
 4534  00004b3c  8fc10004	lw	r1,4(r30)
 4535  00004b40          	L111_LF2:
 4536  00004b40  08000004	j	L110_LF2
 4537  00004b44  54000000	nop; delay slot nop
 4538  00004b48          	L110_LF2:
 4539  00004b48  8fa20000	lw	r2,0(r29)
 4540  00004b4c  8fa30004	lw	r3,4(r29)
 4541  00004b50  8fdffff8	lw	r31,-8(r30)
 4542  00004b54  001ee820	add	r29,r0,r30
 4543  00004b58  8fdefffc	lw	r30,-4(r30)
 4544  00004b5c  4be00000	jr	r31
 4545  00004b60  54000000	nop
 4546  00004b64          	.endproc _max
 4547                      ; Compiled by GCC
 4549  00004b64          	.align 2
 4550  00004b64          	.proc _isspace
 4551  00004b64          	.global _isspace
 4552  00004b64          	_isspace:
 4553                      ;  Function 'isspace'; 0 bytes of locals, 3 regs to save.
 4554  00004b64  afbefffc	sw	-4(r29),r30; push fp
 4555  00004b68  001df020	add	r30,r0,r29; fp = sp
 4556  00004b6c  afbffff8	sw	-8(r29),r31; push ret addr
 4557  00004b70  2fbd0018	subui	r29,r29,#24; alloc local storage
 4558  00004b74  afa20000	sw	0(r29),r2
 4559  00004b78  afa30004	sw	4(r29),r3
 4560  00004b7c  afa40008	sw	8(r29),r4
 4561  00004b80  83c20003	lb	r2,3(r30)
 4562  00004b84  20010000	addi	r1,r0,#0
 4563  00004b88  304300ff	andi	r3,r2,#0x00ff
 4564  00004b8c  60640020	seqi	r4,r3,#32
 4565  00004b90  1480002c	bnez	r4,L3_LF3
 4566  00004b94  54000000	nop; delay slot nop
 4567  00004b98  304300ff	andi	r3,r2,#0x00ff
 4568  00004b9c  60640009	seqi	r4,r3,#9
 4569  00004ba0  1480001c	bnez	r4,L3_LF3
 4570  00004ba4  54000000	nop; delay slot nop
 4571  00004ba8  304300ff	andi	r3,r2,#0x00ff
 4572  00004bac  6064000a	seqi	r4,r3,#10
 4573  00004bb0  1480000c	bnez	r4,L3_LF3
 4574  00004bb4  54000000	nop; delay slot nop
 4575  00004bb8  08000008	j	L2_LF3
 4576  00004bbc  54000000	nop; delay slot nop
 4577  00004bc0          	L3_LF3:
 4578  00004bc0  20010001	addi	r1,r0,#1
 4579  00004bc4          	L2_LF3:
 4580  00004bc4  08000004	j	L1_LF3
 4581  00004bc8  54000000	nop; delay slot nop
 4582  00004bcc          	L1_LF3:
 4583  00004bcc  8fa20000	lw	r2,0(r29)
 4584  00004bd0  8fa30004	lw	r3,4(r29)
 4585  00004bd4  8fa40008	lw	r4,8(r29)
 4586  00004bd8  8fdffff8	lw	r31,-8(r30)
 4587  00004bdc  001ee820	add	r29,r0,r30
 4588  00004be0  8fdefffc	lw	r30,-4(r30)
 4589  00004be4  4be00000	jr	r31
 4590  00004be8  54000000	nop
 4591  00004bec          	.endproc _isspace
 4592  00004bec          	.align 2
 4593  00004bec          	.proc _isxdigit
 4594  00004bec          	.global _isxdigit
 4595  00004bec          	_isxdigit:
 4596                      ;  Function 'isxdigit'; 0 bytes of locals, 3 regs to save.
 4597  00004bec  afbefffc	sw	-4(r29),r30; push fp
 4598  00004bf0  001df020	add	r30,r0,r29; fp = sp
 4599  00004bf4  afbffff8	sw	-8(r29),r31; push ret addr
 4600  00004bf8  2fbd0018	subui	r29,r29,#24; alloc local storage
 4601  00004bfc  afa20000	sw	0(r29),r2
 4602  00004c00  afa30004	sw	4(r29),r3
 4603  00004c04  afa40008	sw	8(r29),r4
 4604  00004c08  83c20003	lb	r2,3(r30)
 4605  00004c0c  20010000	addi	r1,r0,#0
 4606  00004c10  304300ff	andi	r3,r2,#0x00ff
 4607  00004c14  6c64002f	sgtui	r4,r3,#47
 4608  00004c18  1080001c	beqz	r4,L7_LF3
 4609  00004c1c  54000000	nop; delay slot nop
 4610  00004c20  304300ff	andi	r3,r2,#0x00ff
 4611  00004c24  70640039	sleui	r4,r3,#57
 4612  00004c28  1480005c	bnez	r4,L6_LF3
 4613  00004c2c  54000000	nop; delay slot nop
 4614  00004c30  08000004	j	L7_LF3
 4615  00004c34  54000000	nop; delay slot nop
 4616  00004c38          	L7_LF3:
 4617  00004c38  304300ff	andi	r3,r2,#0x00ff
 4618  00004c3c  6c640060	sgtui	r4,r3,#96
 4619  00004c40  1080001c	beqz	r4,L8_LF3
 4620  00004c44  54000000	nop; delay slot nop
 4621  00004c48  304300ff	andi	r3,r2,#0x00ff
 4622  00004c4c  70640066	sleui	r4,r3,#102
 4623  00004c50  14800034	bnez	r4,L6_LF3
 4624  00004c54  54000000	nop; delay slot nop
 4625  00004c58  08000004	j	L8_LF3
 4626  00004c5c  54000000	nop; delay slot nop
 4627  00004c60          	L8_LF3:
 4628  00004c60  304300ff	andi	r3,r2,#0x00ff
 4629  00004c64  6c640040	sgtui	r4,r3,#64
 4630  00004c68  10800020	beqz	r4,L5_LF3
 4631  00004c6c  54000000	nop; delay slot nop
 4632  00004c70  304300ff	andi	r3,r2,#0x00ff
 4633  00004c74  70640041	sleui	r4,r3,#65
 4634  00004c78  1480000c	bnez	r4,L6_LF3
 4635  00004c7c  54000000	nop; delay slot nop
 4636  00004c80  08000008	j	L5_LF3
 4637  00004c84  54000000	nop; delay slot nop
 4638  00004c88          	L6_LF3:
 4639  00004c88  20010001	addi	r1,r0,#1
 4640  00004c8c          	L5_LF3:
 4641  00004c8c  08000004	j	L4_LF3
 4642  00004c90  54000000	nop; delay slot nop
 4643  00004c94          	L4_LF3:
 4644  00004c94  8fa20000	lw	r2,0(r29)
 4645  00004c98  8fa30004	lw	r3,4(r29)
 4646  00004c9c  8fa40008	lw	r4,8(r29)
 4647  00004ca0  8fdffff8	lw	r31,-8(r30)
 4648  00004ca4  001ee820	add	r29,r0,r30
 4649  00004ca8  8fdefffc	lw	r30,-4(r30)
 4650  00004cac  4be00000	jr	r31
 4651  00004cb0  54000000	nop
 4652  00004cb4          	.endproc _isxdigit
 4653  00004cb4          	.align 2
 4654  00004cb4          	.proc _DisableIntrs
 4655  00004cb4          	.global _DisableIntrs
 4656  00004cb4          	_DisableIntrs:
 4657                      ;  Function 'DisableIntrs'; 0 bytes of locals, 1 regs to save.
 4658  00004cb4  afbefffc	sw	-4(r29),r30; push fp
 4659  00004cb8  001df020	add	r30,r0,r29; fp = sp
 4660  00004cbc  afbffff8	sw	-8(r29),r31; push ret addr
 4661  00004cc0  2fbd0010	subui	r29,r29,#16; alloc local storage
 4662  00004cc4  afa20000	sw	0(r29),r2
 4663  00004cc8  23bdfff8	addi	r29,r29,#-8
 4664  00004ccc  001d0820	add	r1,r0,r29
 4665  00004cd0  2002000f	addi	r2,r0,#15
 4666  00004cd4  ac220000	sw	(r1),r2
 4667  00004cd8  0c00d7a0	jal	_SetIntrs
 4668  00004cdc  54000000	nop; delay slot nop
 4669  00004ce0  23bd0008	addi	r29,r29,#8
 4670  00004ce4  00011020	add	r2,r0,r1
 4671  00004ce8  00020820	add	r1,r0,r2
 4672  00004cec  08000004	j	L9_LF3
 4673  00004cf0  54000000	nop; delay slot nop
 4674  00004cf4          	L9_LF3:
 4675  00004cf4  8fa20000	lw	r2,0(r29)
 4676  00004cf8  8fdffff8	lw	r31,-8(r30)
 4677  00004cfc  001ee820	add	r29,r0,r30
 4678  00004d00  8fdefffc	lw	r30,-4(r30)
 4679  00004d04  4be00000	jr	r31
 4680  00004d08  54000000	nop
 4681  00004d0c          	.endproc _DisableIntrs
 4682  00004d0c          	.align 2
 4683  00004d0c          	.proc _EnableIntrs
 4684  00004d0c          	.global _EnableIntrs
 4685  00004d0c          	_EnableIntrs:
 4686                      ;  Function 'EnableIntrs'; 0 bytes of locals, 1 regs to save.
 4687  00004d0c  afbefffc	sw	-4(r29),r30; push fp
 4688  00004d10  001df020	add	r30,r0,r29; fp = sp
 4689  00004d14  afbffff8	sw	-8(r29),r31; push ret addr
 4690  00004d18  2fbd0010	subui	r29,r29,#16; alloc local storage
 4691  00004d1c  afa20000	sw	0(r29),r2
 4692  00004d20  23bdfff8	addi	r29,r29,#-8
 4693  00004d24  001d0820	add	r1,r0,r29
 4694  00004d28  20020000	addi	r2,r0,#0
 4695  00004d2c  ac220000	sw	(r1),r2
 4696  00004d30  0c00d748	jal	_SetIntrs
 4697  00004d34  54000000	nop; delay slot nop
 4698  00004d38  23bd0008	addi	r29,r29,#8
 4699  00004d3c  00011020	add	r2,r0,r1
 4700  00004d40  00020820	add	r1,r0,r2
 4701  00004d44  08000004	j	L10_LF3
 4702  00004d48  54000000	nop; delay slot nop
 4703  00004d4c          	L10_LF3:
 4704  00004d4c  8fa20000	lw	r2,0(r29)
 4705  00004d50  8fdffff8	lw	r31,-8(r30)
 4706  00004d54  001ee820	add	r29,r0,r30
 4707  00004d58  8fdefffc	lw	r30,-4(r30)
 4708  00004d5c  4be00000	jr	r31
 4709  00004d60  54000000	nop
 4710  00004d64          	.endproc _EnableIntrs
 4711  00004d64          	.align 2
 4712  00004d64          	.proc _RestoreIntrs
 4713  00004d64          	.global _RestoreIntrs
 4714  00004d64          	_RestoreIntrs:
 4715                      ;  Function 'RestoreIntrs'; 0 bytes of locals, 2 regs to save.
 4716  00004d64  afbefffc	sw	-4(r29),r30; push fp
 4717  00004d68  001df020	add	r30,r0,r29; fp = sp
 4718  00004d6c  afbffff8	sw	-8(r29),r31; push ret addr
 4719  00004d70  2fbd0010	subui	r29,r29,#16; alloc local storage
 4720  00004d74  afa20000	sw	0(r29),r2
 4721  00004d78  afa30004	sw	4(r29),r3
 4722  00004d7c  8fc20000	lw	r2,(r30)
 4723  00004d80  23bdfff8	addi	r29,r29,#-8
 4724  00004d84  001d0820	add	r1,r0,r29
 4725  00004d88  ac220000	sw	(r1),r2
 4726  00004d8c  0c00d6ec	jal	_SetIntrs
 4727  00004d90  54000000	nop; delay slot nop
 4728  00004d94  23bd0008	addi	r29,r29,#8
 4729  00004d98  00011820	add	r3,r0,r1
 4730  00004d9c  00030820	add	r1,r0,r3
 4731  00004da0  08000004	j	L11_LF3
 4732  00004da4  54000000	nop; delay slot nop
 4733  00004da8          	L11_LF3:
 4734  00004da8  8fa20000	lw	r2,0(r29)
 4735  00004dac  8fa30004	lw	r3,4(r29)
 4736  00004db0  8fdffff8	lw	r31,-8(r30)
 4737  00004db4  001ee820	add	r29,r0,r30
 4738  00004db8  8fdefffc	lw	r30,-4(r30)
 4739  00004dbc  4be00000	jr	r31
 4740  00004dc0  54000000	nop
 4741  00004dc4          	.endproc _RestoreIntrs
 4742  00004dc4          	.data
 4743  00015450          	.align 2
 4744  00015450          	_processQuantum_LF3:
 4745  00015450  00002710	.word 10000
 4746  00015454          	.align 2
 4747  00015454          	LC0_LF3:
 4748  00015454  456e7465	.ascii "Entering ProcessModuleInit\n\000"
 4748  00015458  72696e67	
 4748  0001545c  2050726f	
 4748  00015460  63657373	
 4748  00015464  4d6f6475	
 4748  00015468  6c65496e	
 4748  0001546c  69740a00	
 4749  00015470          	.align 2
 4750  00015470          	LC1_LF3:
 4751  00015470  496e6974	.ascii "Initializing PCB %d @ 0x%x.\n\000"
 4751  00015474  69616c69	
 4751  00015478  7a696e67	
 4751  0001547c  20504342	
 4751  00015480  20256420	
 4751  00015484  40203078	
 4751  00015488  25782e0a	
 4751  0001548c  00      	
 4752  0001548d          	.align 2
 4753  00015490          	LC2_LF3:
 4754  00015490  46415441	.ascii "FATAL ERROR: could not allocate link in ProcessModuleInit!\n\000"
 4754  00015494  4c204552	
 4754  00015498  524f523a	
 4754  0001549c  20636f75	
 4754  000154a0  6c64206e	
 4754  000154a4  6f742061	
 4754  000154a8  6c6c6f63	
 4754  000154ac  61746520	
 4754  000154b0  6c696e6b	
 4754  000154b4  20696e20	
 4754  000154b8  50726f63	
 4754  000154bc  6573734d	
 4754  000154c0  6f64756c	
 4754  000154c4  65496e69	
 4754  000154c8  74210a00	
 4755  000154cc          	.align 2
 4756  000154cc          	LC3_LF3:
 4757  000154cc  46415441	.ascii "FATAL ERROR: could not insert PCB link into queue in ProcessModuleInit"
 4757  000154d0  4c204552	
 4757  000154d4  524f523a	
 4757  000154d8  20636f75	
 4757  000154dc  6c64206e	
 4757  000154e0  6f742069	
 4757  000154e4  6e736572	
 4757  000154e8  74205043	
 4757  000154ec  42206c69	
 4757  000154f0  6e6b2069	
 4757  000154f4  6e746f20	
 4757  000154f8  71756575	
 4757  000154fc  6520696e	
 4757  00015500  2050726f	
 4757  00015504  63657373	
 4757  00015508  4d6f6475	
 4757  0001550c  6c65496e	
 4757  00015510  6974    	
 4758  00015512  210a00  	.ascii "!\n\000"
 4759  00015515          	.align 2
 4760  00015518          	LC4_LF3:
 4761  00015518  4c656176	.ascii "Leaving ProcessModuleInit\n\000"
 4761  0001551c  696e6720	
 4761  00015520  50726f63	
 4761  00015524  6573734d	
 4761  00015528  6f64756c	
 4761  0001552c  65496e69	
 4761  00015530  740a00  	
 4762  00015533          	.text
 4763  00004dc4          	.align 2
 4764  00004dc4          	.proc _ProcessModuleInit
 4765  00004dc4          	.global _ProcessModuleInit
 4766  00004dc4          	_ProcessModuleInit:
 4767                      ;  Function 'ProcessModuleInit'; 8 bytes of locals, 4 regs to save.
 4768  00004dc4  afbefffc	sw	-4(r29),r30; push fp
 4769  00004dc8  001df020	add	r30,r0,r29; fp = sp
 4770  00004dcc  afbffff8	sw	-8(r29),r31; push ret addr
 4771  00004dd0  2fbd0020	subui	r29,r29,#32; alloc local storage
 4772  00004dd4  afa20000	sw	0(r29),r2
 4773  00004dd8  afa30004	sw	4(r29),r3
 4774  00004ddc  afa40008	sw	8(r29),r4
 4775  00004de0  afa5000c	sw	12(r29),r5
 4776  00004de4  23bdfff8	addi	r29,r29,#-8
 4777  00004de8  001d0820	add	r1,r0,r29
 4778  00004dec  3c020001	lhi	r2,((_debugstr)>>16)&0xffff
 4779  00004df0  244261cb	addui	r2,r2,(_debugstr)&0xffff
 4780  00004df4  ac220000	sw	(r1),r2
 4781  00004df8  20020070	addi	r2,r0,#112
 4782  00004dfc  ac220004	sw	4(r1),r2
 4783  00004e00  0ffff650	jal	_dindex
 4784  00004e04  54000000	nop; delay slot nop
 4785  00004e08  23bd0008	addi	r29,r29,#8
 4786  00004e0c  64220000	snei	r2,r1,#0
 4787  00004e10  10400024	beqz	r2,L13_LF3
 4788  00004e14  54000000	nop; delay slot nop
 4789  00004e18  23bdfff8	addi	r29,r29,#-8
 4790  00004e1c  001d0820	add	r1,r0,r29
 4791  00004e20  3c020001	lhi	r2,((LC0_LF3)>>16)&0xffff
 4792  00004e24  24425454	addui	r2,r2,(LC0_LF3)&0xffff
 4793  00004e28  ac220000	sw	(r1),r2
 4794  00004e2c  0c00d74c	jal	_printf
 4795  00004e30  54000000	nop; delay slot nop
 4796  00004e34  23bd0008	addi	r29,r29,#8
 4797  00004e38          	L13_LF3:
 4798  00004e38  23bdfff8	addi	r29,r29,#-8
 4799  00004e3c  001d0820	add	r1,r0,r29
 4800  00004e40  3c020001	lhi	r2,((_debugstr)>>16)&0xffff
 4801  00004e44  244261cb	addui	r2,r2,(_debugstr)&0xffff
 4802  00004e48  ac220000	sw	(r1),r2
 4803  00004e4c  2002002b	addi	r2,r0,#43
 4804  00004e50  ac220004	sw	4(r1),r2
 4805  00004e54  0ffff5fc	jal	_dindex
 4806  00004e58  54000000	nop; delay slot nop
 4807  00004e5c  23bd0008	addi	r29,r29,#8
 4808  00004e60  64220000	snei	r2,r1,#0
 4809  00004e64  10400024	beqz	r2,L14_LF3
 4810  00004e68  54000000	nop; delay slot nop
 4811  00004e6c  23bdfff8	addi	r29,r29,#-8
 4812  00004e70  001d0820	add	r1,r0,r29
 4813  00004e74  3c020001	lhi	r2,((LC0_LF3)>>16)&0xffff
 4814  00004e78  24425454	addui	r2,r2,(LC0_LF3)&0xffff
 4815  00004e7c  ac220000	sw	(r1),r2
 4816  00004e80  0c00d6f8	jal	_printf
 4817  00004e84  54000000	nop; delay slot nop
 4818  00004e88  23bd0008	addi	r29,r29,#8
 4819  00004e8c          	L14_LF3:
 4820  00004e8c  23bdfff8	addi	r29,r29,#-8
 4821  00004e90  001d0820	add	r1,r0,r29
 4822  00004e94  3c020001	lhi	r2,((_freepcbs_LF3)>>16)&0xffff
 4823  00004e98  24426298	addui	r2,r2,(_freepcbs_LF3)&0xffff
 4824  00004e9c  ac220000	sw	(r1),r2
 4825  00004ea0  0c0053b0	jal	_AQueueInit
 4826  00004ea4  54000000	nop; delay slot nop
 4827  00004ea8  23bd0008	addi	r29,r29,#8
 4828  00004eac  23bdfff8	addi	r29,r29,#-8
 4829  00004eb0  001d0820	add	r1,r0,r29
 4830  00004eb4  3c020001	lhi	r2,((_runQueue_LF3)>>16)&0xffff
 4831  00004eb8  244262a4	addui	r2,r2,(_runQueue_LF3)&0xffff
 4832  00004ebc  ac220000	sw	(r1),r2
 4833  00004ec0  0c005390	jal	_AQueueInit
 4834  00004ec4  54000000	nop; delay slot nop
 4835  00004ec8  23bd0008	addi	r29,r29,#8
 4836  00004ecc  23bdfff8	addi	r29,r29,#-8
 4837  00004ed0  001d0820	add	r1,r0,r29
 4838  00004ed4  3c020001	lhi	r2,((_waitQueue_LF3)>>16)&0xffff
 4839  00004ed8  244262b0	addui	r2,r2,(_waitQueue_LF3)&0xffff
 4840  00004edc  ac220000	sw	(r1),r2
 4841  00004ee0  0c005370	jal	_AQueueInit
 4842  00004ee4  54000000	nop; delay slot nop
 4843  00004ee8  23bd0008	addi	r29,r29,#8
 4844  00004eec  23bdfff8	addi	r29,r29,#-8
 4845  00004ef0  001d0820	add	r1,r0,r29
 4846  00004ef4  3c020001	lhi	r2,((_zombieQueue_LF3)>>16)&0xffff
 4847  00004ef8  244262bc	addui	r2,r2,(_zombieQueue_LF3)&0xffff
 4848  00004efc  ac220000	sw	(r1),r2
 4849  00004f00  0c005350	jal	_AQueueInit
 4850  00004f04  54000000	nop; delay slot nop
 4851  00004f08  23bd0008	addi	r29,r29,#8
 4852  00004f0c  20010000	addi	r1,r0,#0
 4853  00004f10  afc1fff4	sw	-12(r30),r1
 4854  00004f14          	L15_LF3:
 4855  00004f14  8fc1fff4	lw	r1,-12(r30)
 4856  00004f18  7022001f	slei	r2,r1,#31
 4857  00004f1c  1440000c	bnez	r2,L18_LF3
 4858  00004f20  54000000	nop; delay slot nop
 4859  00004f24  08000320	j	L16_LF3
 4860  00004f28  54000000	nop; delay slot nop
 4861  00004f2c          	L18_LF3:
 4862  00004f2c  23bdfff8	addi	r29,r29,#-8
 4863  00004f30  001d0820	add	r1,r0,r29
 4864  00004f34  3c020001	lhi	r2,((_debugstr)>>16)&0xffff
 4865  00004f38  244261cb	addui	r2,r2,(_debugstr)&0xffff
 4866  00004f3c  ac220000	sw	(r1),r2
 4867  00004f40  20020070	addi	r2,r0,#112
 4868  00004f44  ac220004	sw	4(r1),r2
 4869  00004f48  0ffff508	jal	_dindex
 4870  00004f4c  54000000	nop; delay slot nop
 4871  00004f50  23bd0008	addi	r29,r29,#8
 4872  00004f54  64220000	snei	r2,r1,#0
 4873  00004f58  10400054	beqz	r2,L19_LF3
 4874  00004f5c  54000000	nop; delay slot nop
 4875  00004f60  23bdfff0	addi	r29,r29,#-16
 4876  00004f64  001d0820	add	r1,r0,r29
 4877  00004f68  3c020001	lhi	r2,((LC1_LF3)>>16)&0xffff
 4878  00004f6c  24425470	addui	r2,r2,(LC1_LF3)&0xffff
 4879  00004f70  ac220000	sw	(r1),r2
 4880  00004f74  8fc2fff4	lw	r2,-12(r30)
 4881  00004f78  ac220004	sw	4(r1),r2
 4882  00004f7c  8fc2fff4	lw	r2,-12(r30)
 4883  00004f80  20030468	addi	r3,r0,#1128
 4884  00004f84  00400035	movi2fp	f0,r2
 4885  00004f88  00600835	movi2fp	f1,r3
 4886  00004f8c  0401000e	mult	f0,f0,f1
 4887  00004f90  00001034	movfp2i	r2,f0
 4888  00004f94  3c030001	lhi	r3,((_pcbs_LF3)>>16)&0xffff
 4889  00004f98  246362c8	addui	r3,r3,(_pcbs_LF3)&0xffff
 4890  00004f9c  00621020	add	r2,r3,r2
 4891  00004fa0  ac220008	sw	8(r1),r2
 4892  00004fa4  0c00d5d4	jal	_printf
 4893  00004fa8  54000000	nop; delay slot nop
 4894  00004fac  23bd0010	addi	r29,r29,#16
 4895  00004fb0          	L19_LF3:
 4896  00004fb0  23bdfff8	addi	r29,r29,#-8
 4897  00004fb4  001d0820	add	r1,r0,r29
 4898  00004fb8  3c020001	lhi	r2,((_debugstr)>>16)&0xffff
 4899  00004fbc  244261cb	addui	r2,r2,(_debugstr)&0xffff
 4900  00004fc0  ac220000	sw	(r1),r2
 4901  00004fc4  2002002b	addi	r2,r0,#43
 4902  00004fc8  ac220004	sw	4(r1),r2
 4903  00004fcc  0ffff484	jal	_dindex
 4904  00004fd0  54000000	nop; delay slot nop
 4905  00004fd4  23bd0008	addi	r29,r29,#8
 4906  00004fd8  64220000	snei	r2,r1,#0
 4907  00004fdc  10400054	beqz	r2,L20_LF3
 4908  00004fe0  54000000	nop; delay slot nop
 4909  00004fe4  23bdfff0	addi	r29,r29,#-16
 4910  00004fe8  001d0820	add	r1,r0,r29
 4911  00004fec  3c020001	lhi	r2,((LC1_LF3)>>16)&0xffff
 4912  00004ff0  24425470	addui	r2,r2,(LC1_LF3)&0xffff
 4913  00004ff4  ac220000	sw	(r1),r2
 4914  00004ff8  8fc2fff4	lw	r2,-12(r30)
 4915  00004ffc  ac220004	sw	4(r1),r2
 4916  00005000  8fc2fff4	lw	r2,-12(r30)
 4917  00005004  20030468	addi	r3,r0,#1128
 4918  00005008  00400035	movi2fp	f0,r2
 4919  0000500c  00600835	movi2fp	f1,r3
 4920  00005010  0401000e	mult	f0,f0,f1
 4921  00005014  00001034	movfp2i	r2,f0
 4922  00005018  3c030001	lhi	r3,((_pcbs_LF3)>>16)&0xffff
 4923  0000501c  246362c8	addui	r3,r3,(_pcbs_LF3)&0xffff
 4924  00005020  00621020	add	r2,r3,r2
 4925  00005024  ac220008	sw	8(r1),r2
 4926  00005028  0c00d550	jal	_printf
 4927  0000502c  54000000	nop; delay slot nop
 4928  00005030  23bd0010	addi	r29,r29,#16
 4929  00005034          	L20_LF3:
 4930  00005034  23bdfff8	addi	r29,r29,#-8
 4931  00005038  001d0820	add	r1,r0,r29
 4932  0000503c  8fc2fff4	lw	r2,-12(r30)
 4933  00005040  20030468	addi	r3,r0,#1128
 4934  00005044  00400035	movi2fp	f0,r2
 4935  00005048  00600835	movi2fp	f1,r3
 4936  0000504c  0401000e	mult	f0,f0,f1
 4937  00005050  00001034	movfp2i	r2,f0
 4938  00005054  3c030001	lhi	r3,((_pcbs_LF3)>>16)&0xffff
 4939  00005058  246362c8	addui	r3,r3,(_pcbs_LF3)&0xffff
 4940  0000505c  00621020	add	r2,r3,r2
 4941  00005060  ac220000	sw	(r1),r2
 4942  00005064  0c005264	jal	_AQueueAllocLink
 4943  00005068  54000000	nop; delay slot nop
 4944  0000506c  23bd0008	addi	r29,r29,#8
 4945  00005070  3c020001	lhi	r2,((_pcbs_LF3)>>16)&0xffff
 4946  00005074  244262c8	addui	r2,r2,(_pcbs_LF3)&0xffff
 4947  00005078  8fc3fff4	lw	r3,-12(r30)
 4948  0000507c  20040468	addi	r4,r0,#1128
 4949  00005080  00600035	movi2fp	f0,r3
 4950  00005084  00800835	movi2fp	f1,r4
 4951  00005088  0401000e	mult	f0,f0,f1
 4952  0000508c  00001834	movfp2i	r3,f0
 4953  00005090  00431020	add	r2,r2,r3
 4954  00005094  ac410464	sw	1124(r2),r1
 4955  00005098  64210000	snei	r1,r1,#0
 4956  0000509c  14200030	bnez	r1,L21_LF3
 4957  000050a0  54000000	nop; delay slot nop
 4958  000050a4  23bdfff8	addi	r29,r29,#-8
 4959  000050a8  001d0820	add	r1,r0,r29
 4960  000050ac  3c020001	lhi	r2,((LC2_LF3)>>16)&0xffff
 4961  000050b0  24425490	addui	r2,r2,(LC2_LF3)&0xffff
 4962  000050b4  ac220000	sw	(r1),r2
 4963  000050b8  0c00d4c0	jal	_printf
 4964  000050bc  54000000	nop; delay slot nop
 4965  000050c0  23bd0008	addi	r29,r29,#8
 4966  000050c4  001d1020	add	r2,r0,r29
 4967  000050c8  0c00d498	jal	_exitsim
 4968  000050cc  54000000	nop; delay slot nop
 4969  000050d0          	L21_LF3:
 4970  000050d0  3c010001	lhi	r1,((_pcbs_LF3)>>16)&0xffff
 4971  000050d4  242162c8	addui	r1,r1,(_pcbs_LF3)&0xffff
 4972  000050d8  8fc2fff4	lw	r2,-12(r30)
 4973  000050dc  20030468	addi	r3,r0,#1128
 4974  000050e0  00400035	movi2fp	f0,r2
 4975  000050e4  00600835	movi2fp	f1,r3
 4976  000050e8  0401000e	mult	f0,f0,f1
 4977  000050ec  00001034	movfp2i	r2,f0
 4978  000050f0  00220820	add	r1,r1,r2
 4979  000050f4  20020001	addi	r2,r0,#1
 4980  000050f8  ac22000c	sw	12(r1),r2
 4981  000050fc  3c010001	lhi	r1,((_pcbs_LF3)>>16)&0xffff
 4982  00005100  242162c8	addui	r1,r1,(_pcbs_LF3)&0xffff
 4983  00005104  8fc2fff4	lw	r2,-12(r30)
 4984  00005108  20030468	addi	r3,r0,#1128
 4985  0000510c  00400035	movi2fp	f0,r2
 4986  00005110  00600835	movi2fp	f1,r3
 4987  00005114  0401000e	mult	f0,f0,f1
 4988  00005118  00001034	movfp2i	r2,f0
 4989  0000511c  00220820	add	r1,r1,r2
 4990  00005120  20020000	addi	r2,r0,#0
 4991  00005124  ac220460	sw	1120(r1),r2
 4992  00005128  20010000	addi	r1,r0,#0
 4993  0000512c  afc1fff0	sw	-16(r30),r1
 4994  00005130          	L22_LF3:
 4995  00005130  8fc1fff0	lw	r1,-16(r30)
 4996  00005134  702200ff	slei	r2,r1,#255
 4997  00005138  1440000c	bnez	r2,L25_LF3
 4998  0000513c  54000000	nop; delay slot nop
 4999  00005140  08000068	j	L23_LF3
 5000  00005144  54000000	nop; delay slot nop
 5001  00005148          	L25_LF3:
 5002  00005148  8fc1fff4	lw	r1,-12(r30)
 5003  0000514c  20030468	addi	r3,r0,#1128
 5004  00005150  00200035	movi2fp	f0,r1
 5005  00005154  00600835	movi2fp	f1,r3
 5006  00005158  0401000e	mult	f0,f0,f1
 5007  0000515c  00001034	movfp2i	r2,f0
 5008  00005160  3c050001	lhi	r5,((_pcbs_LF3)>>16)&0xffff
 5009  00005164  24a562c8	addui	r5,r5,(_pcbs_LF3)&0xffff
 5010  00005168  00450820	add	r1,r2,r5
 5011  0000516c  8fc2fff0	lw	r2,-16(r30)
 5012  00005170  20030004	addi	r3,r0,#4
 5013  00005174  00400035	movi2fp	f0,r2
 5014  00005178  00600835	movi2fp	f1,r3
 5015  0000517c  0401000e	mult	f0,f0,f1
 5016  00005180  00001034	movfp2i	r2,f0
 5017  00005184  00410820	add	r1,r2,r1
 5018  00005188  20220060	addi	r2,r1,#96
 5019  0000518c  20010000	addi	r1,r0,#0
 5020  00005190  ac410000	sw	(r2),r1
 5021  00005194          	L24_LF3:
 5022  00005194  8fc2fff0	lw	r2,-16(r30)
 5023  00005198  20410001	addi	r1,r2,#1
 5024  0000519c  00011020	add	r2,r0,r1
 5025  000051a0  afc2fff0	sw	-16(r30),r2
 5026  000051a4  0bffff88	j	L22_LF3
 5027  000051a8  54000000	nop; delay slot nop
 5028  000051ac          	L23_LF3:
 5029  000051ac  23bdfff8	addi	r29,r29,#-8
 5030  000051b0  001d0820	add	r1,r0,r29
 5031  000051b4  3c020001	lhi	r2,((_freepcbs_LF3)>>16)&0xffff
 5032  000051b8  24426298	addui	r2,r2,(_freepcbs_LF3)&0xffff
 5033  000051bc  ac220000	sw	(r1),r2
 5034  000051c0  8fc2fff4	lw	r2,-12(r30)
 5035  000051c4  20030468	addi	r3,r0,#1128
 5036  000051c8  00400035	movi2fp	f0,r2
 5037  000051cc  00600835	movi2fp	f1,r3
 5038  000051d0  0401000e	mult	f0,f0,f1
 5039  000051d4  00001034	movfp2i	r2,f0
 5040  000051d8  3c050001	lhi	r5,((_pcbs_LF3)>>16)&0xffff
 5041  000051dc  24a562c8	addui	r5,r5,(_pcbs_LF3)&0xffff
 5042  000051e0  00451820	add	r3,r2,r5
 5043  000051e4  8c620464	lw	r2,1124(r3)
 5044  000051e8  ac220004	sw	4(r1),r2
 5045  000051ec  0c005e48	jal	_AQueueInsertFirst
 5046  000051f0  54000000	nop; delay slot nop
 5047  000051f4  23bd0008	addi	r29,r29,#8
 5048  000051f8  64220001	snei	r2,r1,#1
 5049  000051fc  10400030	beqz	r2,L17_LF3
 5050  00005200  54000000	nop; delay slot nop
 5051  00005204  23bdfff8	addi	r29,r29,#-8
 5052  00005208  001d0820	add	r1,r0,r29
 5053  0000520c  3c020001	lhi	r2,((LC3_LF3)>>16)&0xffff
 5054  00005210  244254cc	addui	r2,r2,(LC3_LF3)&0xffff
 5055  00005214  ac220000	sw	(r1),r2
 5056  00005218  0c00d360	jal	_printf
 5057  0000521c  54000000	nop; delay slot nop
 5058  00005220  23bd0008	addi	r29,r29,#8
 5059  00005224  001d1020	add	r2,r0,r29
 5060  00005228  0c00d338	jal	_exitsim
 5061  0000522c  54000000	nop; delay slot nop
 5062  00005230          	L26_LF3:
 5063  00005230          	L17_LF3:
 5064  00005230  8fc2fff4	lw	r2,-12(r30)
 5065  00005234  20410001	addi	r1,r2,#1
 5066  00005238  00011020	add	r2,r0,r1
 5067  0000523c  afc2fff4	sw	-12(r30),r2
 5068  00005240  0bfffcd0	j	L15_LF3
 5069  00005244  54000000	nop; delay slot nop
 5070  00005248          	L16_LF3:
 5071  00005248  3c010001	lhi	r1,((_currentPCB)>>16)&0xffff
 5072  0000524c  24216294	addui	r1,r1,(_currentPCB)&0xffff
 5073  00005250  20020000	addi	r2,r0,#0
 5074  00005254  ac220000	sw	(r1),r2
 5075  00005258  23bdfff8	addi	r29,r29,#-8
 5076  0000525c  001d0820	add	r1,r0,r29
 5077  00005260  3c020001	lhi	r2,((_debugstr)>>16)&0xffff
 5078  00005264  244261cb	addui	r2,r2,(_debugstr)&0xffff
 5079  00005268  ac220000	sw	(r1),r2
 5080  0000526c  20020070	addi	r2,r0,#112
 5081  00005270  ac220004	sw	4(r1),r2
 5082  00005274  0ffff1dc	jal	_dindex
 5083  00005278  54000000	nop; delay slot nop
 5084  0000527c  23bd0008	addi	r29,r29,#8
 5085  00005280  64220000	snei	r2,r1,#0
 5086  00005284  10400024	beqz	r2,L27_LF3
 5087  00005288  54000000	nop; delay slot nop
 5088  0000528c  23bdfff8	addi	r29,r29,#-8
 5089  00005290  001d0820	add	r1,r0,r29
 5090  00005294  3c020001	lhi	r2,((LC4_LF3)>>16)&0xffff
 5091  00005298  24425518	addui	r2,r2,(LC4_LF3)&0xffff
 5092  0000529c  ac220000	sw	(r1),r2
 5093  000052a0  0c00d2d8	jal	_printf
 5094  000052a4  54000000	nop; delay slot nop
 5095  000052a8  23bd0008	addi	r29,r29,#8
 5096  000052ac          	L27_LF3:
 5097  000052ac  23bdfff8	addi	r29,r29,#-8
 5098  000052b0  001d0820	add	r1,r0,r29
 5099  000052b4  3c020001	lhi	r2,((_debugstr)>>16)&0xffff
 5100  000052b8  244261cb	addui	r2,r2,(_debugstr)&0xffff
 5101  000052bc  ac220000	sw	(r1),r2
 5102  000052c0  2002002b	addi	r2,r0,#43
 5103  000052c4  ac220004	sw	4(r1),r2
 5104  000052c8  0ffff188	jal	_dindex
 5105  000052cc  54000000	nop; delay slot nop
 5106  000052d0  23bd0008	addi	r29,r29,#8
 5107  000052d4  64220000	snei	r2,r1,#0
 5108  000052d8  10400024	beqz	r2,L28_LF3
 5109  000052dc  54000000	nop; delay slot nop
 5110  000052e0  23bdfff8	addi	r29,r29,#-8
 5111  000052e4  001d0820	add	r1,r0,r29
 5112  000052e8  3c020001	lhi	r2,((LC4_LF3)>>16)&0xffff
 5113  000052ec  24425518	addui	r2,r2,(LC4_LF3)&0xffff
 5114  000052f0  ac220000	sw	(r1),r2
 5115  000052f4  0c00d284	jal	_printf
 5116  000052f8  54000000	nop; delay slot nop
 5117  000052fc  23bd0008	addi	r29,r29,#8
 5118  00005300          	L28_LF3:
 5119  00005300          	L12_LF3:
 5120  00005300  8fa20000	lw	r2,0(r29)
 5121  00005304  8fa30004	lw	r3,4(r29)
 5122  00005308  8fa40008	lw	r4,8(r29)
 5123  0000530c  8fa5000c	lw	r5,12(r29)
 5124  00005310  8fdffff8	lw	r31,-8(r30)
 5125  00005314  001ee820	add	r29,r0,r30
 5126  00005318  8fdefffc	lw	r30,-4(r30)
 5127  0000531c  4be00000	jr	r31
 5128  00005320  54000000	nop
 5129  00005324          	.endproc _ProcessModuleInit
 5130  00005324          	.align 2
 5131  00005324          	.proc _ProcessSetStatus
 5132  00005324          	.global _ProcessSetStatus
 5133  00005324          	_ProcessSetStatus:
 5134                      ;  Function 'ProcessSetStatus'; 0 bytes of locals, 2 regs to save.
 5135  00005324  afbefffc	sw	-4(r29),r30; push fp
 5136  00005328  001df020	add	r30,r0,r29; fp = sp
 5137  0000532c  afbffff8	sw	-8(r29),r31; push ret addr
 5138  00005330  2fbd0010	subui	r29,r29,#16; alloc local storage
 5139  00005334  afa20000	sw	0(r29),r2
 5140  00005338  afa30004	sw	4(r29),r3
 5141  0000533c  8fc10000	lw	r1,(r30)
 5142  00005340  8fc20000	lw	r2,(r30)
 5143  00005344  8c43000c	lw	r3,12(r2)
 5144  00005348  201fffc0	addi	r31,r0,#-64
 5145  0000534c  007f1024	and	r2,r3,r31
 5146  00005350  ac22000c	sw	12(r1),r2
 5147  00005354  8fc10000	lw	r1,(r30)
 5148  00005358  8fc20000	lw	r2,(r30)
 5149  0000535c  8c43000c	lw	r3,12(r2)
 5150  00005360  8fc20004	lw	r2,4(r30)
 5151  00005364  00621825	or	r3,r3,r2
 5152  00005368  ac23000c	sw	12(r1),r3
 5153  0000536c          	L29_LF3:
 5154  0000536c  8fa20000	lw	r2,0(r29)
 5155  00005370  8fa30004	lw	r3,4(r29)
 5156  00005374  8fdffff8	lw	r31,-8(r30)
 5157  00005378  001ee820	add	r29,r0,r30
 5158  0000537c  8fdefffc	lw	r30,-4(r30)
 5159  00005380  4be00000	jr	r31
 5160  00005384  54000000	nop
 5161  00005388          	.endproc _ProcessSetStatus
 5162  00005388          	.data
 5163  00015533          	.align 2
 5164  00015534          	LC5_LF3:
 5165  00015534  46415441	.ascii "FATAL ERROR: could not get Queue Link in ProcessFreeResources!\n\000"
 5165  00015538  4c204552	
 5165  0001553c  524f523a	
 5165  00015540  20636f75	
 5165  00015544  6c64206e	
 5165  00015548  6f742067	
 5165  0001554c  65742051	
 5165  00015550  75657565	
 5165  00015554  204c696e	
 5165  00015558  6b20696e	
 5165  0001555c  2050726f	
 5165  00015560  63657373	
 5165  00015564  46726565	
 5165  00015568  5265736f	
 5165  0001556c  75726365	
 5165  00015570  73210a00	
 5166  00015574          	.align 2
 5167  00015574          	LC6_LF3:
 5168  00015574  46415441	.ascii "FATAL ERROR: could not insert PCB link into freepcbs queue in ProcessF"
 5168  00015578  4c204552	
 5168  0001557c  524f523a	
 5168  00015580  20636f75	
 5168  00015584  6c64206e	
 5168  00015588  6f742069	
 5168  0001558c  6e736572	
 5168  00015590  74205043	
 5168  00015594  42206c69	
 5168  00015598  6e6b2069	
 5168  0001559c  6e746f20	
 5168  000155a0  66726565	
 5168  000155a4  70636273	
 5168  000155a8  20717565	
 5168  000155ac  75652069	
 5168  000155b0  6e205072	
 5168  000155b4  6f636573	
 5168  000155b8  7346    	
 5169  000155ba  72656552	.ascii "reeResources!\n\000"
 5169  000155be  65736f75	
 5169  000155c2  72636573	
 5169  000155c6  210a00  	
 5170  000155c9          	.align 2
 5171  000155cc          	LC7_LF3:
 5172  000155cc  50726f63	.ascii "ProcessFreeResources: function complete\n\000"
 5172  000155d0  65737346	
 5172  000155d4  72656552	
 5172  000155d8  65736f75	
 5172  000155dc  72636573	
 5172  000155e0  3a206675	
 5172  000155e4  6e637469	
 5172  000155e8  6f6e2063	
 5172  000155ec  6f6d706c	
 5172  000155f0  6574650a	
 5172  000155f4  00      	
 5173  000155f5          	.text
 5174  00005388          	.align 2
 5175  00005388          	.proc _ProcessFreeResources
 5176  00005388          	.global _ProcessFreeResources
 5177  00005388          	_ProcessFreeResources:
 5178                      ;  Function 'ProcessFreeResources'; 8 bytes of locals, 3 regs to save.
 5179  00005388  afbefffc	sw	-4(r29),r30; push fp
 5180  0000538c  001df020	add	r30,r0,r29; fp = sp
 5181  00005390  afbffff8	sw	-8(r29),r31; push ret addr
 5182  00005394  2fbd0020	subui	r29,r29,#32; alloc local storage
 5183  00005398  afa20000	sw	0(r29),r2
 5184  0000539c  afa30004	sw	4(r29),r3
 5185  000053a0  afa40008	sw	8(r29),r4
 5186  000053a4  20010000	addi	r1,r0,#0
 5187  000053a8  afc1fff4	sw	-12(r30),r1
 5188  000053ac  23bdfff8	addi	r29,r29,#-8
 5189  000053b0  001d0820	add	r1,r0,r29
 5190  000053b4  8fc20000	lw	r2,(r30)
 5191  000053b8  ac220000	sw	(r1),r2
 5192  000053bc  0c004f0c	jal	_AQueueAllocLink
 5193  000053c0  54000000	nop; delay slot nop
 5194  000053c4  23bd0008	addi	r29,r29,#8
 5195  000053c8  8fc20000	lw	r2,(r30)
 5196  000053cc  ac410464	sw	1124(r2),r1
 5197  000053d0  64210000	snei	r1,r1,#0
 5198  000053d4  14200030	bnez	r1,L31_LF3
 5199  000053d8  54000000	nop; delay slot nop
 5200  000053dc  23bdfff8	addi	r29,r29,#-8
 5201  000053e0  001d0820	add	r1,r0,r29
 5202  000053e4  3c020001	lhi	r2,((LC5_LF3)>>16)&0xffff
 5203  000053e8  24425534	addui	r2,r2,(LC5_LF3)&0xffff
 5204  000053ec  ac220000	sw	(r1),r2
 5205  000053f0  0c00d188	jal	_printf
 5206  000053f4  54000000	nop; delay slot nop
 5207  000053f8  23bd0008	addi	r29,r29,#8
 5208  000053fc  001d1020	add	r2,r0,r29
 5209  00005400  0c00d160	jal	_exitsim
 5210  00005404  54000000	nop; delay slot nop
 5211  00005408          	L31_LF3:
 5212  00005408  8fc10000	lw	r1,(r30)
 5213  0000540c  20020001	addi	r2,r0,#1
 5214  00005410  ac22000c	sw	12(r1),r2
 5215  00005414  23bdfff8	addi	r29,r29,#-8
 5216  00005418  001d0820	add	r1,r0,r29
 5217  0000541c  3c020001	lhi	r2,((_freepcbs_LF3)>>16)&0xffff
 5218  00005420  24426298	addui	r2,r2,(_freepcbs_LF3)&0xffff
 5219  00005424  ac220000	sw	(r1),r2
 5220  00005428  8fc20000	lw	r2,(r30)
 5221  0000542c  8c430464	lw	r3,1124(r2)
 5222  00005430  ac230004	sw	4(r1),r3
 5223  00005434  0c005cc0	jal	_AQueueInsertLast
 5224  00005438  54000000	nop; delay slot nop
 5225  0000543c  23bd0008	addi	r29,r29,#8
 5226  00005440  64220001	snei	r2,r1,#1
 5227  00005444  10400030	beqz	r2,L32_LF3
 5228  00005448  54000000	nop; delay slot nop
 5229  0000544c  23bdfff8	addi	r29,r29,#-8
 5230  00005450  001d0820	add	r1,r0,r29
 5231  00005454  3c020001	lhi	r2,((LC6_LF3)>>16)&0xffff
 5232  00005458  24425574	addui	r2,r2,(LC6_LF3)&0xffff
 5233  0000545c  ac220000	sw	(r1),r2
 5234  00005460  0c00d118	jal	_printf
 5235  00005464  54000000	nop; delay slot nop
 5236  00005468  23bd0008	addi	r29,r29,#8
 5237  0000546c  001d1020	add	r2,r0,r29
 5238  00005470  0c00d0f0	jal	_exitsim
 5239  00005474  54000000	nop; delay slot nop
 5240  00005478          	L32_LF3:
 5241  00005478  54000000	nop
 5242  0000547c  20010000	addi	r1,r0,#0
 5243  00005480  afc1fff4	sw	-12(r30),r1
 5244  00005484          	L33_LF3:
 5245  00005484  8fc1fff4	lw	r1,-12(r30)
 5246  00005488  702200ff	slei	r2,r1,#255
 5247  0000548c  1440000c	bnez	r2,L36_LF3
 5248  00005490  54000000	nop; delay slot nop
 5249  00005494  0800005c	j	L34_LF3
 5250  00005498  54000000	nop; delay slot nop
 5251  0000549c          	L36_LF3:
 5252  0000549c  23bdfff8	addi	r29,r29,#-8
 5253  000054a0  001d0820	add	r1,r0,r29
 5254  000054a4  8fc20000	lw	r2,(r30)
 5255  000054a8  8fc3fff4	lw	r3,-12(r30)
 5256  000054ac  20040004	addi	r4,r0,#4
 5257  000054b0  00600035	movi2fp	f0,r3
 5258  000054b4  00800835	movi2fp	f1,r4
 5259  000054b8  0401000e	mult	f0,f0,f1
 5260  000054bc  00001834	movfp2i	r3,f0
 5261  000054c0  00621020	add	r2,r3,r2
 5262  000054c4  20430060	addi	r3,r2,#96
 5263  000054c8  8c620000	lw	r2,(r3)
 5264  000054cc  ac220000	sw	(r1),r2
 5265  000054d0  0fffe7e0	jal	_MemoryFreePte
 5266  000054d4  54000000	nop; delay slot nop
 5267  000054d8  23bd0008	addi	r29,r29,#8
 5268  000054dc          	L35_LF3:
 5269  000054dc  8fc2fff4	lw	r2,-12(r30)
 5270  000054e0  20410001	addi	r1,r2,#1
 5271  000054e4  00011020	add	r2,r0,r1
 5272  000054e8  afc2fff4	sw	-12(r30),r2
 5273  000054ec  0bffff94	j	L33_LF3
 5274  000054f0  54000000	nop; delay slot nop
 5275  000054f4          	L34_LF3:
 5276  000054f4  23bdfff8	addi	r29,r29,#-8
 5277  000054f8  001d0820	add	r1,r0,r29
 5278  000054fc  8fc20000	lw	r2,(r30)
 5279  00005500  8c430008	lw	r3,8(r2)
 5280  00005504  5862000c	srli	r2,r3,#0xc
 5281  00005508  ac220000	sw	(r1),r2
 5282  0000550c  0fffe658	jal	_MemoryFreePage
 5283  00005510  54000000	nop; delay slot nop
 5284  00005514  23bd0008	addi	r29,r29,#8
 5285  00005518  23bdfff8	addi	r29,r29,#-8
 5286  0000551c  001d0820	add	r1,r0,r29
 5287  00005520  8fc20000	lw	r2,(r30)
 5288  00005524  ac220000	sw	(r1),r2
 5289  00005528  20020001	addi	r2,r0,#1
 5290  0000552c  ac220004	sw	4(r1),r2
 5291  00005530  0ffffdf0	jal	_ProcessSetStatus
 5292  00005534  54000000	nop; delay slot nop
 5293  00005538  23bd0008	addi	r29,r29,#8
 5294  0000553c  23bdfff8	addi	r29,r29,#-8
 5295  00005540  001d0820	add	r1,r0,r29
 5296  00005544  3c020001	lhi	r2,((_debugstr)>>16)&0xffff
 5297  00005548  244261cb	addui	r2,r2,(_debugstr)&0xffff
 5298  0000554c  ac220000	sw	(r1),r2
 5299  00005550  20020070	addi	r2,r0,#112
 5300  00005554  ac220004	sw	4(r1),r2
 5301  00005558  0fffeef8	jal	_dindex
 5302  0000555c  54000000	nop; delay slot nop
 5303  00005560  23bd0008	addi	r29,r29,#8
 5304  00005564  64220000	snei	r2,r1,#0
 5305  00005568  10400024	beqz	r2,L37_LF3
 5306  0000556c  54000000	nop; delay slot nop
 5307  00005570  23bdfff8	addi	r29,r29,#-8
 5308  00005574  001d0820	add	r1,r0,r29
 5309  00005578  3c020001	lhi	r2,((LC7_LF3)>>16)&0xffff
 5310  0000557c  244255cc	addui	r2,r2,(LC7_LF3)&0xffff
 5311  00005580  ac220000	sw	(r1),r2
 5312  00005584  0c00cff4	jal	_printf
 5313  00005588  54000000	nop; delay slot nop
 5314  0000558c  23bd0008	addi	r29,r29,#8
 5315  00005590          	L37_LF3:
 5316  00005590  23bdfff8	addi	r29,r29,#-8
 5317  00005594  001d0820	add	r1,r0,r29
 5318  00005598  3c020001	lhi	r2,((_debugstr)>>16)&0xffff
 5319  0000559c  244261cb	addui	r2,r2,(_debugstr)&0xffff
 5320  000055a0  ac220000	sw	(r1),r2
 5321  000055a4  2002002b	addi	r2,r0,#43
 5322  000055a8  ac220004	sw	4(r1),r2
 5323  000055ac  0fffeea4	jal	_dindex
 5324  000055b0  54000000	nop; delay slot nop
 5325  000055b4  23bd0008	addi	r29,r29,#8
 5326  000055b8  64220000	snei	r2,r1,#0
 5327  000055bc  10400024	beqz	r2,L38_LF3
 5328  000055c0  54000000	nop; delay slot nop
 5329  000055c4  23bdfff8	addi	r29,r29,#-8
 5330  000055c8  001d0820	add	r1,r0,r29
 5331  000055cc  3c020001	lhi	r2,((LC7_LF3)>>16)&0xffff
 5332  000055d0  244255cc	addui	r2,r2,(LC7_LF3)&0xffff
 5333  000055d4  ac220000	sw	(r1),r2
 5334  000055d8  0c00cfa0	jal	_printf
 5335  000055dc  54000000	nop; delay slot nop
 5336  000055e0  23bd0008	addi	r29,r29,#8
 5337  000055e4          	L38_LF3:
 5338  000055e4          	L30_LF3:
 5339  000055e4  8fa20000	lw	r2,0(r29)
 5340  000055e8  8fa30004	lw	r3,4(r29)
 5341  000055ec  8fa40008	lw	r4,8(r29)
 5342  000055f0  8fdffff8	lw	r31,-8(r30)
 5343  000055f4  001ee820	add	r29,r0,r30
 5344  000055f8  8fdefffc	lw	r30,-4(r30)
 5345  000055fc  4be00000	jr	r31
 5346  00005600  54000000	nop
 5347  00005604          	.endproc _ProcessFreeResources
 5348  00005604          	.align 2
 5349  00005604          	.proc _ProcessSetResult
 5350  00005604          	.global _ProcessSetResult
 5351  00005604          	_ProcessSetResult:
 5352                      ;  Function 'ProcessSetResult'; 0 bytes of locals, 1 regs to save.
 5353  00005604  afbefffc	sw	-4(r29),r30; push fp
 5354  00005608  001df020	add	r30,r0,r29; fp = sp
 5355  0000560c  afbffff8	sw	-8(r29),r31; push ret addr
 5356  00005610  2fbd0010	subui	r29,r29,#16; alloc local storage
 5357  00005614  afa20000	sw	0(r29),r2
 5358  00005618  8fc10000	lw	r1,(r30)
 5359  0000561c  8c220000	lw	r2,(r1)
 5360  00005620  2041002c	addi	r1,r2,#44
 5361  00005624  8fc20004	lw	r2,4(r30)
 5362  00005628  ac220000	sw	(r1),r2
 5363  0000562c          	L39_LF3:
 5364  0000562c  8fa20000	lw	r2,0(r29)
 5365  00005630  8fdffff8	lw	r31,-8(r30)
 5366  00005634  001ee820	add	r29,r0,r30
 5367  00005638  8fdefffc	lw	r30,-4(r30)
 5368  0000563c  4be00000	jr	r31
 5369  00005640  54000000	nop
 5370  00005644          	.endproc _ProcessSetResult
 5371  00005644          	.data
 5372  000155f5          	.align 2
 5373  000155f8          	LC8_LF3:
 5374  000155f8  46415441	.ascii "FATAL ERROR: no runnable processes, but there are sleeping processes w"
 5374  000155fc  4c204552	
 5374  00015600  524f523a	
 5374  00015604  206e6f20	
 5374  00015608  72756e6e	
 5374  0001560c  61626c65	
 5374  00015610  2070726f	
 5374  00015614  63657373	
 5374  00015618  65732c20	
 5374  0001561c  62757420	
 5374  00015620  74686572	
 5374  00015624  65206172	
 5374  00015628  6520736c	
 5374  0001562c  65657069	
 5374  00015630  6e672070	
 5374  00015634  726f6365	
 5374  00015638  73736573	
 5374  0001563c  2077    	
 5375  0001563e  61697469	.ascii "aiting!\n\000"
 5375  00015642  6e67210a	
 5375  00015646  00      	
 5376  00015647          	.align 2
 5377  00015648          	LC9_LF3:
 5378  00015648  536c6565	.ascii "Sleeping process %d: \000"
 5378  0001564c  70696e67	
 5378  00015650  2070726f	
 5378  00015654  63657373	
 5378  00015658  2025643a	
 5378  0001565c  2000    	
 5379  0001565e          	.align 2
 5380  00015660          	LC10_LF3:
 5381  00015660  50494420	.ascii "PID = %d\n\000"
 5381  00015664  3d202564	
 5381  00015668  0a00    	
 5382  0001566a          	.align 2
 5383  0001566c          	LC11_LF3:
 5384  0001566c  4e6f2072	.ascii "No runnable processes - exiting!\n\000"
 5384  00015670  756e6e61	
 5384  00015674  626c6520	
 5384  00015678  70726f63	
 5384  0001567c  65737365	
 5384  00015680  73202d20	
 5384  00015684  65786974	
 5384  00015688  696e6721	
 5384  0001568c  0a00    	
 5385  0001568e          	.align 2
 5386  00015690          	LC12_LF3:
 5387  00015690  41626f75	.ascii "About to switch to PCB 0x%x,flags=0x%x @ 0x%x\n\000"
 5387  00015694  7420746f	
 5387  00015698  20737769	
 5387  0001569c  74636820	
 5387  000156a0  746f2050	
 5387  000156a4  43422030	
 5387  000156a8  7825782c	
 5387  000156ac  666c6167	
 5387  000156b0  733d3078	
 5387  000156b4  25782040	
 5387  000156b8  20307825	
 5387  000156bc  780a00  	
 5388  000156bf          	.align 2
 5389  000156c0          	LC13_LF3:
 5390  000156c0  46726565	.ascii "Freeing zombie PCB 0x%x.\n\000"
 5390  000156c4  696e6720	
 5390  000156c8  7a6f6d62	
 5390  000156cc  69652050	
 5390  000156d0  43422030	
 5390  000156d4  7825782e	
 5390  000156d8  0a00    	
 5391  000156da          	.align 2
 5392  000156dc          	LC14_LF3:
 5393  000156dc  46415441	.ascii "FATAL ERROR: could not remove zombie process from zombieQueue in Proce"
 5393  000156e0  4c204552	
 5393  000156e4  524f523a	
 5393  000156e8  20636f75	
 5393  000156ec  6c64206e	
 5393  000156f0  6f742072	
 5393  000156f4  656d6f76	
 5393  000156f8  65207a6f	
 5393  000156fc  6d626965	
 5393  00015700  2070726f	
 5393  00015704  63657373	
 5393  00015708  2066726f	
 5393  0001570c  6d207a6f	
 5393  00015710  6d626965	
 5393  00015714  51756575	
 5393  00015718  6520696e	
 5393  0001571c  2050726f	
 5393  00015720  6365    	
 5394  00015722  73735363	.ascii "ssSchedule!\n\000"
 5394  00015726  68656475	
 5394  0001572a  6c65210a	
 5394  0001572e  00      	
 5395  0001572f          	.text
 5396  00005644          	.align 2
 5397  00005644          	.proc _ProcessSchedule
 5398  00005644          	.global _ProcessSchedule
 5399  00005644          	_ProcessSchedule:
 5400                      ;  Function 'ProcessSchedule'; 16 bytes of locals, 4 regs to save.
 5401  00005644  afbefffc	sw	-4(r29),r30; push fp
 5402  00005648  001df020	add	r30,r0,r29; fp = sp
 5403  0000564c  afbffff8	sw	-8(r29),r31; push ret addr
 5404  00005650  2fbd0028	subui	r29,r29,#40; alloc local storage
 5405  00005654  afa20000	sw	0(r29),r2
 5406  00005658  afa30004	sw	4(r29),r3
 5407  0000565c  afa40008	sw	8(r29),r4
 5408  00005660  afa5000c	sw	12(r29),r5
 5409  00005664  20010000	addi	r1,r0,#0
 5410  00005668  afc1fff4	sw	-12(r30),r1
 5411  0000566c  20010000	addi	r1,r0,#0
 5412  00005670  afc1fff0	sw	-16(r30),r1
 5413  00005674  20010000	addi	r1,r0,#0
 5414  00005678  afc1ffec	sw	-20(r30),r1
 5415  0000567c  20010000	addi	r1,r0,#0
 5416  00005680  afc1ffe8	sw	-24(r30),r1
 5417  00005684  001d1020	add	r2,r0,r29
 5418  00005688  0c00c580	jal	_DisableIntrs
 5419  0000568c  54000000	nop; delay slot nop
 5420  00005690  afc1ffe8	sw	-24(r30),r1
 5421  00005694  23bdfff8	addi	r29,r29,#-8
 5422  00005698  001d0820	add	r1,r0,r29
 5423  0000569c  3c020001	lhi	r2,((_runQueue_LF3)>>16)&0xffff
 5424  000056a0  244262a4	addui	r2,r2,(_runQueue_LF3)&0xffff
 5425  000056a4  ac220000	sw	(r1),r2
 5426  000056a8  0c005c74	jal	_AQueueEmpty
 5427  000056ac  54000000	nop; delay slot nop
 5428  000056b0  23bd0008	addi	r29,r29,#8
 5429  000056b4  64220000	snei	r2,r1,#0
 5430  000056b8  1040018c	beqz	r2,L41_LF3
 5431  000056bc  54000000	nop; delay slot nop
 5432  000056c0  23bdfff8	addi	r29,r29,#-8
 5433  000056c4  001d0820	add	r1,r0,r29
 5434  000056c8  3c020001	lhi	r2,((_waitQueue_LF3)>>16)&0xffff
 5435  000056cc  244262b0	addui	r2,r2,(_waitQueue_LF3)&0xffff
 5436  000056d0  ac220000	sw	(r1),r2
 5437  000056d4  0c005c48	jal	_AQueueEmpty
 5438  000056d8  54000000	nop; delay slot nop
 5439  000056dc  23bd0008	addi	r29,r29,#8
 5440  000056e0  64220000	snei	r2,r1,#0
 5441  000056e4  14400134	bnez	r2,L42_LF3
 5442  000056e8  54000000	nop; delay slot nop
 5443  000056ec  23bdfff8	addi	r29,r29,#-8
 5444  000056f0  001d0820	add	r1,r0,r29
 5445  000056f4  3c020001	lhi	r2,((LC8_LF3)>>16)&0xffff
 5446  000056f8  244255f8	addui	r2,r2,(LC8_LF3)&0xffff
 5447  000056fc  ac220000	sw	(r1),r2
 5448  00005700  0c00ce78	jal	_printf
 5449  00005704  54000000	nop; delay slot nop
 5450  00005708  23bd0008	addi	r29,r29,#8
 5451  0000570c  23bdfff8	addi	r29,r29,#-8
 5452  00005710  001d0820	add	r1,r0,r29
 5453  00005714  3c020001	lhi	r2,((_waitQueue_LF3)>>16)&0xffff
 5454  00005718  244262b0	addui	r2,r2,(_waitQueue_LF3)&0xffff
 5455  0000571c  ac220000	sw	(r1),r2
 5456  00005720  0c005b0c	jal	_AQueueFirst
 5457  00005724  54000000	nop; delay slot nop
 5458  00005728  23bd0008	addi	r29,r29,#8
 5459  0000572c  afc1ffec	sw	-20(r30),r1
 5460  00005730          	L43_LF3:
 5461  00005730  8fc1ffec	lw	r1,-20(r30)
 5462  00005734  64220000	snei	r2,r1,#0
 5463  00005738  1440000c	bnez	r2,L45_LF3
 5464  0000573c  54000000	nop; delay slot nop
 5465  00005740  080000cc	j	L44_LF3
 5466  00005744  54000000	nop; delay slot nop
 5467  00005748          	L45_LF3:
 5468  00005748  23bdfff8	addi	r29,r29,#-8
 5469  0000574c  001d0820	add	r1,r0,r29
 5470  00005750  8fc2ffec	lw	r2,-20(r30)
 5471  00005754  ac220000	sw	(r1),r2
 5472  00005758  0c005b4c	jal	_AQueueObject
 5473  0000575c  54000000	nop; delay slot nop
 5474  00005760  23bd0008	addi	r29,r29,#8
 5475  00005764  afc1fff4	sw	-12(r30),r1
 5476  00005768  23bdfff8	addi	r29,r29,#-8
 5477  0000576c  001d0820	add	r1,r0,r29
 5478  00005770  3c020001	lhi	r2,((LC9_LF3)>>16)&0xffff
 5479  00005774  24425648	addui	r2,r2,(LC9_LF3)&0xffff
 5480  00005778  ac220000	sw	(r1),r2
 5481  0000577c  8fc2fff0	lw	r2,-16(r30)
 5482  00005780  20430001	addi	r3,r2,#1
 5483  00005784  afc3fff0	sw	-16(r30),r3
 5484  00005788  ac220004	sw	4(r1),r2
 5485  0000578c  0c00cdec	jal	_printf
 5486  00005790  54000000	nop; delay slot nop
 5487  00005794  23bd0008	addi	r29,r29,#8
 5488  00005798  23bdfff8	addi	r29,r29,#-8
 5489  0000579c  001d0820	add	r1,r0,r29
 5490  000057a0  3c020001	lhi	r2,((LC10_LF3)>>16)&0xffff
 5491  000057a4  24425660	addui	r2,r2,(LC10_LF3)&0xffff
 5492  000057a8  ac220000	sw	(r1),r2
 5493  000057ac  8fc3fff4	lw	r3,-12(r30)
 5494  000057b0  3c050001	lhi	r5,((_pcbs_LF3)>>16)&0xffff
 5495  000057b4  24a562c8	addui	r5,r5,(_pcbs_LF3)&0xffff
 5496  000057b8  00651022	sub	r2,r3,r5
 5497  000057bc  3c03cd29	lhi	r3,#-13015
 5498  000057c0  2463c245	addui	r3,r3,#49733
 5499  000057c4  00400035	movi2fp	f0,r2
 5500  000057c8  00600835	movi2fp	f1,r3
 5501  000057cc  0401000e	mult	f0,f0,f1
 5502  000057d0  00001034	movfp2i	r2,f0
 5503  000057d4  5c430003	srai	r3,r2,#0x3
 5504  000057d8  ac230004	sw	4(r1),r3
 5505  000057dc  0c00cd9c	jal	_printf
 5506  000057e0  54000000	nop; delay slot nop
 5507  000057e4  23bd0008	addi	r29,r29,#8
 5508  000057e8  23bdfff8	addi	r29,r29,#-8
 5509  000057ec  001d0820	add	r1,r0,r29
 5510  000057f0  8fc2ffec	lw	r2,-20(r30)
 5511  000057f4  ac220000	sw	(r1),r2
 5512  000057f8  0c0059bc	jal	_AQueueNext
 5513  000057fc  54000000	nop; delay slot nop
 5514  00005800  23bd0008	addi	r29,r29,#8
 5515  00005804  afc1ffec	sw	-20(r30),r1
 5516  00005808  0bffff24	j	L43_LF3
 5517  0000580c  54000000	nop; delay slot nop
 5518  00005810          	L44_LF3:
 5519  00005810  001d1020	add	r2,r0,r29
 5520  00005814  0c00cd4c	jal	_exitsim
 5521  00005818  54000000	nop; delay slot nop
 5522  0000581c          	L42_LF3:
 5523  0000581c  23bdfff8	addi	r29,r29,#-8
 5524  00005820  001d0820	add	r1,r0,r29
 5525  00005824  3c020001	lhi	r2,((LC11_LF3)>>16)&0xffff
 5526  00005828  2442566c	addui	r2,r2,(LC11_LF3)&0xffff
 5527  0000582c  ac220000	sw	(r1),r2
 5528  00005830  0c00cd48	jal	_printf
 5529  00005834  54000000	nop; delay slot nop
 5530  00005838  23bd0008	addi	r29,r29,#8
 5531  0000583c  001d1020	add	r2,r0,r29
 5532  00005840  0c00cd20	jal	_exitsim
 5533  00005844  54000000	nop; delay slot nop
 5534  00005848          	L41_LF3:
 5535  00005848  3c020001	lhi	r2,((_currentPCB)>>16)&0xffff
 5536  0000584c  24426294	addui	r2,r2,(_currentPCB)&0xffff
 5537  00005850  8c410000	lw	r1,(r2)
 5538  00005854  8c22000c	lw	r2,12(r1)
 5539  00005858  30410002	andi	r1,r2,#2
 5540  0000585c  64220000	snei	r2,r1,#0
 5541  00005860  10400070	beqz	r2,L46_LF3
 5542  00005864  54000000	nop; delay slot nop
 5543  00005868  23bdfff8	addi	r29,r29,#-8
 5544  0000586c  001d0820	add	r1,r0,r29
 5545  00005870  3c020001	lhi	r2,((_runQueue_LF3)>>16)&0xffff
 5546  00005874  244262a4	addui	r2,r2,(_runQueue_LF3)&0xffff
 5547  00005878  ac220000	sw	(r1),r2
 5548  0000587c  0c0059ec	jal	_AQueueLast
 5549  00005880  54000000	nop; delay slot nop
 5550  00005884  23bd0008	addi	r29,r29,#8
 5551  00005888  00011020	add	r2,r0,r1
 5552  0000588c  23bdfff8	addi	r29,r29,#-8
 5553  00005890  001d0820	add	r1,r0,r29
 5554  00005894  3c030001	lhi	r3,((_runQueue_LF3)>>16)&0xffff
 5555  00005898  246362a4	addui	r3,r3,(_runQueue_LF3)&0xffff
 5556  0000589c  ac230000	sw	(r1),r3
 5557  000058a0  0c00598c	jal	_AQueueFirst
 5558  000058a4  54000000	nop; delay slot nop
 5559  000058a8  23bd0008	addi	r29,r29,#8
 5560  000058ac  23bdfff0	addi	r29,r29,#-16
 5561  000058b0  001d1820	add	r3,r0,r29
 5562  000058b4  3c040001	lhi	r4,((_runQueue_LF3)>>16)&0xffff
 5563  000058b8  248462a4	addui	r4,r4,(_runQueue_LF3)&0xffff
 5564  000058bc  ac640000	sw	(r3),r4
 5565  000058c0  ac620004	sw	4(r3),r2
 5566  000058c4  ac610008	sw	8(r3),r1
 5567  000058c8  0c0054dc	jal	_AQueueMoveAfter
 5568  000058cc  54000000	nop; delay slot nop
 5569  000058d0  23bd0010	addi	r29,r29,#16
 5570  000058d4          	L46_LF3:
 5571  000058d4  23bdfff8	addi	r29,r29,#-8
 5572  000058d8  001d0820	add	r1,r0,r29
 5573  000058dc  3c020001	lhi	r2,((_runQueue_LF3)>>16)&0xffff
 5574  000058e0  244262a4	addui	r2,r2,(_runQueue_LF3)&0xffff
 5575  000058e4  ac220000	sw	(r1),r2
 5576  000058e8  0c005944	jal	_AQueueFirst
 5577  000058ec  54000000	nop; delay slot nop
 5578  000058f0  23bd0008	addi	r29,r29,#8
 5579  000058f4  23bdfff8	addi	r29,r29,#-8
 5580  000058f8  001d1020	add	r2,r0,r29
 5581  000058fc  ac410000	sw	(r2),r1
 5582  00005900  0c0059a4	jal	_AQueueObject
 5583  00005904  54000000	nop; delay slot nop
 5584  00005908  23bd0008	addi	r29,r29,#8
 5585  0000590c  afc1fff4	sw	-12(r30),r1
 5586  00005910  3c010001	lhi	r1,((_currentPCB)>>16)&0xffff
 5587  00005914  24216294	addui	r1,r1,(_currentPCB)&0xffff
 5588  00005918  8fc2fff4	lw	r2,-12(r30)
 5589  0000591c  ac220000	sw	(r1),r2
 5590  00005920  23bdfff8	addi	r29,r29,#-8
 5591  00005924  001d0820	add	r1,r0,r29
 5592  00005928  3c020001	lhi	r2,((_debugstr)>>16)&0xffff
 5593  0000592c  244261cb	addui	r2,r2,(_debugstr)&0xffff
 5594  00005930  ac220000	sw	(r1),r2
 5595  00005934  20020070	addi	r2,r0,#112
 5596  00005938  ac220004	sw	4(r1),r2
 5597  0000593c  0fffeb14	jal	_dindex
 5598  00005940  54000000	nop; delay slot nop
 5599  00005944  23bd0008	addi	r29,r29,#8
 5600  00005948  64220000	snei	r2,r1,#0
 5601  0000594c  1040004c	beqz	r2,L47_LF3
 5602  00005950  54000000	nop; delay slot nop
 5603  00005954  23bdfff0	addi	r29,r29,#-16
 5604  00005958  001d0820	add	r1,r0,r29
 5605  0000595c  3c020001	lhi	r2,((LC12_LF3)>>16)&0xffff
 5606  00005960  24425690	addui	r2,r2,(LC12_LF3)&0xffff
 5607  00005964  ac220000	sw	(r1),r2
 5608  00005968  8fc2fff4	lw	r2,-12(r30)
 5609  0000596c  ac220004	sw	4(r1),r2
 5610  00005970  8fc2fff4	lw	r2,-12(r30)
 5611  00005974  8c43000c	lw	r3,12(r2)
 5612  00005978  ac230008	sw	8(r1),r3
 5613  0000597c  8fc2fff4	lw	r2,-12(r30)
 5614  00005980  8c430004	lw	r3,4(r2)
 5615  00005984  20620128	addi	r2,r3,#296
 5616  00005988  8c430000	lw	r3,(r2)
 5617  0000598c  ac23000c	sw	12(r1),r3
 5618  00005990  0c00cbe8	jal	_printf
 5619  00005994  54000000	nop; delay slot nop
 5620  00005998  23bd0010	addi	r29,r29,#16
 5621  0000599c          	L47_LF3:
 5622  0000599c  23bdfff8	addi	r29,r29,#-8
 5623  000059a0  001d0820	add	r1,r0,r29
 5624  000059a4  3c020001	lhi	r2,((_debugstr)>>16)&0xffff
 5625  000059a8  244261cb	addui	r2,r2,(_debugstr)&0xffff
 5626  000059ac  ac220000	sw	(r1),r2
 5627  000059b0  2002002b	addi	r2,r0,#43
 5628  000059b4  ac220004	sw	4(r1),r2
 5629  000059b8  0fffea98	jal	_dindex
 5630  000059bc  54000000	nop; delay slot nop
 5631  000059c0  23bd0008	addi	r29,r29,#8
 5632  000059c4  64220000	snei	r2,r1,#0
 5633  000059c8  1040004c	beqz	r2,L48_LF3
 5634  000059cc  54000000	nop; delay slot nop
 5635  000059d0  23bdfff0	addi	r29,r29,#-16
 5636  000059d4  001d0820	add	r1,r0,r29
 5637  000059d8  3c020001	lhi	r2,((LC12_LF3)>>16)&0xffff
 5638  000059dc  24425690	addui	r2,r2,(LC12_LF3)&0xffff
 5639  000059e0  ac220000	sw	(r1),r2
 5640  000059e4  8fc2fff4	lw	r2,-12(r30)
 5641  000059e8  ac220004	sw	4(r1),r2
 5642  000059ec  8fc2fff4	lw	r2,-12(r30)
 5643  000059f0  8c43000c	lw	r3,12(r2)
 5644  000059f4  ac230008	sw	8(r1),r3
 5645  000059f8  8fc2fff4	lw	r2,-12(r30)
 5646  000059fc  8c430004	lw	r3,4(r2)
 5647  00005a00  20620128	addi	r2,r3,#296
 5648  00005a04  8c430000	lw	r3,(r2)
 5649  00005a08  ac23000c	sw	12(r1),r3
 5650  00005a0c  0c00cb6c	jal	_printf
 5651  00005a10  54000000	nop; delay slot nop
 5652  00005a14  23bd0010	addi	r29,r29,#16
 5653  00005a18          	L48_LF3:
 5654  00005a18  54000000	nop
 5655  00005a1c          	L49_LF3:
 5656  00005a1c  23bdfff8	addi	r29,r29,#-8
 5657  00005a20  001d0820	add	r1,r0,r29
 5658  00005a24  3c020001	lhi	r2,((_zombieQueue_LF3)>>16)&0xffff
 5659  00005a28  244262bc	addui	r2,r2,(_zombieQueue_LF3)&0xffff
 5660  00005a2c  ac220000	sw	(r1),r2
 5661  00005a30  0c0058ec	jal	_AQueueEmpty
 5662  00005a34  54000000	nop; delay slot nop
 5663  00005a38  23bd0008	addi	r29,r29,#8
 5664  00005a3c  64220000	snei	r2,r1,#0
 5665  00005a40  1040000c	beqz	r2,L51_LF3
 5666  00005a44  54000000	nop; delay slot nop
 5667  00005a48  08000174	j	L50_LF3
 5668  00005a4c  54000000	nop; delay slot nop
 5669  00005a50          	L51_LF3:
 5670  00005a50  23bdfff8	addi	r29,r29,#-8
 5671  00005a54  001d0820	add	r1,r0,r29
 5672  00005a58  3c020001	lhi	r2,((_zombieQueue_LF3)>>16)&0xffff
 5673  00005a5c  244262bc	addui	r2,r2,(_zombieQueue_LF3)&0xffff
 5674  00005a60  ac220000	sw	(r1),r2
 5675  00005a64  0c0057c8	jal	_AQueueFirst
 5676  00005a68  54000000	nop; delay slot nop
 5677  00005a6c  23bd0008	addi	r29,r29,#8
 5678  00005a70  23bdfff8	addi	r29,r29,#-8
 5679  00005a74  001d1020	add	r2,r0,r29
 5680  00005a78  ac410000	sw	(r2),r1
 5681  00005a7c  0c005828	jal	_AQueueObject
 5682  00005a80  54000000	nop; delay slot nop
 5683  00005a84  23bd0008	addi	r29,r29,#8
 5684  00005a88  afc1fff4	sw	-12(r30),r1
 5685  00005a8c  23bdfff8	addi	r29,r29,#-8
 5686  00005a90  001d0820	add	r1,r0,r29
 5687  00005a94  3c020001	lhi	r2,((_debugstr)>>16)&0xffff
 5688  00005a98  244261cb	addui	r2,r2,(_debugstr)&0xffff
 5689  00005a9c  ac220000	sw	(r1),r2
 5690  00005aa0  20020070	addi	r2,r0,#112
 5691  00005aa4  ac220004	sw	4(r1),r2
 5692  00005aa8  0fffe9a8	jal	_dindex
 5693  00005aac  54000000	nop; delay slot nop
 5694  00005ab0  23bd0008	addi	r29,r29,#8
 5695  00005ab4  64220000	snei	r2,r1,#0
 5696  00005ab8  1040002c	beqz	r2,L52_LF3
 5697  00005abc  54000000	nop; delay slot nop
 5698  00005ac0  23bdfff8	addi	r29,r29,#-8
 5699  00005ac4  001d0820	add	r1,r0,r29
 5700  00005ac8  3c020001	lhi	r2,((LC13_LF3)>>16)&0xffff
 5701  00005acc  244256c0	addui	r2,r2,(LC13_LF3)&0xffff
 5702  00005ad0  ac220000	sw	(r1),r2
 5703  00005ad4  8fc2fff4	lw	r2,-12(r30)
 5704  00005ad8  ac220004	sw	4(r1),r2
 5705  00005adc  0c00ca9c	jal	_printf
 5706  00005ae0  54000000	nop; delay slot nop
 5707  00005ae4  23bd0008	addi	r29,r29,#8
 5708  00005ae8          	L52_LF3:
 5709  00005ae8  23bdfff8	addi	r29,r29,#-8
 5710  00005aec  001d0820	add	r1,r0,r29
 5711  00005af0  3c020001	lhi	r2,((_debugstr)>>16)&0xffff
 5712  00005af4  244261cb	addui	r2,r2,(_debugstr)&0xffff
 5713  00005af8  ac220000	sw	(r1),r2
 5714  00005afc  2002002b	addi	r2,r0,#43
 5715  00005b00  ac220004	sw	4(r1),r2
 5716  00005b04  0fffe94c	jal	_dindex
 5717  00005b08  54000000	nop; delay slot nop
 5718  00005b0c  23bd0008	addi	r29,r29,#8
 5719  00005b10  64220000	snei	r2,r1,#0
 5720  00005b14  1040002c	beqz	r2,L53_LF3
 5721  00005b18  54000000	nop; delay slot nop
 5722  00005b1c  23bdfff8	addi	r29,r29,#-8
 5723  00005b20  001d0820	add	r1,r0,r29
 5724  00005b24  3c020001	lhi	r2,((LC13_LF3)>>16)&0xffff
 5725  00005b28  244256c0	addui	r2,r2,(LC13_LF3)&0xffff
 5726  00005b2c  ac220000	sw	(r1),r2
 5727  00005b30  8fc2fff4	lw	r2,-12(r30)
 5728  00005b34  ac220004	sw	4(r1),r2
 5729  00005b38  0c00ca40	jal	_printf
 5730  00005b3c  54000000	nop; delay slot nop
 5731  00005b40  23bd0008	addi	r29,r29,#8
 5732  00005b44          	L53_LF3:
 5733  00005b44  23bdfff8	addi	r29,r29,#-8
 5734  00005b48  001d0820	add	r1,r0,r29
 5735  00005b4c  8fc2fff4	lw	r2,-12(r30)
 5736  00005b50  20430464	addi	r3,r2,#1124
 5737  00005b54  ac230000	sw	(r1),r3
 5738  00005b58  0c004b30	jal	_AQueueRemove
 5739  00005b5c  54000000	nop; delay slot nop
 5740  00005b60  23bd0008	addi	r29,r29,#8
 5741  00005b64  64220001	snei	r2,r1,#1
 5742  00005b68  10400030	beqz	r2,L54_LF3
 5743  00005b6c  54000000	nop; delay slot nop
 5744  00005b70  23bdfff8	addi	r29,r29,#-8
 5745  00005b74  001d0820	add	r1,r0,r29
 5746  00005b78  3c020001	lhi	r2,((LC14_LF3)>>16)&0xffff
 5747  00005b7c  244256dc	addui	r2,r2,(LC14_LF3)&0xffff
 5748  00005b80  ac220000	sw	(r1),r2
 5749  00005b84  0c00c9f4	jal	_printf
 5750  00005b88  54000000	nop; delay slot nop
 5751  00005b8c  23bd0008	addi	r29,r29,#8
 5752  00005b90  001d1020	add	r2,r0,r29
 5753  00005b94  0c00c9cc	jal	_exitsim
 5754  00005b98  54000000	nop; delay slot nop
 5755  00005b9c          	L54_LF3:
 5756  00005b9c  23bdfff8	addi	r29,r29,#-8
 5757  00005ba0  001d0820	add	r1,r0,r29
 5758  00005ba4  8fc2fff4	lw	r2,-12(r30)
 5759  00005ba8  ac220000	sw	(r1),r2
 5760  00005bac  0ffff7d8	jal	_ProcessFreeResources
 5761  00005bb0  54000000	nop; delay slot nop
 5762  00005bb4  23bd0008	addi	r29,r29,#8
 5763  00005bb8  0bfffe60	j	L49_LF3
 5764  00005bbc  54000000	nop; delay slot nop
 5765  00005bc0          	L50_LF3:
 5766  00005bc0  23bdfff8	addi	r29,r29,#-8
 5767  00005bc4  001d0820	add	r1,r0,r29
 5768  00005bc8  8fc2ffe8	lw	r2,-24(r30)
 5769  00005bcc  ac220000	sw	(r1),r2
 5770  00005bd0  0c00c0e8	jal	_RestoreIntrs
 5771  00005bd4  54000000	nop; delay slot nop
 5772  00005bd8  23bd0008	addi	r29,r29,#8
 5773  00005bdc          	L40_LF3:
 5774  00005bdc  8fa20000	lw	r2,0(r29)
 5775  00005be0  8fa30004	lw	r3,4(r29)
 5776  00005be4  8fa40008	lw	r4,8(r29)
 5777  00005be8  8fa5000c	lw	r5,12(r29)
 5778  00005bec  8fdffff8	lw	r31,-8(r30)
 5779  00005bf0  001ee820	add	r29,r0,r30
 5780  00005bf4  8fdefffc	lw	r30,-4(r30)
 5781  00005bf8  4be00000	jr	r31
 5782  00005bfc  54000000	nop
 5783  00005c00          	.endproc _ProcessSchedule
 5784  00005c00          	.data
 5785  0001572f          	.align 2
 5786  00015730          	LC15_LF3:
 5787  00015730  53757370	.ascii "Suspending PCB 0x%x (%s).\n\000"
 5787  00015734  656e6469	
 5787  00015738  6e672050	
 5787  0001573c  43422030	
 5787  00015740  78257820	
 5787  00015744  28257329	
 5787  00015748  2e0a00  	
 5788  0001574b          	.align 2
 5789  0001574c          	LC16_LF3:
 5790  0001574c  25733a20	.ascii "%s: %s\n\000"
 5790  00015750  25730a00	
 5791  00015754          	.align 2
 5792  00015754          	LC17_LF3:
 5793  00015754  50726f63	.ascii "ProcessSuspend\000"
 5793  00015758  65737353	
 5793  0001575c  75737065	
 5793  00015760  6e6400  	
 5794  00015763          	.align 2
 5795  00015764          	LC18_LF3:
 5796  00015764  54727969	.ascii "Trying to suspend a non-running process!\n\000"
 5796  00015768  6e672074	
 5796  0001576c  6f207375	
 5796  00015770  7370656e	
 5796  00015774  64206120	
 5796  00015778  6e6f6e2d	
 5796  0001577c  72756e6e	
 5796  00015780  696e6720	
 5796  00015784  70726f63	
 5796  00015788  65737321	
 5796  0001578c  0a00    	
 5797  0001578e          	.align 2
 5798  00015790          	LC19_LF3:
 5799  00015790  46415441	.ascii "FATAL ERROR: could not remove process from run Queue in ProcessSuspend"
 5799  00015794  4c204552	
 5799  00015798  524f523a	
 5799  0001579c  20636f75	
 5799  000157a0  6c64206e	
 5799  000157a4  6f742072	
 5799  000157a8  656d6f76	
 5799  000157ac  65207072	
 5799  000157b0  6f636573	
 5799  000157b4  73206672	
 5799  000157b8  6f6d2072	
 5799  000157bc  756e2051	
 5799  000157c0  75657565	
 5799  000157c4  20696e20	
 5799  000157c8  50726f63	
 5799  000157cc  65737353	
 5799  000157d0  75737065	
 5799  000157d4  6e64    	
 5800  000157d6  210a00  	.ascii "!\n\000"
 5801  000157d9          	.align 2
 5802  000157dc          	LC20_LF3:
 5803  000157dc  46415441	.ascii "FATAL ERROR: could not get Queue Link in ProcessSuspend!\n\000"
 5803  000157e0  4c204552	
 5803  000157e4  524f523a	
 5803  000157e8  20636f75	
 5803  000157ec  6c64206e	
 5803  000157f0  6f742067	
 5803  000157f4  65742051	
 5803  000157f8  75657565	
 5803  000157fc  204c696e	
 5803  00015800  6b20696e	
 5803  00015804  2050726f	
 5803  00015808  63657373	
 5803  0001580c  53757370	
 5803  00015810  656e6421	
 5803  00015814  0a00    	
 5804  00015816          	.align 2
 5805  00015818          	LC21_LF3:
 5806  00015818  46415441	.ascii "FATAL ERROR: could not insert suspend PCB into waitQueue!\n\000"
 5806  0001581c  4c204552	
 5806  00015820  524f523a	
 5806  00015824  20636f75	
 5806  00015828  6c64206e	
 5806  0001582c  6f742069	
 5806  00015830  6e736572	
 5806  00015834  74207375	
 5806  00015838  7370656e	
 5806  0001583c  64205043	
 5806  00015840  4220696e	
 5806  00015844  746f2077	
 5806  00015848  61697451	
 5806  0001584c  75657565	
 5806  00015850  210a00  	
 5807  00015853          	.text
 5808  00005c00          	.align 2
 5809  00005c00          	.proc _ProcessSuspend
 5810  00005c00          	.global _ProcessSuspend
 5811  00005c00          	_ProcessSuspend:
 5812                      ;  Function 'ProcessSuspend'; 0 bytes of locals, 2 regs to save.
 5813  00005c00  afbefffc	sw	-4(r29),r30; push fp
 5814  00005c04  001df020	add	r30,r0,r29; fp = sp
 5815  00005c08  afbffff8	sw	-8(r29),r31; push ret addr
 5816  00005c0c  2fbd0010	subui	r29,r29,#16; alloc local storage
 5817  00005c10  afa20000	sw	0(r29),r2
 5818  00005c14  afa30004	sw	4(r29),r3
 5819  00005c18  23bdfff8	addi	r29,r29,#-8
 5820  00005c1c  001d0820	add	r1,r0,r29
 5821  00005c20  3c020001	lhi	r2,((_debugstr)>>16)&0xffff
 5822  00005c24  244261cb	addui	r2,r2,(_debugstr)&0xffff
 5823  00005c28  ac220000	sw	(r1),r2
 5824  00005c2c  20020070	addi	r2,r0,#112
 5825  00005c30  ac220004	sw	4(r1),r2
 5826  00005c34  0fffe81c	jal	_dindex
 5827  00005c38  54000000	nop; delay slot nop
 5828  00005c3c  23bd0008	addi	r29,r29,#8
 5829  00005c40  64220000	snei	r2,r1,#0
 5830  00005c44  10400038	beqz	r2,L56_LF3
 5831  00005c48  54000000	nop; delay slot nop
 5832  00005c4c  23bdfff0	addi	r29,r29,#-16
 5833  00005c50  001d0820	add	r1,r0,r29
 5834  00005c54  3c020001	lhi	r2,((LC15_LF3)>>16)&0xffff
 5835  00005c58  24425730	addui	r2,r2,(LC15_LF3)&0xffff
 5836  00005c5c  ac220000	sw	(r1),r2
 5837  00005c60  8fc20000	lw	r2,(r30)
 5838  00005c64  ac220004	sw	4(r1),r2
 5839  00005c68  8fc20000	lw	r2,(r30)
 5840  00005c6c  20430010	addi	r3,r2,#16
 5841  00005c70  ac230008	sw	8(r1),r3
 5842  00005c74  0c00c904	jal	_printf
 5843  00005c78  54000000	nop; delay slot nop
 5844  00005c7c  23bd0010	addi	r29,r29,#16
 5845  00005c80          	L56_LF3:
 5846  00005c80  23bdfff8	addi	r29,r29,#-8
 5847  00005c84  001d0820	add	r1,r0,r29
 5848  00005c88  3c020001	lhi	r2,((_debugstr)>>16)&0xffff
 5849  00005c8c  244261cb	addui	r2,r2,(_debugstr)&0xffff
 5850  00005c90  ac220000	sw	(r1),r2
 5851  00005c94  2002002b	addi	r2,r0,#43
 5852  00005c98  ac220004	sw	4(r1),r2
 5853  00005c9c  0fffe7b4	jal	_dindex
 5854  00005ca0  54000000	nop; delay slot nop
 5855  00005ca4  23bd0008	addi	r29,r29,#8
 5856  00005ca8  64220000	snei	r2,r1,#0
 5857  00005cac  10400038	beqz	r2,L57_LF3
 5858  00005cb0  54000000	nop; delay slot nop
 5859  00005cb4  23bdfff0	addi	r29,r29,#-16
 5860  00005cb8  001d0820	add	r1,r0,r29
 5861  00005cbc  3c020001	lhi	r2,((LC15_LF3)>>16)&0xffff
 5862  00005cc0  24425730	addui	r2,r2,(LC15_LF3)&0xffff
 5863  00005cc4  ac220000	sw	(r1),r2
 5864  00005cc8  8fc20000	lw	r2,(r30)
 5865  00005ccc  ac220004	sw	4(r1),r2
 5866  00005cd0  8fc20000	lw	r2,(r30)
 5867  00005cd4  20430010	addi	r3,r2,#16
 5868  00005cd8  ac230008	sw	8(r1),r3
 5869  00005cdc  0c00c89c	jal	_printf
 5870  00005ce0  54000000	nop; delay slot nop
 5871  00005ce4  23bd0010	addi	r29,r29,#16
 5872  00005ce8          	L57_LF3:
 5873  00005ce8  8fc10000	lw	r1,(r30)
 5874  00005cec  8c22000c	lw	r2,12(r1)
 5875  00005cf0  30410002	andi	r1,r2,#2
 5876  00005cf4  64220000	snei	r2,r1,#0
 5877  00005cf8  1040000c	beqz	r2,L58_LF3
 5878  00005cfc  54000000	nop; delay slot nop
 5879  00005d00  0800003c	j	L59_LF3
 5880  00005d04  54000000	nop; delay slot nop
 5881  00005d08          	L58_LF3:
 5882  00005d08  23bdfff0	addi	r29,r29,#-16
 5883  00005d0c  001d0820	add	r1,r0,r29
 5884  00005d10  3c020001	lhi	r2,((LC16_LF3)>>16)&0xffff
 5885  00005d14  2442574c	addui	r2,r2,(LC16_LF3)&0xffff
 5886  00005d18  ac220000	sw	(r1),r2
 5887  00005d1c  3c020001	lhi	r2,((LC17_LF3)>>16)&0xffff
 5888  00005d20  24425754	addui	r2,r2,(LC17_LF3)&0xffff
 5889  00005d24  ac220004	sw	4(r1),r2
 5890  00005d28  3c020001	lhi	r2,((LC18_LF3)>>16)&0xffff
 5891  00005d2c  24425764	addui	r2,r2,(LC18_LF3)&0xffff
 5892  00005d30  ac220008	sw	8(r1),r2
 5893  00005d34  0c00c844	jal	_printf
 5894  00005d38  54000000	nop; delay slot nop
 5895  00005d3c  23bd0010	addi	r29,r29,#16
 5896  00005d40          	L59_LF3:
 5897  00005d40  23bdfff8	addi	r29,r29,#-8
 5898  00005d44  001d0820	add	r1,r0,r29
 5899  00005d48  8fc20000	lw	r2,(r30)
 5900  00005d4c  ac220000	sw	(r1),r2
 5901  00005d50  20020004	addi	r2,r0,#4
 5902  00005d54  ac220004	sw	4(r1),r2
 5903  00005d58  0ffff5c8	jal	_ProcessSetStatus
 5904  00005d5c  54000000	nop; delay slot nop
 5905  00005d60  23bd0008	addi	r29,r29,#8
 5906  00005d64  001d1020	add	r2,r0,r29
 5907  00005d68  0c00c424	jal	_ClkResetProcess
 5908  00005d6c  54000000	nop; delay slot nop
 5909  00005d70  23bdfff8	addi	r29,r29,#-8
 5910  00005d74  001d0820	add	r1,r0,r29
 5911  00005d78  8fc20000	lw	r2,(r30)
 5912  00005d7c  20430464	addi	r3,r2,#1124
 5913  00005d80  ac230000	sw	(r1),r3
 5914  00005d84  0c004904	jal	_AQueueRemove
 5915  00005d88  54000000	nop; delay slot nop
 5916  00005d8c  23bd0008	addi	r29,r29,#8
 5917  00005d90  64220001	snei	r2,r1,#1
 5918  00005d94  10400030	beqz	r2,L60_LF3
 5919  00005d98  54000000	nop; delay slot nop
 5920  00005d9c  23bdfff8	addi	r29,r29,#-8
 5921  00005da0  001d0820	add	r1,r0,r29
 5922  00005da4  3c020001	lhi	r2,((LC19_LF3)>>16)&0xffff
 5923  00005da8  24425790	addui	r2,r2,(LC19_LF3)&0xffff
 5924  00005dac  ac220000	sw	(r1),r2
 5925  00005db0  0c00c7c8	jal	_printf
 5926  00005db4  54000000	nop; delay slot nop
 5927  00005db8  23bd0008	addi	r29,r29,#8
 5928  00005dbc  001d1020	add	r2,r0,r29
 5929  00005dc0  0c00c7a0	jal	_exitsim
 5930  00005dc4  54000000	nop; delay slot nop
 5931  00005dc8          	L60_LF3:
 5932  00005dc8  23bdfff8	addi	r29,r29,#-8
 5933  00005dcc  001d0820	add	r1,r0,r29
 5934  00005dd0  8fc20000	lw	r2,(r30)
 5935  00005dd4  ac220000	sw	(r1),r2
 5936  00005dd8  0c0044f0	jal	_AQueueAllocLink
 5937  00005ddc  54000000	nop; delay slot nop
 5938  00005de0  23bd0008	addi	r29,r29,#8
 5939  00005de4  8fc20000	lw	r2,(r30)
 5940  00005de8  ac410464	sw	1124(r2),r1
 5941  00005dec  64210000	snei	r1,r1,#0
 5942  00005df0  14200030	bnez	r1,L61_LF3
 5943  00005df4  54000000	nop; delay slot nop
 5944  00005df8  23bdfff8	addi	r29,r29,#-8
 5945  00005dfc  001d0820	add	r1,r0,r29
 5946  00005e00  3c020001	lhi	r2,((LC20_LF3)>>16)&0xffff
 5947  00005e04  244257dc	addui	r2,r2,(LC20_LF3)&0xffff
 5948  00005e08  ac220000	sw	(r1),r2
 5949  00005e0c  0c00c76c	jal	_printf
 5950  00005e10  54000000	nop; delay slot nop
 5951  00005e14  23bd0008	addi	r29,r29,#8
 5952  00005e18  001d1020	add	r2,r0,r29
 5953  00005e1c  0c00c744	jal	_exitsim
 5954  00005e20  54000000	nop; delay slot nop
 5955  00005e24          	L61_LF3:
 5956  00005e24  23bdfff8	addi	r29,r29,#-8
 5957  00005e28  001d0820	add	r1,r0,r29
 5958  00005e2c  3c020001	lhi	r2,((_waitQueue_LF3)>>16)&0xffff
 5959  00005e30  244262b0	addui	r2,r2,(_waitQueue_LF3)&0xffff
 5960  00005e34  ac220000	sw	(r1),r2
 5961  00005e38  8fc20000	lw	r2,(r30)
 5962  00005e3c  8c430464	lw	r3,1124(r2)
 5963  00005e40  ac230004	sw	4(r1),r3
 5964  00005e44  0c0052b0	jal	_AQueueInsertLast
 5965  00005e48  54000000	nop; delay slot nop
 5966  00005e4c  23bd0008	addi	r29,r29,#8
 5967  00005e50  64220001	snei	r2,r1,#1
 5968  00005e54  10400030	beqz	r2,L62_LF3
 5969  00005e58  54000000	nop; delay slot nop
 5970  00005e5c  23bdfff8	addi	r29,r29,#-8
 5971  00005e60  001d0820	add	r1,r0,r29
 5972  00005e64  3c020001	lhi	r2,((LC21_LF3)>>16)&0xffff
 5973  00005e68  24425818	addui	r2,r2,(LC21_LF3)&0xffff
 5974  00005e6c  ac220000	sw	(r1),r2
 5975  00005e70  0c00c708	jal	_printf
 5976  00005e74  54000000	nop; delay slot nop
 5977  00005e78  23bd0008	addi	r29,r29,#8
 5978  00005e7c  001d1020	add	r2,r0,r29
 5979  00005e80  0c00c6e0	jal	_exitsim
 5980  00005e84  54000000	nop; delay slot nop
 5981  00005e88          	L62_LF3:
 5982  00005e88          	L55_LF3:
 5983  00005e88  8fa20000	lw	r2,0(r29)
 5984  00005e8c  8fa30004	lw	r3,4(r29)
 5985  00005e90  8fdffff8	lw	r31,-8(r30)
 5986  00005e94  001ee820	add	r29,r0,r30
 5987  00005e98  8fdefffc	lw	r30,-4(r30)
 5988  00005e9c  4be00000	jr	r31
 5989  00005ea0  54000000	nop
 5990  00005ea4          	.endproc _ProcessSuspend
 5991  00005ea4          	.data
 5992  00015853          	.align 2
 5993  00015854          	LC22_LF3:
 5994  00015854  57616b69	.ascii "Waking up PID %d.\n\000"
 5994  00015858  6e672075	
 5994  0001585c  70205049	
 5994  00015860  44202564	
 5994  00015864  2e0a00  	
 5995  00015867          	.align 2
 5996  00015868          	LC23_LF3:
 5997  00015868  50726f63	.ascii "ProcessWakeup\000"
 5997  0001586c  65737357	
 5997  00015870  616b6575	
 5997  00015874  7000    	
 5998  00015876          	.align 2
 5999  00015878          	LC24_LF3:
 6000  00015878  54727969	.ascii "Trying to wake up a non-sleeping process!\n\000"
 6000  0001587c  6e672074	
 6000  00015880  6f207761	
 6000  00015884  6b652075	
 6000  00015888  70206120	
 6000  0001588c  6e6f6e2d	
 6000  00015890  736c6565	
 6000  00015894  70696e67	
 6000  00015898  2070726f	
 6000  0001589c  63657373	
 6000  000158a0  210a00  	
 6001  000158a3          	.align 2
 6002  000158a4          	LC25_LF3:
 6003  000158a4  46415441	.ascii "FATAL ERROR: could not remove wakeup PCB from waitQueue in ProcessWake"
 6003  000158a8  4c204552	
 6003  000158ac  524f523a	
 6003  000158b0  20636f75	
 6003  000158b4  6c64206e	
 6003  000158b8  6f742072	
 6003  000158bc  656d6f76	
 6003  000158c0  65207761	
 6003  000158c4  6b657570	
 6003  000158c8  20504342	
 6003  000158cc  2066726f	
 6003  000158d0  6d207761	
 6003  000158d4  69745175	
 6003  000158d8  65756520	
 6003  000158dc  696e2050	
 6003  000158e0  726f6365	
 6003  000158e4  73735761	
 6003  000158e8  6b65    	
 6004  000158ea  7570210a	.ascii "up!\n\000"
 6004  000158ee  00      	
 6005  000158ef          	.align 2
 6006  000158f0          	LC26_LF3:
 6007  000158f0  46415441	.ascii "FATAL ERROR: could not get link for wakeup PCB in ProcessWakeup!\n\000"
 6007  000158f4  4c204552	
 6007  000158f8  524f523a	
 6007  000158fc  20636f75	
 6007  00015900  6c64206e	
 6007  00015904  6f742067	
 6007  00015908  6574206c	
 6007  0001590c  696e6b20	
 6007  00015910  666f7220	
 6007  00015914  77616b65	
 6007  00015918  75702050	
 6007  0001591c  43422069	
 6007  00015920  6e205072	
 6007  00015924  6f636573	
 6007  00015928  7357616b	
 6007  0001592c  65757021	
 6007  00015930  0a00    	
 6008  00015932          	.align 2
 6009  00015934          	LC27_LF3:
 6010  00015934  46415441	.ascii "FATAL ERROR: could not insert link into runQueue in ProcessWakeup!\n\000"
 6010  00015938  4c204552	
 6010  0001593c  524f523a	
 6010  00015940  20636f75	
 6010  00015944  6c64206e	
 6010  00015948  6f742069	
 6010  0001594c  6e736572	
 6010  00015950  74206c69	
 6010  00015954  6e6b2069	
 6010  00015958  6e746f20	
 6010  0001595c  72756e51	
 6010  00015960  75657565	
 6010  00015964  20696e20	
 6010  00015968  50726f63	
 6010  0001596c  65737357	
 6010  00015970  616b6575	
 6010  00015974  70210a00	
 6011  00015978          	.text
 6012  00005ea4          	.align 2
 6013  00005ea4          	.proc _ProcessWakeup
 6014  00005ea4          	.global _ProcessWakeup
 6015  00005ea4          	_ProcessWakeup:
 6016                      ;  Function 'ProcessWakeup'; 0 bytes of locals, 3 regs to save.
 6017  00005ea4  afbefffc	sw	-4(r29),r30; push fp
 6018  00005ea8  001df020	add	r30,r0,r29; fp = sp
 6019  00005eac  afbffff8	sw	-8(r29),r31; push ret addr
 6020  00005eb0  2fbd0018	subui	r29,r29,#24; alloc local storage
 6021  00005eb4  afa20000	sw	0(r29),r2
 6022  00005eb8  afa30004	sw	4(r29),r3
 6023  00005ebc  afa40008	sw	8(r29),r4
 6024  00005ec0  23bdfff8	addi	r29,r29,#-8
 6025  00005ec4  001d0820	add	r1,r0,r29
 6026  00005ec8  3c020001	lhi	r2,((_debugstr)>>16)&0xffff
 6027  00005ecc  244261cb	addui	r2,r2,(_debugstr)&0xffff
 6028  00005ed0  ac220000	sw	(r1),r2
 6029  00005ed4  20020070	addi	r2,r0,#112
 6030  00005ed8  ac220004	sw	4(r1),r2
 6031  00005edc  0fffe574	jal	_dindex
 6032  00005ee0  54000000	nop; delay slot nop
 6033  00005ee4  23bd0008	addi	r29,r29,#8
 6034  00005ee8  64220000	snei	r2,r1,#0
 6035  00005eec  10400054	beqz	r2,L64_LF3
 6036  00005ef0  54000000	nop; delay slot nop
 6037  00005ef4  23bdfff8	addi	r29,r29,#-8
 6038  00005ef8  001d0820	add	r1,r0,r29
 6039  00005efc  3c020001	lhi	r2,((LC22_LF3)>>16)&0xffff
 6040  00005f00  24425854	addui	r2,r2,(LC22_LF3)&0xffff
 6041  00005f04  ac220000	sw	(r1),r2
 6042  00005f08  8fc30000	lw	r3,(r30)
 6043  00005f0c  3c040001	lhi	r4,((_pcbs_LF3)>>16)&0xffff
 6044  00005f10  248462c8	addui	r4,r4,(_pcbs_LF3)&0xffff
 6045  00005f14  00641022	sub	r2,r3,r4
 6046  00005f18  3c03cd29	lhi	r3,#-13015
 6047  00005f1c  2463c245	addui	r3,r3,#49733
 6048  00005f20  00400035	movi2fp	f0,r2
 6049  00005f24  00600835	movi2fp	f1,r3
 6050  00005f28  0401000e	mult	f0,f0,f1
 6051  00005f2c  00001034	movfp2i	r2,f0
 6052  00005f30  5c430003	srai	r3,r2,#0x3
 6053  00005f34  ac230004	sw	4(r1),r3
 6054  00005f38  0c00c640	jal	_printf
 6055  00005f3c  54000000	nop; delay slot nop
 6056  00005f40  23bd0008	addi	r29,r29,#8
 6057  00005f44          	L64_LF3:
 6058  00005f44  23bdfff8	addi	r29,r29,#-8
 6059  00005f48  001d0820	add	r1,r0,r29
 6060  00005f4c  3c020001	lhi	r2,((_debugstr)>>16)&0xffff
 6061  00005f50  244261cb	addui	r2,r2,(_debugstr)&0xffff
 6062  00005f54  ac220000	sw	(r1),r2
 6063  00005f58  2002002b	addi	r2,r0,#43
 6064  00005f5c  ac220004	sw	4(r1),r2
 6065  00005f60  0fffe4f0	jal	_dindex
 6066  00005f64  54000000	nop; delay slot nop
 6067  00005f68  23bd0008	addi	r29,r29,#8
 6068  00005f6c  64220000	snei	r2,r1,#0
 6069  00005f70  10400054	beqz	r2,L65_LF3
 6070  00005f74  54000000	nop; delay slot nop
 6071  00005f78  23bdfff8	addi	r29,r29,#-8
 6072  00005f7c  001d0820	add	r1,r0,r29
 6073  00005f80  3c020001	lhi	r2,((LC22_LF3)>>16)&0xffff
 6074  00005f84  24425854	addui	r2,r2,(LC22_LF3)&0xffff
 6075  00005f88  ac220000	sw	(r1),r2
 6076  00005f8c  8fc30000	lw	r3,(r30)
 6077  00005f90  3c040001	lhi	r4,((_pcbs_LF3)>>16)&0xffff
 6078  00005f94  248462c8	addui	r4,r4,(_pcbs_LF3)&0xffff
 6079  00005f98  00641022	sub	r2,r3,r4
 6080  00005f9c  3c03cd29	lhi	r3,#-13015
 6081  00005fa0  2463c245	addui	r3,r3,#49733
 6082  00005fa4  00400035	movi2fp	f0,r2
 6083  00005fa8  00600835	movi2fp	f1,r3
 6084  00005fac  0401000e	mult	f0,f0,f1
 6085  00005fb0  00001034	movfp2i	r2,f0
 6086  00005fb4  5c430003	srai	r3,r2,#0x3
 6087  00005fb8  ac230004	sw	4(r1),r3
 6088  00005fbc  0c00c5bc	jal	_printf
 6089  00005fc0  54000000	nop; delay slot nop
 6090  00005fc4  23bd0008	addi	r29,r29,#8
 6091  00005fc8          	L65_LF3:
 6092  00005fc8  8fc10000	lw	r1,(r30)
 6093  00005fcc  8c22000c	lw	r2,12(r1)
 6094  00005fd0  30410004	andi	r1,r2,#4
 6095  00005fd4  64220000	snei	r2,r1,#0
 6096  00005fd8  1040000c	beqz	r2,L66_LF3
 6097  00005fdc  54000000	nop; delay slot nop
 6098  00005fe0  0800003c	j	L67_LF3
 6099  00005fe4  54000000	nop; delay slot nop
 6100  00005fe8          	L66_LF3:
 6101  00005fe8  23bdfff0	addi	r29,r29,#-16
 6102  00005fec  001d0820	add	r1,r0,r29
 6103  00005ff0  3c020001	lhi	r2,((LC16_LF3)>>16)&0xffff
 6104  00005ff4  2442574c	addui	r2,r2,(LC16_LF3)&0xffff
 6105  00005ff8  ac220000	sw	(r1),r2
 6106  00005ffc  3c020001	lhi	r2,((LC23_LF3)>>16)&0xffff
 6107  00006000  24425868	addui	r2,r2,(LC23_LF3)&0xffff
 6108  00006004  ac220004	sw	4(r1),r2
 6109  00006008  3c020001	lhi	r2,((LC24_LF3)>>16)&0xffff
 6110  0000600c  24425878	addui	r2,r2,(LC24_LF3)&0xffff
 6111  00006010  ac220008	sw	8(r1),r2
 6112  00006014  0c00c564	jal	_printf
 6113  00006018  54000000	nop; delay slot nop
 6114  0000601c  23bd0010	addi	r29,r29,#16
 6115  00006020          	L67_LF3:
 6116  00006020  23bdfff8	addi	r29,r29,#-8
 6117  00006024  001d0820	add	r1,r0,r29
 6118  00006028  8fc20000	lw	r2,(r30)
 6119  0000602c  ac220000	sw	(r1),r2
 6120  00006030  20020002	addi	r2,r0,#2
 6121  00006034  ac220004	sw	4(r1),r2
 6122  00006038  0ffff2e8	jal	_ProcessSetStatus
 6123  0000603c  54000000	nop; delay slot nop
 6124  00006040  23bd0008	addi	r29,r29,#8
 6125  00006044  23bdfff8	addi	r29,r29,#-8
 6126  00006048  001d0820	add	r1,r0,r29
 6127  0000604c  8fc20000	lw	r2,(r30)
 6128  00006050  20430464	addi	r3,r2,#1124
 6129  00006054  ac230000	sw	(r1),r3
 6130  00006058  0c004630	jal	_AQueueRemove
 6131  0000605c  54000000	nop; delay slot nop
 6132  00006060  23bd0008	addi	r29,r29,#8
 6133  00006064  64220001	snei	r2,r1,#1
 6134  00006068  10400030	beqz	r2,L68_LF3
 6135  0000606c  54000000	nop; delay slot nop
 6136  00006070  23bdfff8	addi	r29,r29,#-8
 6137  00006074  001d0820	add	r1,r0,r29
 6138  00006078  3c020001	lhi	r2,((LC25_LF3)>>16)&0xffff
 6139  0000607c  244258a4	addui	r2,r2,(LC25_LF3)&0xffff
 6140  00006080  ac220000	sw	(r1),r2
 6141  00006084  0c00c4f4	jal	_printf
 6142  00006088  54000000	nop; delay slot nop
 6143  0000608c  23bd0008	addi	r29,r29,#8
 6144  00006090  001d1020	add	r2,r0,r29
 6145  00006094  0c00c4cc	jal	_exitsim
 6146  00006098  54000000	nop; delay slot nop
 6147  0000609c          	L68_LF3:
 6148  0000609c  23bdfff8	addi	r29,r29,#-8
 6149  000060a0  001d0820	add	r1,r0,r29
 6150  000060a4  8fc20000	lw	r2,(r30)
 6151  000060a8  ac220000	sw	(r1),r2
 6152  000060ac  0c00421c	jal	_AQueueAllocLink
 6153  000060b0  54000000	nop; delay slot nop
 6154  000060b4  23bd0008	addi	r29,r29,#8
 6155  000060b8  8fc20000	lw	r2,(r30)
 6156  000060bc  ac410464	sw	1124(r2),r1
 6157  000060c0  64210000	snei	r1,r1,#0
 6158  000060c4  14200030	bnez	r1,L69_LF3
 6159  000060c8  54000000	nop; delay slot nop
 6160  000060cc  23bdfff8	addi	r29,r29,#-8
 6161  000060d0  001d0820	add	r1,r0,r29
 6162  000060d4  3c020001	lhi	r2,((LC26_LF3)>>16)&0xffff
 6163  000060d8  244258f0	addui	r2,r2,(LC26_LF3)&0xffff
 6164  000060dc  ac220000	sw	(r1),r2
 6165  000060e0  0c00c498	jal	_printf
 6166  000060e4  54000000	nop; delay slot nop
 6167  000060e8  23bd0008	addi	r29,r29,#8
 6168  000060ec  001d1020	add	r2,r0,r29
 6169  000060f0  0c00c470	jal	_exitsim
 6170  000060f4  54000000	nop; delay slot nop
 6171  000060f8          	L69_LF3:
 6172  000060f8  23bdfff8	addi	r29,r29,#-8
 6173  000060fc  001d0820	add	r1,r0,r29
 6174  00006100  3c020001	lhi	r2,((_runQueue_LF3)>>16)&0xffff
 6175  00006104  244262a4	addui	r2,r2,(_runQueue_LF3)&0xffff
 6176  00006108  ac220000	sw	(r1),r2
 6177  0000610c  8fc20000	lw	r2,(r30)
 6178  00006110  8c430464	lw	r3,1124(r2)
 6179  00006114  ac230004	sw	4(r1),r3
 6180  00006118  0c004fdc	jal	_AQueueInsertLast
 6181  0000611c  54000000	nop; delay slot nop
 6182  00006120  23bd0008	addi	r29,r29,#8
 6183  00006124  64220001	snei	r2,r1,#1
 6184  00006128  10400030	beqz	r2,L70_LF3
 6185  0000612c  54000000	nop; delay slot nop
 6186  00006130  23bdfff8	addi	r29,r29,#-8
 6187  00006134  001d0820	add	r1,r0,r29
 6188  00006138  3c020001	lhi	r2,((LC27_LF3)>>16)&0xffff
 6189  0000613c  24425934	addui	r2,r2,(LC27_LF3)&0xffff
 6190  00006140  ac220000	sw	(r1),r2
 6191  00006144  0c00c434	jal	_printf
 6192  00006148  54000000	nop; delay slot nop
 6193  0000614c  23bd0008	addi	r29,r29,#8
 6194  00006150  001d1020	add	r2,r0,r29
 6195  00006154  0c00c40c	jal	_exitsim
 6196  00006158  54000000	nop; delay slot nop
 6197  0000615c          	L70_LF3:
 6198  0000615c          	L63_LF3:
 6199  0000615c  8fa20000	lw	r2,0(r29)
 6200  00006160  8fa30004	lw	r3,4(r29)
 6201  00006164  8fa40008	lw	r4,8(r29)
 6202  00006168  8fdffff8	lw	r31,-8(r30)
 6203  0000616c  001ee820	add	r29,r0,r30
 6204  00006170  8fdefffc	lw	r30,-4(r30)
 6205  00006174  4be00000	jr	r31
 6206  00006178  54000000	nop
 6207  0000617c          	.endproc _ProcessWakeup
 6208  0000617c          	.data
 6209  00015978          	.align 2
 6210  00015978          	LC28_LF3:
 6211  00015978  456e7465	.ascii "Entering ProcessDestroy for 0x%x.\n\000"
 6211  0001597c  72696e67	
 6211  00015980  2050726f	
 6211  00015984  63657373	
 6211  00015988  44657374	
 6211  0001598c  726f7920	
 6211  00015990  666f7220	
 6211  00015994  30782578	
 6211  00015998  2e0a00  	
 6212  0001599b          	.align 2
 6213  0001599c          	LC29_LF3:
 6214  0001599c  46415441	.ascii "FATAL ERROR: could not remove link from queue in ProcessDestroy!\n\000"
 6214  000159a0  4c204552	
 6214  000159a4  524f523a	
 6214  000159a8  20636f75	
 6214  000159ac  6c64206e	
 6214  000159b0  6f742072	
 6214  000159b4  656d6f76	
 6214  000159b8  65206c69	
 6214  000159bc  6e6b2066	
 6214  000159c0  726f6d20	
 6214  000159c4  71756575	
 6214  000159c8  6520696e	
 6214  000159cc  2050726f	
 6214  000159d0  63657373	
 6214  000159d4  44657374	
 6214  000159d8  726f7921	
 6214  000159dc  0a00    	
 6215  000159de          	.align 2
 6216  000159e0          	LC30_LF3:
 6217  000159e0  46415441	.ascii "FATAL ERROR: could not get link for zombie PCB in ProcessDestroy!\n\000"
 6217  000159e4  4c204552	
 6217  000159e8  524f523a	
 6217  000159ec  20636f75	
 6217  000159f0  6c64206e	
 6217  000159f4  6f742067	
 6217  000159f8  6574206c	
 6217  000159fc  696e6b20	
 6217  00015a00  666f7220	
 6217  00015a04  7a6f6d62	
 6217  00015a08  69652050	
 6217  00015a0c  43422069	
 6217  00015a10  6e205072	
 6217  00015a14  6f636573	
 6217  00015a18  73446573	
 6217  00015a1c  74726f79	
 6217  00015a20  210a00  	
 6218  00015a23          	.align 2
 6219  00015a24          	LC31_LF3:
 6220  00015a24  4c656176	.ascii "Leaving ProcessDestroy for 0x%x.\n\000"
 6220  00015a28  696e6720	
 6220  00015a2c  50726f63	
 6220  00015a30  65737344	
 6220  00015a34  65737472	
 6220  00015a38  6f792066	
 6220  00015a3c  6f722030	
 6220  00015a40  7825782e	
 6220  00015a44  0a00    	
 6221  00015a46          	.text
 6222  0000617c          	.align 2
 6223  0000617c          	.proc _ProcessDestroy
 6224  0000617c          	.global _ProcessDestroy
 6225  0000617c          	_ProcessDestroy:
 6226                      ;  Function 'ProcessDestroy'; 0 bytes of locals, 2 regs to save.
 6227  0000617c  afbefffc	sw	-4(r29),r30; push fp
 6228  00006180  001df020	add	r30,r0,r29; fp = sp
 6229  00006184  afbffff8	sw	-8(r29),r31; push ret addr
 6230  00006188  2fbd0010	subui	r29,r29,#16; alloc local storage
 6231  0000618c  afa20000	sw	0(r29),r2
 6232  00006190  afa30004	sw	4(r29),r3
 6233  00006194  23bdfff8	addi	r29,r29,#-8
 6234  00006198  001d0820	add	r1,r0,r29
 6235  0000619c  3c020001	lhi	r2,((_debugstr)>>16)&0xffff
 6236  000061a0  244261cb	addui	r2,r2,(_debugstr)&0xffff
 6237  000061a4  ac220000	sw	(r1),r2
 6238  000061a8  20020070	addi	r2,r0,#112
 6239  000061ac  ac220004	sw	4(r1),r2
 6240  000061b0  0fffe2a0	jal	_dindex
 6241  000061b4  54000000	nop; delay slot nop
 6242  000061b8  23bd0008	addi	r29,r29,#8
 6243  000061bc  64220000	snei	r2,r1,#0
 6244  000061c0  1040002c	beqz	r2,L72_LF3
 6245  000061c4  54000000	nop; delay slot nop
 6246  000061c8  23bdfff8	addi	r29,r29,#-8
 6247  000061cc  001d0820	add	r1,r0,r29
 6248  000061d0  3c020001	lhi	r2,((LC28_LF3)>>16)&0xffff
 6249  000061d4  24425978	addui	r2,r2,(LC28_LF3)&0xffff
 6250  000061d8  ac220000	sw	(r1),r2
 6251  000061dc  8fc20000	lw	r2,(r30)
 6252  000061e0  ac220004	sw	4(r1),r2
 6253  000061e4  0c00c394	jal	_printf
 6254  000061e8  54000000	nop; delay slot nop
 6255  000061ec  23bd0008	addi	r29,r29,#8
 6256  000061f0          	L72_LF3:
 6257  000061f0  23bdfff8	addi	r29,r29,#-8
 6258  000061f4  001d0820	add	r1,r0,r29
 6259  000061f8  3c020001	lhi	r2,((_debugstr)>>16)&0xffff
 6260  000061fc  244261cb	addui	r2,r2,(_debugstr)&0xffff
 6261  00006200  ac220000	sw	(r1),r2
 6262  00006204  2002002b	addi	r2,r0,#43
 6263  00006208  ac220004	sw	4(r1),r2
 6264  0000620c  0fffe244	jal	_dindex
 6265  00006210  54000000	nop; delay slot nop
 6266  00006214  23bd0008	addi	r29,r29,#8
 6267  00006218  64220000	snei	r2,r1,#0
 6268  0000621c  1040002c	beqz	r2,L73_LF3
 6269  00006220  54000000	nop; delay slot nop
 6270  00006224  23bdfff8	addi	r29,r29,#-8
 6271  00006228  001d0820	add	r1,r0,r29
 6272  0000622c  3c020001	lhi	r2,((LC28_LF3)>>16)&0xffff
 6273  00006230  24425978	addui	r2,r2,(LC28_LF3)&0xffff
 6274  00006234  ac220000	sw	(r1),r2
 6275  00006238  8fc20000	lw	r2,(r30)
 6276  0000623c  ac220004	sw	4(r1),r2
 6277  00006240  0c00c338	jal	_printf
 6278  00006244  54000000	nop; delay slot nop
 6279  00006248  23bd0008	addi	r29,r29,#8
 6280  0000624c          	L73_LF3:
 6281  0000624c  23bdfff8	addi	r29,r29,#-8
 6282  00006250  001d0820	add	r1,r0,r29
 6283  00006254  8fc20000	lw	r2,(r30)
 6284  00006258  ac220000	sw	(r1),r2
 6285  0000625c  20020010	addi	r2,r0,#16
 6286  00006260  ac220004	sw	4(r1),r2
 6287  00006264  0ffff0bc	jal	_ProcessSetStatus
 6288  00006268  54000000	nop; delay slot nop
 6289  0000626c  23bd0008	addi	r29,r29,#8
 6290  00006270  23bdfff8	addi	r29,r29,#-8
 6291  00006274  001d0820	add	r1,r0,r29
 6292  00006278  8fc20000	lw	r2,(r30)
 6293  0000627c  20430464	addi	r3,r2,#1124
 6294  00006280  ac230000	sw	(r1),r3
 6295  00006284  0c004404	jal	_AQueueRemove
 6296  00006288  54000000	nop; delay slot nop
 6297  0000628c  23bd0008	addi	r29,r29,#8
 6298  00006290  64220001	snei	r2,r1,#1
 6299  00006294  10400030	beqz	r2,L74_LF3
 6300  00006298  54000000	nop; delay slot nop
 6301  0000629c  23bdfff8	addi	r29,r29,#-8
 6302  000062a0  001d0820	add	r1,r0,r29
 6303  000062a4  3c020001	lhi	r2,((LC29_LF3)>>16)&0xffff
 6304  000062a8  2442599c	addui	r2,r2,(LC29_LF3)&0xffff
 6305  000062ac  ac220000	sw	(r1),r2
 6306  000062b0  0c00c2c8	jal	_printf
 6307  000062b4  54000000	nop; delay slot nop
 6308  000062b8  23bd0008	addi	r29,r29,#8
 6309  000062bc  001d1020	add	r2,r0,r29
 6310  000062c0  0c00c2a0	jal	_exitsim
 6311  000062c4  54000000	nop; delay slot nop
 6312  000062c8          	L74_LF3:
 6313  000062c8  23bdfff8	addi	r29,r29,#-8
 6314  000062cc  001d0820	add	r1,r0,r29
 6315  000062d0  8fc20000	lw	r2,(r30)
 6316  000062d4  ac220000	sw	(r1),r2
 6317  000062d8  0c003ff0	jal	_AQueueAllocLink
 6318  000062dc  54000000	nop; delay slot nop
 6319  000062e0  23bd0008	addi	r29,r29,#8
 6320  000062e4  8fc20000	lw	r2,(r30)
 6321  000062e8  ac410464	sw	1124(r2),r1
 6322  000062ec  64210000	snei	r1,r1,#0
 6323  000062f0  14200030	bnez	r1,L75_LF3
 6324  000062f4  54000000	nop; delay slot nop
 6325  000062f8  23bdfff8	addi	r29,r29,#-8
 6326  000062fc  001d0820	add	r1,r0,r29
 6327  00006300  3c020001	lhi	r2,((LC30_LF3)>>16)&0xffff
 6328  00006304  244259e0	addui	r2,r2,(LC30_LF3)&0xffff
 6329  00006308  ac220000	sw	(r1),r2
 6330  0000630c  0c00c26c	jal	_printf
 6331  00006310  54000000	nop; delay slot nop
 6332  00006314  23bd0008	addi	r29,r29,#8
 6333  00006318  001d1020	add	r2,r0,r29
 6334  0000631c  0c00c244	jal	_exitsim
 6335  00006320  54000000	nop; delay slot nop
 6336  00006324          	L75_LF3:
 6337  00006324  23bdfff8	addi	r29,r29,#-8
 6338  00006328  001d0820	add	r1,r0,r29
 6339  0000632c  3c020001	lhi	r2,((_zombieQueue_LF3)>>16)&0xffff
 6340  00006330  244262bc	addui	r2,r2,(_zombieQueue_LF3)&0xffff
 6341  00006334  ac220000	sw	(r1),r2
 6342  00006338  8fc20000	lw	r2,(r30)
 6343  0000633c  8c430464	lw	r3,1124(r2)
 6344  00006340  ac230004	sw	4(r1),r3
 6345  00006344  0c004cf0	jal	_AQueueInsertFirst
 6346  00006348  54000000	nop; delay slot nop
 6347  0000634c  23bd0008	addi	r29,r29,#8
 6348  00006350  64220001	snei	r2,r1,#1
 6349  00006354  10400030	beqz	r2,L76_LF3
 6350  00006358  54000000	nop; delay slot nop
 6351  0000635c  23bdfff8	addi	r29,r29,#-8
 6352  00006360  001d0820	add	r1,r0,r29
 6353  00006364  3c020001	lhi	r2,((LC27_LF3)>>16)&0xffff
 6354  00006368  24425934	addui	r2,r2,(LC27_LF3)&0xffff
 6355  0000636c  ac220000	sw	(r1),r2
 6356  00006370  0c00c208	jal	_printf
 6357  00006374  54000000	nop; delay slot nop
 6358  00006378  23bd0008	addi	r29,r29,#8
 6359  0000637c  001d1020	add	r2,r0,r29
 6360  00006380  0c00c1e0	jal	_exitsim
 6361  00006384  54000000	nop; delay slot nop
 6362  00006388          	L76_LF3:
 6363  00006388  23bdfff8	addi	r29,r29,#-8
 6364  0000638c  001d0820	add	r1,r0,r29
 6365  00006390  3c020001	lhi	r2,((_debugstr)>>16)&0xffff
 6366  00006394  244261cb	addui	r2,r2,(_debugstr)&0xffff
 6367  00006398  ac220000	sw	(r1),r2
 6368  0000639c  20020070	addi	r2,r0,#112
 6369  000063a0  ac220004	sw	4(r1),r2
 6370  000063a4  0fffe0ac	jal	_dindex
 6371  000063a8  54000000	nop; delay slot nop
 6372  000063ac  23bd0008	addi	r29,r29,#8
 6373  000063b0  64220000	snei	r2,r1,#0
 6374  000063b4  1040002c	beqz	r2,L77_LF3
 6375  000063b8  54000000	nop; delay slot nop
 6376  000063bc  23bdfff8	addi	r29,r29,#-8
 6377  000063c0  001d0820	add	r1,r0,r29
 6378  000063c4  3c020001	lhi	r2,((LC31_LF3)>>16)&0xffff
 6379  000063c8  24425a24	addui	r2,r2,(LC31_LF3)&0xffff
 6380  000063cc  ac220000	sw	(r1),r2
 6381  000063d0  8fc20000	lw	r2,(r30)
 6382  000063d4  ac220004	sw	4(r1),r2
 6383  000063d8  0c00c1a0	jal	_printf
 6384  000063dc  54000000	nop; delay slot nop
 6385  000063e0  23bd0008	addi	r29,r29,#8
 6386  000063e4          	L77_LF3:
 6387  000063e4  23bdfff8	addi	r29,r29,#-8
 6388  000063e8  001d0820	add	r1,r0,r29
 6389  000063ec  3c020001	lhi	r2,((_debugstr)>>16)&0xffff
 6390  000063f0  244261cb	addui	r2,r2,(_debugstr)&0xffff
 6391  000063f4  ac220000	sw	(r1),r2
 6392  000063f8  2002002b	addi	r2,r0,#43
 6393  000063fc  ac220004	sw	4(r1),r2
 6394  00006400  0fffe050	jal	_dindex
 6395  00006404  54000000	nop; delay slot nop
 6396  00006408  23bd0008	addi	r29,r29,#8
 6397  0000640c  64220000	snei	r2,r1,#0
 6398  00006410  1040002c	beqz	r2,L78_LF3
 6399  00006414  54000000	nop; delay slot nop
 6400  00006418  23bdfff8	addi	r29,r29,#-8
 6401  0000641c  001d0820	add	r1,r0,r29
 6402  00006420  3c020001	lhi	r2,((LC31_LF3)>>16)&0xffff
 6403  00006424  24425a24	addui	r2,r2,(LC31_LF3)&0xffff
 6404  00006428  ac220000	sw	(r1),r2
 6405  0000642c  8fc20000	lw	r2,(r30)
 6406  00006430  ac220004	sw	4(r1),r2
 6407  00006434  0c00c144	jal	_printf
 6408  00006438  54000000	nop; delay slot nop
 6409  0000643c  23bd0008	addi	r29,r29,#8
 6410  00006440          	L78_LF3:
 6411  00006440          	L71_LF3:
 6412  00006440  8fa20000	lw	r2,0(r29)
 6413  00006444  8fa30004	lw	r3,4(r29)
 6414  00006448  8fdffff8	lw	r31,-8(r30)
 6415  0000644c  001ee820	add	r29,r0,r30
 6416  00006450  8fdefffc	lw	r30,-4(r30)
 6417  00006454  4be00000	jr	r31
 6418  00006458  54000000	nop
 6419  0000645c          	.endproc _ProcessDestroy
 6420  0000645c          	.align 2
 6421  0000645c          	.proc _ProcessExit_LF3
 6422  0000645c          	_ProcessExit_LF3:
 6423                      ;  Function 'ProcessExit'; 0 bytes of locals, 1 regs to save.
 6424  0000645c  afbefffc	sw	-4(r29),r30; push fp
 6425  00006460  001df020	add	r30,r0,r29; fp = sp
 6426  00006464  afbffff8	sw	-8(r29),r31; push ret addr
 6427  00006468  2fbd0010	subui	r29,r29,#16; alloc local storage
 6428  0000646c  afa20000	sw	0(r29),r2
 6429  00006470  001d1020	add	r2,r0,r29
 6430  00006474  0c00c0f8	jal	_exit
 6431  00006478  54000000	nop; delay slot nop
 6432  0000647c          	L79_LF3:
 6433  0000647c  8fa20000	lw	r2,0(r29)
 6434  00006480  8fdffff8	lw	r31,-8(r30)
 6435  00006484  001ee820	add	r29,r0,r30
 6436  00006488  8fdefffc	lw	r30,-4(r30)
 6437  0000648c  4be00000	jr	r31
 6438  00006490  54000000	nop
 6439  00006494          	.endproc _ProcessExit_LF3
 6440  00006494          	.data
 6441  00015a46          	.align 2
 6442  00015a48          	LC32_LF3:
 6443  00015a48  4f6c6420	.ascii "Old interrupt value was 0x%x.\n\000"
 6443  00015a4c  696e7465	
 6443  00015a50  72727570	
 6443  00015a54  74207661	
 6443  00015a58  6c756520	
 6443  00015a5c  77617320	
 6443  00015a60  30782578	
 6443  00015a64  2e0a00  	
 6444  00015a67          	.align 2
 6445  00015a68          	LC33_LF3:
 6446  00015a68  456e7465	.ascii "Entering ProcessFork args=0x%x 0x%x %s %d\n\000"
 6446  00015a6c  72696e67	
 6446  00015a70  2050726f	
 6446  00015a74  63657373	
 6446  00015a78  466f726b	
 6446  00015a7c  20617267	
 6446  00015a80  733d3078	
 6446  00015a84  25782030	
 6446  00015a88  78257820	
 6446  00015a8c  25732025	
 6446  00015a90  640a00  	
 6447  00015a93          	.align 2
 6448  00015a94          	LC34_LF3:
 6449  00015a94  46415441	.ascii "FATAL error: no free processes!\n\000"
 6449  00015a98  4c206572	
 6449  00015a9c  726f723a	
 6449  00015aa0  206e6f20	
 6449  00015aa4  66726565	
 6449  00015aa8  2070726f	
 6449  00015aac  63657373	
 6449  00015ab0  6573210a	
 6449  00015ab4  00      	
 6450  00015ab5          	.align 2
 6451  00015ab8          	LC35_LF3:
 6452  00015ab8  476f7420	.ascii "Got a link @ 0x%x\n\000"
 6452  00015abc  61206c69	
 6452  00015ac0  6e6b2040	
 6452  00015ac4  20307825	
 6452  00015ac8  780a00  	
 6453  00015acb          	.align 2
 6454  00015acc          	LC36_LF3:
 6455  00015acc  46415441	.ascii "FATAL ERROR: could not remove link from freepcbsQueue in ProcessFork!\n"
 6455  00015ad0  4c204552	
 6455  00015ad4  524f523a	
 6455  00015ad8  20636f75	
 6455  00015adc  6c64206e	
 6455  00015ae0  6f742072	
 6455  00015ae4  656d6f76	
 6455  00015ae8  65206c69	
 6455  00015aec  6e6b2066	
 6455  00015af0  726f6d20	
 6455  00015af4  66726565	
 6455  00015af8  70636273	
 6455  00015afc  51756575	
 6455  00015b00  6520696e	
 6455  00015b04  2050726f	
 6455  00015b08  63657373	
 6455  00015b0c  466f726b	
 6455  00015b10  210a    	
 6456  00015b12  00      	.ascii "\000"
 6457  00015b13          	.align 2
 6458  00015b14          	LC37_LF3:
 6459  00015b14  416c6c6f	.ascii "Allocating a new page for the User stack \n\000"
 6459  00015b18  63617469	
 6459  00015b1c  6e672061	
 6459  00015b20  206e6577	
 6459  00015b24  20706167	
 6459  00015b28  6520666f	
 6459  00015b2c  72207468	
 6459  00015b30  65205573	
 6459  00015b34  65722073	
 6459  00015b38  7461636b	
 6459  00015b3c  200a00  	
 6460  00015b3f          	.align 2
 6461  00015b40          	LC38_LF3:
 6462  00015b40  416c6c6f	.ascii "Allocating a new page (%d) for the User Code and global data\n\000"
 6462  00015b44  63617469	
 6462  00015b48  6e672061	
 6462  00015b4c  206e6577	
 6462  00015b50  20706167	
 6462  00015b54  65202825	
 6462  00015b58  64292066	
 6462  00015b5c  6f722074	
 6462  00015b60  68652055	
 6462  00015b64  73657220	
 6462  00015b68  436f6465	
 6462  00015b6c  20616e64	
 6462  00015b70  20676c6f	
 6462  00015b74  62616c20	
 6462  00015b78  64617461	
 6462  00015b7c  0a00    	
 6463  00015b7e          	.align 2
 6464  00015b80          	LC39_LF3:
 6465  00015b80  416c6c6f	.ascii "Allocating a new page (%d) for System Stack\n\000"
 6465  00015b84  63617469	
 6465  00015b88  6e672061	
 6465  00015b8c  206e6577	
 6465  00015b90  20706167	
 6465  00015b94  65202825	
 6465  00015b98  64292066	
 6465  00015b9c  6f722053	
 6465  00015ba0  79737465	
 6465  00015ba4  6d205374	
 6465  00015ba8  61636b0a	
 6465  00015bac  00      	
 6466  00015bad          	.align 2
 6467  00015bb0          	LC40_LF3:
 6468  00015bb0  50726f63	.ascii "ProcessFork: stackframe = 0x%x\n\000"
 6468  00015bb4  65737346	
 6468  00015bb8  6f726b3a	
 6468  00015bbc  20737461	
 6468  00015bc0  636b6672	
 6468  00015bc4  616d6520	
 6468  00015bc8  3d203078	
 6468  00015bcc  25780a00	
 6469  00015bd0          	.align 2
 6470  00015bd0          	LC41_LF3:
 6471  00015bd0  50726f63	.ascii "ProcessFork: setup PTBASE, PTBITS, PTSIZE on current stack frame\n\000"
 6471  00015bd4  65737346	
 6471  00015bd8  6f726b3a	
 6471  00015bdc  20736574	
 6471  00015be0  75702050	
 6471  00015be4  54424153	
 6471  00015be8  452c2050	
 6471  00015bec  54424954	
 6471  00015bf0  532c2050	
 6471  00015bf4  5453495a	
 6471  00015bf8  45206f6e	
 6471  00015bfc  20637572	
 6471  00015c00  72656e74	
 6471  00015c04  20737461	
 6471  00015c08  636b2066	
 6471  00015c0c  72616d65	
 6471  00015c10  0a00    	
 6472  00015c12          	.align 2
 6473  00015c14          	LC42_LF3:
 6474  00015c14  41626f75	.ascii "About to load %s\n\000"
 6474  00015c18  7420746f	
 6474  00015c1c  206c6f61	
 6474  00015c20  64202573	
 6474  00015c24  0a00    	
 6475  00015c26          	.align 2
 6476  00015c28          	LC43_LF3:
 6477  00015c28  46696c65	.ascii "File %s -> start=0x%08x\n\000"
 6477  00015c2c  20257320	
 6477  00015c30  2d3e2073	
 6477  00015c34  74617274	
 6477  00015c38  3d307825	
 6477  00015c3c  3038780a	
 6477  00015c40  00      	
 6478  00015c41          	.align 2
 6479  00015c44          	LC44_LF3:
 6480  00015c44  46696c65	.ascii "File %s -> code @ 0x%08x (size=0x%08x)\n\000"
 6480  00015c48  20257320	
 6480  00015c4c  2d3e2063	
 6480  00015c50  6f646520	
 6480  00015c54  40203078	
 6480  00015c58  25303878	
 6480  00015c5c  20287369	
 6480  00015c60  7a653d30	
 6480  00015c64  78253038	
 6480  00015c68  78290a00	
 6481  00015c6c          	.align 2
 6482  00015c6c          	LC45_LF3:
 6483  00015c6c  46696c65	.ascii "File %s -> data @ 0x%08x (size=0x%08x)\n\000"
 6483  00015c70  20257320	
 6483  00015c74  2d3e2064	
 6483  00015c78  61746120	
 6483  00015c7c  40203078	
 6483  00015c80  25303878	
 6483  00015c84  20287369	
 6483  00015c88  7a653d30	
 6483  00015c8c  78253038	
 6483  00015c90  78290a00	
 6484  00015c94          	.align 2
 6485  00015c94          	LC46_LF3:
 6486  00015c94  506c6163	.ascii "Placing %d bytes at vaddr %08x.\n\000"
 6486  00015c98  696e6720	
 6486  00015c9c  25642062	
 6486  00015ca0  79746573	
 6486  00015ca4  20617420	
 6486  00015ca8  76616464	
 6486  00015cac  72202530	
 6486  00015cb0  38782e0a	
 6486  00015cb4  00      	
 6487  00015cb5          	.align 2
 6488  00015cb8          	LC47_LF3:
 6489  00015cb8  46415441	.ascii "FATAL ERROR: could not get link for forked PCB in ProcessFork!\n\000"
 6489  00015cbc  4c204552	
 6489  00015cc0  524f523a	
 6489  00015cc4  20636f75	
 6489  00015cc8  6c64206e	
 6489  00015ccc  6f742067	
 6489  00015cd0  6574206c	
 6489  00015cd4  696e6b20	
 6489  00015cd8  666f7220	
 6489  00015cdc  666f726b	
 6489  00015ce0  65642050	
 6489  00015ce4  43422069	
 6489  00015ce8  6e205072	
 6489  00015cec  6f636573	
 6489  00015cf0  73466f72	
 6489  00015cf4  6b210a00	
 6490  00015cf8          	.align 2
 6491  00015cf8          	LC48_LF3:
 6492  00015cf8  46415441	.ascii "FATAL ERROR: could not insert link into runQueue in ProcessFork!\n\000"
 6492  00015cfc  4c204552	
 6492  00015d00  524f523a	
 6492  00015d04  20636f75	
 6492  00015d08  6c64206e	
 6492  00015d0c  6f742069	
 6492  00015d10  6e736572	
 6492  00015d14  74206c69	
 6492  00015d18  6e6b2069	
 6492  00015d1c  6e746f20	
 6492  00015d20  72756e51	
 6492  00015d24  75657565	
 6492  00015d28  20696e20	
 6492  00015d2c  50726f63	
 6492  00015d30  65737346	
 6492  00015d34  6f726b21	
 6492  00015d38  0a00    	
 6493  00015d3a          	.align 2
 6494  00015d3c          	LC49_LF3:
 6495  00015d3c  53657474	.ascii "Setting currentPCB=0x%x, stackframe=0x%x\n\000"
 6495  00015d40  696e6720	
 6495  00015d44  63757272	
 6495  00015d48  656e7450	
 6495  00015d4c  43423d30	
 6495  00015d50  7825782c	
 6495  00015d54  20737461	
 6495  00015d58  636b6672	
 6495  00015d5c  616d653d	
 6495  00015d60  30782578	
 6495  00015d64  0a00    	
 6496  00015d66          	.align 2
 6497  00015d68          	LC50_LF3:
 6498  00015d68  4c656176	.ascii "Leaving ProcessFork (%s)\n\000"
 6498  00015d6c  696e6720	
 6498  00015d70  50726f63	
 6498  00015d74  65737346	
 6498  00015d78  6f726b20	
 6498  00015d7c  28257329	
 6498  00015d80  0a00    	
 6499  00015d82          	.text
 6500  00006494          	.align 2
 6501  00006494          	.proc _ProcessFork
 6502  00006494          	.global _ProcessFork
 6503  00006494          	_ProcessFork:
 6504                      ;  Function 'ProcessFork'; 224 bytes of locals, 4 regs to save.
 6505  00006494  afbefffc	sw	-4(r29),r30; push fp
 6506  00006498  001df020	add	r30,r0,r29; fp = sp
 6507  0000649c  afbffff8	sw	-8(r29),r31; push ret addr
 6508  000064a0  2fbd00f8	subui	r29,r29,#248; alloc local storage
 6509  000064a4  afa20000	sw	0(r29),r2
 6510  000064a8  afa30004	sw	4(r29),r3
 6511  000064ac  afa40008	sw	8(r29),r4
 6512  000064b0  afa5000c	sw	12(r29),r5
 6513  000064b4  20010000	addi	r1,r0,#0
 6514  000064b8  afc1ffd4	sw	-44(r30),r1
 6515  000064bc  20010000	addi	r1,r0,#0
 6516  000064c0  afc1ff24	sw	-220(r30),r1
 6517  000064c4  001d1020	add	r2,r0,r29
 6518  000064c8  0c00b740	jal	_DisableIntrs
 6519  000064cc  54000000	nop; delay slot nop
 6520  000064d0  afc1ff5c	sw	-164(r30),r1
 6521  000064d4  23bdfff8	addi	r29,r29,#-8
 6522  000064d8  001d0820	add	r1,r0,r29
 6523  000064dc  3c020001	lhi	r2,((_debugstr)>>16)&0xffff
 6524  000064e0  244261cb	addui	r2,r2,(_debugstr)&0xffff
 6525  000064e4  ac220000	sw	(r1),r2
 6526  000064e8  20020049	addi	r2,r0,#73
 6527  000064ec  ac220004	sw	4(r1),r2
 6528  000064f0  0fffdf60	jal	_dindex
 6529  000064f4  54000000	nop; delay slot nop
 6530  000064f8  23bd0008	addi	r29,r29,#8
 6531  000064fc  64220000	snei	r2,r1,#0
 6532  00006500  1040002c	beqz	r2,L81_LF3
 6533  00006504  54000000	nop; delay slot nop
 6534  00006508  23bdfff8	addi	r29,r29,#-8
 6535  0000650c  001d0820	add	r1,r0,r29
 6536  00006510  3c020001	lhi	r2,((LC32_LF3)>>16)&0xffff
 6537  00006514  24425a48	addui	r2,r2,(LC32_LF3)&0xffff
 6538  00006518  ac220000	sw	(r1),r2
 6539  0000651c  8fc2ff5c	lw	r2,-164(r30)
 6540  00006520  ac220004	sw	4(r1),r2
 6541  00006524  0c00c054	jal	_printf
 6542  00006528  54000000	nop; delay slot nop
 6543  0000652c  23bd0008	addi	r29,r29,#8
 6544  00006530          	L81_LF3:
 6545  00006530  23bdfff8	addi	r29,r29,#-8
 6546  00006534  001d0820	add	r1,r0,r29
 6547  00006538  3c020001	lhi	r2,((_debugstr)>>16)&0xffff
 6548  0000653c  244261cb	addui	r2,r2,(_debugstr)&0xffff
 6549  00006540  ac220000	sw	(r1),r2
 6550  00006544  2002002b	addi	r2,r0,#43
 6551  00006548  ac220004	sw	4(r1),r2
 6552  0000654c  0fffdf04	jal	_dindex
 6553  00006550  54000000	nop; delay slot nop
 6554  00006554  23bd0008	addi	r29,r29,#8
 6555  00006558  64220000	snei	r2,r1,#0
 6556  0000655c  1040002c	beqz	r2,L82_LF3
 6557  00006560  54000000	nop; delay slot nop
 6558  00006564  23bdfff8	addi	r29,r29,#-8
 6559  00006568  001d0820	add	r1,r0,r29
 6560  0000656c  3c020001	lhi	r2,((LC32_LF3)>>16)&0xffff
 6561  00006570  24425a48	addui	r2,r2,(LC32_LF3)&0xffff
 6562  00006574  ac220000	sw	(r1),r2
 6563  00006578  8fc2ff5c	lw	r2,-164(r30)
 6564  0000657c  ac220004	sw	4(r1),r2
 6565  00006580  0c00bff8	jal	_printf
 6566  00006584  54000000	nop; delay slot nop
 6567  00006588  23bd0008	addi	r29,r29,#8
 6568  0000658c          	L82_LF3:
 6569  0000658c  23bdfff8	addi	r29,r29,#-8
 6570  00006590  001d0820	add	r1,r0,r29
 6571  00006594  3c020001	lhi	r2,((_debugstr)>>16)&0xffff
 6572  00006598  244261cb	addui	r2,r2,(_debugstr)&0xffff
 6573  0000659c  ac220000	sw	(r1),r2
 6574  000065a0  20020070	addi	r2,r0,#112
 6575  000065a4  ac220004	sw	4(r1),r2
 6576  000065a8  0fffdea8	jal	_dindex
 6577  000065ac  54000000	nop; delay slot nop
 6578  000065b0  23bd0008	addi	r29,r29,#8
 6579  000065b4  64220000	snei	r2,r1,#0
 6580  000065b8  10400044	beqz	r2,L83_LF3
 6581  000065bc  54000000	nop; delay slot nop
 6582  000065c0  23bdffe8	addi	r29,r29,#-24
 6583  000065c4  001d0820	add	r1,r0,r29
 6584  000065c8  3c020001	lhi	r2,((LC33_LF3)>>16)&0xffff
 6585  000065cc  24425a68	addui	r2,r2,(LC33_LF3)&0xffff
 6586  000065d0  ac220000	sw	(r1),r2
 6587  000065d4  8fc20000	lw	r2,(r30)
 6588  000065d8  ac220004	sw	4(r1),r2
 6589  000065dc  8fc20004	lw	r2,4(r30)
 6590  000065e0  ac220008	sw	8(r1),r2
 6591  000065e4  8fc20008	lw	r2,8(r30)
 6592  000065e8  ac22000c	sw	12(r1),r2
 6593  000065ec  8fc2000c	lw	r2,12(r30)
 6594  000065f0  ac220010	sw	16(r1),r2
 6595  000065f4  0c00bf84	jal	_printf
 6596  000065f8  54000000	nop; delay slot nop
 6597  000065fc  23bd0018	addi	r29,r29,#24
 6598  00006600          	L83_LF3:
 6599  00006600  23bdfff8	addi	r29,r29,#-8
 6600  00006604  001d0820	add	r1,r0,r29
 6601  00006608  3c020001	lhi	r2,((_debugstr)>>16)&0xffff
 6602  0000660c  244261cb	addui	r2,r2,(_debugstr)&0xffff
 6603  00006610  ac220000	sw	(r1),r2
 6604  00006614  2002002b	addi	r2,r0,#43
 6605  00006618  ac220004	sw	4(r1),r2
 6606  0000661c  0fffde34	jal	_dindex
 6607  00006620  54000000	nop; delay slot nop
 6608  00006624  23bd0008	addi	r29,r29,#8
 6609  00006628  64220000	snei	r2,r1,#0
 6610  0000662c  10400044	beqz	r2,L84_LF3
 6611  00006630  54000000	nop; delay slot nop
 6612  00006634  23bdffe8	addi	r29,r29,#-24
 6613  00006638  001d0820	add	r1,r0,r29
 6614  0000663c  3c020001	lhi	r2,((LC33_LF3)>>16)&0xffff
 6615  00006640  24425a68	addui	r2,r2,(LC33_LF3)&0xffff
 6616  00006644  ac220000	sw	(r1),r2
 6617  00006648  8fc20000	lw	r2,(r30)
 6618  0000664c  ac220004	sw	4(r1),r2
 6619  00006650  8fc20004	lw	r2,4(r30)
 6620  00006654  ac220008	sw	8(r1),r2
 6621  00006658  8fc20008	lw	r2,8(r30)
 6622  0000665c  ac22000c	sw	12(r1),r2
 6623  00006660  8fc2000c	lw	r2,12(r30)
 6624  00006664  ac220010	sw	16(r1),r2
 6625  00006668  0c00bf10	jal	_printf
 6626  0000666c  54000000	nop; delay slot nop
 6627  00006670  23bd0018	addi	r29,r29,#24
 6628  00006674          	L84_LF3:
 6629  00006674  23bdfff8	addi	r29,r29,#-8
 6630  00006678  001d0820	add	r1,r0,r29
 6631  0000667c  3c020001	lhi	r2,((_freepcbs_LF3)>>16)&0xffff
 6632  00006680  24426298	addui	r2,r2,(_freepcbs_LF3)&0xffff
 6633  00006684  ac220000	sw	(r1),r2
 6634  00006688  0c004c94	jal	_AQueueEmpty
 6635  0000668c  54000000	nop; delay slot nop
 6636  00006690  23bd0008	addi	r29,r29,#8
 6637  00006694  64220000	snei	r2,r1,#0
 6638  00006698  10400030	beqz	r2,L85_LF3
 6639  0000669c  54000000	nop; delay slot nop
 6640  000066a0  23bdfff8	addi	r29,r29,#-8
 6641  000066a4  001d0820	add	r1,r0,r29
 6642  000066a8  3c020001	lhi	r2,((LC34_LF3)>>16)&0xffff
 6643  000066ac  24425a94	addui	r2,r2,(LC34_LF3)&0xffff
 6644  000066b0  ac220000	sw	(r1),r2
 6645  000066b4  0c00bec4	jal	_printf
 6646  000066b8  54000000	nop; delay slot nop
 6647  000066bc  23bd0008	addi	r29,r29,#8
 6648  000066c0  001d1020	add	r2,r0,r29
 6649  000066c4  0c00be9c	jal	_exitsim
 6650  000066c8  54000000	nop; delay slot nop
 6651  000066cc          	L85_LF3:
 6652  000066cc  23bdfff8	addi	r29,r29,#-8
 6653  000066d0  001d0820	add	r1,r0,r29
 6654  000066d4  3c020001	lhi	r2,((_freepcbs_LF3)>>16)&0xffff
 6655  000066d8  24426298	addui	r2,r2,(_freepcbs_LF3)&0xffff
 6656  000066dc  ac220000	sw	(r1),r2
 6657  000066e0  0c004b4c	jal	_AQueueFirst
 6658  000066e4  54000000	nop; delay slot nop
 6659  000066e8  23bd0008	addi	r29,r29,#8
 6660  000066ec  23bdfff8	addi	r29,r29,#-8
 6661  000066f0  001d1020	add	r2,r0,r29
 6662  000066f4  ac410000	sw	(r2),r1
 6663  000066f8  0c004bac	jal	_AQueueObject
 6664  000066fc  54000000	nop; delay slot nop
 6665  00006700  23bd0008	addi	r29,r29,#8
 6666  00006704  afc1ff60	sw	-160(r30),r1
 6667  00006708  23bdfff8	addi	r29,r29,#-8
 6668  0000670c  001d0820	add	r1,r0,r29
 6669  00006710  3c020001	lhi	r2,((_debugstr)>>16)&0xffff
 6670  00006714  244261cb	addui	r2,r2,(_debugstr)&0xffff
 6671  00006718  ac220000	sw	(r1),r2
 6672  0000671c  20020070	addi	r2,r0,#112
 6673  00006720  ac220004	sw	4(r1),r2
 6674  00006724  0fffdd2c	jal	_dindex
 6675  00006728  54000000	nop; delay slot nop
 6676  0000672c  23bd0008	addi	r29,r29,#8
 6677  00006730  64220000	snei	r2,r1,#0
 6678  00006734  10400030	beqz	r2,L86_LF3
 6679  00006738  54000000	nop; delay slot nop
 6680  0000673c  23bdfff8	addi	r29,r29,#-8
 6681  00006740  001d0820	add	r1,r0,r29
 6682  00006744  3c020001	lhi	r2,((LC35_LF3)>>16)&0xffff
 6683  00006748  24425ab8	addui	r2,r2,(LC35_LF3)&0xffff
 6684  0000674c  ac220000	sw	(r1),r2
 6685  00006750  8fc2ff60	lw	r2,-160(r30)
 6686  00006754  8c430464	lw	r3,1124(r2)
 6687  00006758  ac230004	sw	4(r1),r3
 6688  0000675c  0c00be1c	jal	_printf
 6689  00006760  54000000	nop; delay slot nop
 6690  00006764  23bd0008	addi	r29,r29,#8
 6691  00006768          	L86_LF3:
 6692  00006768  23bdfff8	addi	r29,r29,#-8
 6693  0000676c  001d0820	add	r1,r0,r29
 6694  00006770  3c020001	lhi	r2,((_debugstr)>>16)&0xffff
 6695  00006774  244261cb	addui	r2,r2,(_debugstr)&0xffff
 6696  00006778  ac220000	sw	(r1),r2
 6697  0000677c  2002002b	addi	r2,r0,#43
 6698  00006780  ac220004	sw	4(r1),r2
 6699  00006784  0fffdccc	jal	_dindex
 6700  00006788  54000000	nop; delay slot nop
 6701  0000678c  23bd0008	addi	r29,r29,#8
 6702  00006790  64220000	snei	r2,r1,#0
 6703  00006794  10400030	beqz	r2,L87_LF3
 6704  00006798  54000000	nop; delay slot nop
 6705  0000679c  23bdfff8	addi	r29,r29,#-8
 6706  000067a0  001d0820	add	r1,r0,r29
 6707  000067a4  3c020001	lhi	r2,((LC35_LF3)>>16)&0xffff
 6708  000067a8  24425ab8	addui	r2,r2,(LC35_LF3)&0xffff
 6709  000067ac  ac220000	sw	(r1),r2
 6710  000067b0  8fc2ff60	lw	r2,-160(r30)
 6711  000067b4  8c430464	lw	r3,1124(r2)
 6712  000067b8  ac230004	sw	4(r1),r3
 6713  000067bc  0c00bdbc	jal	_printf
 6714  000067c0  54000000	nop; delay slot nop
 6715  000067c4  23bd0008	addi	r29,r29,#8
 6716  000067c8          	L87_LF3:
 6717  000067c8  23bdfff8	addi	r29,r29,#-8
 6718  000067cc  001d0820	add	r1,r0,r29
 6719  000067d0  8fc2ff60	lw	r2,-160(r30)
 6720  000067d4  20430464	addi	r3,r2,#1124
 6721  000067d8  ac230000	sw	(r1),r3
 6722  000067dc  0c003eac	jal	_AQueueRemove
 6723  000067e0  54000000	nop; delay slot nop
 6724  000067e4  23bd0008	addi	r29,r29,#8
 6725  000067e8  64220001	snei	r2,r1,#1
 6726  000067ec  10400030	beqz	r2,L88_LF3
 6727  000067f0  54000000	nop; delay slot nop
 6728  000067f4  23bdfff8	addi	r29,r29,#-8
 6729  000067f8  001d0820	add	r1,r0,r29
 6730  000067fc  3c020001	lhi	r2,((LC36_LF3)>>16)&0xffff
 6731  00006800  24425acc	addui	r2,r2,(LC36_LF3)&0xffff
 6732  00006804  ac220000	sw	(r1),r2
 6733  00006808  0c00bd70	jal	_printf
 6734  0000680c  54000000	nop; delay slot nop
 6735  00006810  23bd0008	addi	r29,r29,#8
 6736  00006814  001d1020	add	r2,r0,r29
 6737  00006818  0c00bd48	jal	_exitsim
 6738  0000681c  54000000	nop; delay slot nop
 6739  00006820          	L88_LF3:
 6740  00006820  23bdfff8	addi	r29,r29,#-8
 6741  00006824  001d0820	add	r1,r0,r29
 6742  00006828  8fc2ff60	lw	r2,-160(r30)
 6743  0000682c  ac220000	sw	(r1),r2
 6744  00006830  20020002	addi	r2,r0,#2
 6745  00006834  ac220004	sw	4(r1),r2
 6746  00006838  0fffeae8	jal	_ProcessSetStatus
 6747  0000683c  54000000	nop; delay slot nop
 6748  00006840  23bd0008	addi	r29,r29,#8
 6749  00006844  23bdfff8	addi	r29,r29,#-8
 6750  00006848  001d0820	add	r1,r0,r29
 6751  0000684c  8fc2ff5c	lw	r2,-164(r30)
 6752  00006850  ac220000	sw	(r1),r2
 6753  00006854  0c00b464	jal	_RestoreIntrs
 6754  00006858  54000000	nop; delay slot nop
 6755  0000685c  23bd0008	addi	r29,r29,#8
 6756  00006860  23bdfff8	addi	r29,r29,#-8
 6757  00006864  001d0820	add	r1,r0,r29
 6758  00006868  8fc2ff60	lw	r2,-160(r30)
 6759  0000686c  20430010	addi	r3,r2,#16
 6760  00006870  ac230000	sw	(r1),r3
 6761  00006874  8fc20008	lw	r2,8(r30)
 6762  00006878  ac220004	sw	4(r1),r2
 6763  0000687c  0fffd6a4	jal	_dstrcpy
 6764  00006880  54000000	nop; delay slot nop
 6765  00006884  23bd0008	addi	r29,r29,#8
 6766  00006888  23bdfff8	addi	r29,r29,#-8
 6767  0000688c  001d0820	add	r1,r0,r29
 6768  00006890  3c020001	lhi	r2,((_debugstr)>>16)&0xffff
 6769  00006894  244261cb	addui	r2,r2,(_debugstr)&0xffff
 6770  00006898  ac220000	sw	(r1),r2
 6771  0000689c  2002006d	addi	r2,r0,#109
 6772  000068a0  ac220004	sw	4(r1),r2
 6773  000068a4  0fffdbac	jal	_dindex
 6774  000068a8  54000000	nop; delay slot nop
 6775  000068ac  23bd0008	addi	r29,r29,#8
 6776  000068b0  64220000	snei	r2,r1,#0
 6777  000068b4  10400024	beqz	r2,L89_LF3
 6778  000068b8  54000000	nop; delay slot nop
 6779  000068bc  23bdfff8	addi	r29,r29,#-8
 6780  000068c0  001d0820	add	r1,r0,r29
 6781  000068c4  3c020001	lhi	r2,((LC37_LF3)>>16)&0xffff
 6782  000068c8  24425b14	addui	r2,r2,(LC37_LF3)&0xffff
 6783  000068cc  ac220000	sw	(r1),r2
 6784  000068d0  0c00bca8	jal	_printf
 6785  000068d4  54000000	nop; delay slot nop
 6786  000068d8  23bd0008	addi	r29,r29,#8
 6787  000068dc          	L89_LF3:
 6788  000068dc  23bdfff8	addi	r29,r29,#-8
 6789  000068e0  001d0820	add	r1,r0,r29
 6790  000068e4  3c020001	lhi	r2,((_debugstr)>>16)&0xffff
 6791  000068e8  244261cb	addui	r2,r2,(_debugstr)&0xffff
 6792  000068ec  ac220000	sw	(r1),r2
 6793  000068f0  2002002b	addi	r2,r0,#43
 6794  000068f4  ac220004	sw	4(r1),r2
 6795  000068f8  0fffdb58	jal	_dindex
 6796  000068fc  54000000	nop; delay slot nop
 6797  00006900  23bd0008	addi	r29,r29,#8
 6798  00006904  64220000	snei	r2,r1,#0
 6799  00006908  10400024	beqz	r2,L90_LF3
 6800  0000690c  54000000	nop; delay slot nop
 6801  00006910  23bdfff8	addi	r29,r29,#-8
 6802  00006914  001d0820	add	r1,r0,r29
 6803  00006918  3c020001	lhi	r2,((LC37_LF3)>>16)&0xffff
 6804  0000691c  24425b14	addui	r2,r2,(LC37_LF3)&0xffff
 6805  00006920  ac220000	sw	(r1),r2
 6806  00006924  0c00bc54	jal	_printf
 6807  00006928  54000000	nop; delay slot nop
 6808  0000692c  23bd0008	addi	r29,r29,#8
 6809  00006930          	L90_LF3:
 6810  00006930  001d1020	add	r2,r0,r29
 6811  00006934  0fffccac	jal	_MemoryAllocPage
 6812  00006938  54000000	nop; delay slot nop
 6813  0000693c  afc1ff18	sw	-232(r30),r1
 6814  00006940  23bdfff8	addi	r29,r29,#-8
 6815  00006944  001d0820	add	r1,r0,r29
 6816  00006948  8fc2ff18	lw	r2,-232(r30)
 6817  0000694c  ac220000	sw	(r1),r2
 6818  00006950  0fffd124	jal	_MemorySetupPte
 6819  00006954  54000000	nop; delay slot nop
 6820  00006958  23bd0008	addi	r29,r29,#8
 6821  0000695c  8fc2ff60	lw	r2,-160(r30)
 6822  00006960  ac410460	sw	1120(r2),r1
 6823  00006964  20010000	addi	r1,r0,#0
 6824  00006968  afc1fff4	sw	-12(r30),r1
 6825  0000696c          	L91_LF3:
 6826  0000696c  8fc1fff4	lw	r1,-12(r30)
 6827  00006970  70220003	slei	r2,r1,#3
 6828  00006974  1440000c	bnez	r2,L94_LF3
 6829  00006978  54000000	nop; delay slot nop
 6830  0000697c  08000128	j	L92_LF3
 6831  00006980  54000000	nop; delay slot nop
 6832  00006984          	L94_LF3:
 6833  00006984  23bdfff8	addi	r29,r29,#-8
 6834  00006988  001d0820	add	r1,r0,r29
 6835  0000698c  3c020001	lhi	r2,((_debugstr)>>16)&0xffff
 6836  00006990  244261cb	addui	r2,r2,(_debugstr)&0xffff
 6837  00006994  ac220000	sw	(r1),r2
 6838  00006998  2002006d	addi	r2,r0,#109
 6839  0000699c  ac220004	sw	4(r1),r2
 6840  000069a0  0fffdab0	jal	_dindex
 6841  000069a4  54000000	nop; delay slot nop
 6842  000069a8  23bd0008	addi	r29,r29,#8
 6843  000069ac  64220000	snei	r2,r1,#0
 6844  000069b0  1040002c	beqz	r2,L95_LF3
 6845  000069b4  54000000	nop; delay slot nop
 6846  000069b8  23bdfff8	addi	r29,r29,#-8
 6847  000069bc  001d0820	add	r1,r0,r29
 6848  000069c0  3c020001	lhi	r2,((LC38_LF3)>>16)&0xffff
 6849  000069c4  24425b40	addui	r2,r2,(LC38_LF3)&0xffff
 6850  000069c8  ac220000	sw	(r1),r2
 6851  000069cc  8fc2fff4	lw	r2,-12(r30)
 6852  000069d0  ac220004	sw	4(r1),r2
 6853  000069d4  0c00bba4	jal	_printf
 6854  000069d8  54000000	nop; delay slot nop
 6855  000069dc  23bd0008	addi	r29,r29,#8
 6856  000069e0          	L95_LF3:
 6857  000069e0  23bdfff8	addi	r29,r29,#-8
 6858  000069e4  001d0820	add	r1,r0,r29
 6859  000069e8  3c020001	lhi	r2,((_debugstr)>>16)&0xffff
 6860  000069ec  244261cb	addui	r2,r2,(_debugstr)&0xffff
 6861  000069f0  ac220000	sw	(r1),r2
 6862  000069f4  2002002b	addi	r2,r0,#43
 6863  000069f8  ac220004	sw	4(r1),r2
 6864  000069fc  0fffda54	jal	_dindex
 6865  00006a00  54000000	nop; delay slot nop
 6866  00006a04  23bd0008	addi	r29,r29,#8
 6867  00006a08  64220000	snei	r2,r1,#0
 6868  00006a0c  1040002c	beqz	r2,L96_LF3
 6869  00006a10  54000000	nop; delay slot nop
 6870  00006a14  23bdfff8	addi	r29,r29,#-8
 6871  00006a18  001d0820	add	r1,r0,r29
 6872  00006a1c  3c020001	lhi	r2,((LC38_LF3)>>16)&0xffff
 6873  00006a20  24425b40	addui	r2,r2,(LC38_LF3)&0xffff
 6874  00006a24  ac220000	sw	(r1),r2
 6875  00006a28  8fc2fff4	lw	r2,-12(r30)
 6876  00006a2c  ac220004	sw	4(r1),r2
 6877  00006a30  0c00bb48	jal	_printf
 6878  00006a34  54000000	nop; delay slot nop
 6879  00006a38  23bd0008	addi	r29,r29,#8
 6880  00006a3c          	L96_LF3:
 6881  00006a3c  001d1020	add	r2,r0,r29
 6882  00006a40  0fffcba0	jal	_MemoryAllocPage
 6883  00006a44  54000000	nop; delay slot nop
 6884  00006a48  afc1ff18	sw	-232(r30),r1
 6885  00006a4c  23bdfff8	addi	r29,r29,#-8
 6886  00006a50  001d0820	add	r1,r0,r29
 6887  00006a54  8fc2ff18	lw	r2,-232(r30)
 6888  00006a58  ac220000	sw	(r1),r2
 6889  00006a5c  0fffd018	jal	_MemorySetupPte
 6890  00006a60  54000000	nop; delay slot nop
 6891  00006a64  23bd0008	addi	r29,r29,#8
 6892  00006a68  8fc2ff60	lw	r2,-160(r30)
 6893  00006a6c  8fc3fff4	lw	r3,-12(r30)
 6894  00006a70  20040004	addi	r4,r0,#4
 6895  00006a74  00600035	movi2fp	f0,r3
 6896  00006a78  00800835	movi2fp	f1,r4
 6897  00006a7c  0401000e	mult	f0,f0,f1
 6898  00006a80  00001834	movfp2i	r3,f0
 6899  00006a84  00621020	add	r2,r3,r2
 6900  00006a88  20430060	addi	r3,r2,#96
 6901  00006a8c  ac610000	sw	(r3),r1
 6902  00006a90          	L93_LF3:
 6903  00006a90  8fc2fff4	lw	r2,-12(r30)
 6904  00006a94  20410001	addi	r1,r2,#1
 6905  00006a98  00011020	add	r2,r0,r1
 6906  00006a9c  afc2fff4	sw	-12(r30),r2
 6907  00006aa0  0bfffec8	j	L91_LF3
 6908  00006aa4  54000000	nop; delay slot nop
 6909  00006aa8          	L92_LF3:
 6910  00006aa8  8fc1ff60	lw	r1,-160(r30)
 6911  00006aac  20020005	addi	r2,r0,#5
 6912  00006ab0  ac220460	sw	1120(r1),r2
 6913  00006ab4  23bdfff8	addi	r29,r29,#-8
 6914  00006ab8  001d0820	add	r1,r0,r29
 6915  00006abc  3c020001	lhi	r2,((_debugstr)>>16)&0xffff
 6916  00006ac0  244261cb	addui	r2,r2,(_debugstr)&0xffff
 6917  00006ac4  ac220000	sw	(r1),r2
 6918  00006ac8  2002006d	addi	r2,r0,#109
 6919  00006acc  ac220004	sw	4(r1),r2
 6920  00006ad0  0fffd980	jal	_dindex
 6921  00006ad4  54000000	nop; delay slot nop
 6922  00006ad8  23bd0008	addi	r29,r29,#8
 6923  00006adc  64220000	snei	r2,r1,#0
 6924  00006ae0  1040002c	beqz	r2,L97_LF3
 6925  00006ae4  54000000	nop; delay slot nop
 6926  00006ae8  23bdfff8	addi	r29,r29,#-8
 6927  00006aec  001d0820	add	r1,r0,r29
 6928  00006af0  3c020001	lhi	r2,((LC39_LF3)>>16)&0xffff
 6929  00006af4  24425b80	addui	r2,r2,(LC39_LF3)&0xffff
 6930  00006af8  ac220000	sw	(r1),r2
 6931  00006afc  8fc2fff4	lw	r2,-12(r30)
 6932  00006b00  ac220004	sw	4(r1),r2
 6933  00006b04  0c00ba74	jal	_printf
 6934  00006b08  54000000	nop; delay slot nop
 6935  00006b0c  23bd0008	addi	r29,r29,#8
 6936  00006b10          	L97_LF3:
 6937  00006b10  23bdfff8	addi	r29,r29,#-8
 6938  00006b14  001d0820	add	r1,r0,r29
 6939  00006b18  3c020001	lhi	r2,((_debugstr)>>16)&0xffff
 6940  00006b1c  244261cb	addui	r2,r2,(_debugstr)&0xffff
 6941  00006b20  ac220000	sw	(r1),r2
 6942  00006b24  2002002b	addi	r2,r0,#43
 6943  00006b28  ac220004	sw	4(r1),r2
 6944  00006b2c  0fffd924	jal	_dindex
 6945  00006b30  54000000	nop; delay slot nop
 6946  00006b34  23bd0008	addi	r29,r29,#8
 6947  00006b38  64220000	snei	r2,r1,#0
 6948  00006b3c  1040002c	beqz	r2,L98_LF3
 6949  00006b40  54000000	nop; delay slot nop
 6950  00006b44  23bdfff8	addi	r29,r29,#-8
 6951  00006b48  001d0820	add	r1,r0,r29
 6952  00006b4c  3c020001	lhi	r2,((LC39_LF3)>>16)&0xffff
 6953  00006b50  24425b80	addui	r2,r2,(LC39_LF3)&0xffff
 6954  00006b54  ac220000	sw	(r1),r2
 6955  00006b58  8fc2fff4	lw	r2,-12(r30)
 6956  00006b5c  ac220004	sw	4(r1),r2
 6957  00006b60  0c00ba18	jal	_printf
 6958  00006b64  54000000	nop; delay slot nop
 6959  00006b68  23bd0008	addi	r29,r29,#8
 6960  00006b6c          	L98_LF3:
 6961  00006b6c  001d1020	add	r2,r0,r29
 6962  00006b70  0fffca70	jal	_MemoryAllocPage
 6963  00006b74  54000000	nop; delay slot nop
 6964  00006b78  afc1ff18	sw	-232(r30),r1
 6965  00006b7c  8fc1ff60	lw	r1,-160(r30)
 6966  00006b80  8fc2ff18	lw	r2,-232(r30)
 6967  00006b84  00021820	add	r3,r0,r2
 6968  00006b88  5062000c	slli	r2,r3,#0xc
 6969  00006b8c  ac220008	sw	8(r1),r2
 6970  00006b90  8fc1ff60	lw	r1,-160(r30)
 6971  00006b94  8c220008	lw	r2,8(r1)
 6972  00006b98  20410ffc	addi	r1,r2,#4092
 6973  00006b9c  afc1ff64	sw	-156(r30),r1
 6974  00006ba0  8fc1ff64	lw	r1,-156(r30)
 6975  00006ba4  2022feac	addi	r2,r1,#-340
 6976  00006ba8  afc2ff64	sw	-156(r30),r2
 6977  00006bac  8fc1ff60	lw	r1,-160(r30)
 6978  00006bb0  8fc2ff64	lw	r2,-156(r30)
 6979  00006bb4  ac220004	sw	4(r1),r2
 6980  00006bb8  8fc1ff60	lw	r1,-160(r30)
 6981  00006bbc  8fc2ff64	lw	r2,-156(r30)
 6982  00006bc0  ac220000	sw	(r1),r2
 6983  00006bc4  23bdfff8	addi	r29,r29,#-8
 6984  00006bc8  001d0820	add	r1,r0,r29
 6985  00006bcc  3c020001	lhi	r2,((_debugstr)>>16)&0xffff
 6986  00006bd0  244261cb	addui	r2,r2,(_debugstr)&0xffff
 6987  00006bd4  ac220000	sw	(r1),r2
 6988  00006bd8  2002006d	addi	r2,r0,#109
 6989  00006bdc  ac220004	sw	4(r1),r2
 6990  00006be0  0fffd870	jal	_dindex
 6991  00006be4  54000000	nop; delay slot nop
 6992  00006be8  23bd0008	addi	r29,r29,#8
 6993  00006bec  64220000	snei	r2,r1,#0
 6994  00006bf0  1040002c	beqz	r2,L99_LF3
 6995  00006bf4  54000000	nop; delay slot nop
 6996  00006bf8  23bdfff8	addi	r29,r29,#-8
 6997  00006bfc  001d0820	add	r1,r0,r29
 6998  00006c00  3c020001	lhi	r2,((LC40_LF3)>>16)&0xffff
 6999  00006c04  24425bb0	addui	r2,r2,(LC40_LF3)&0xffff
 7000  00006c08  ac220000	sw	(r1),r2
 7001  00006c0c  8fc2ff64	lw	r2,-156(r30)
 7002  00006c10  ac220004	sw	4(r1),r2
 7003  00006c14  0c00b964	jal	_printf
 7004  00006c18  54000000	nop; delay slot nop
 7005  00006c1c  23bd0008	addi	r29,r29,#8
 7006  00006c20          	L99_LF3:
 7007  00006c20  23bdfff8	addi	r29,r29,#-8
 7008  00006c24  001d0820	add	r1,r0,r29
 7009  00006c28  3c020001	lhi	r2,((_debugstr)>>16)&0xffff
 7010  00006c2c  244261cb	addui	r2,r2,(_debugstr)&0xffff
 7011  00006c30  ac220000	sw	(r1),r2
 7012  00006c34  2002002b	addi	r2,r0,#43
 7013  00006c38  ac220004	sw	4(r1),r2
 7014  00006c3c  0fffd814	jal	_dindex
 7015  00006c40  54000000	nop; delay slot nop
 7016  00006c44  23bd0008	addi	r29,r29,#8
 7017  00006c48  64220000	snei	r2,r1,#0
 7018  00006c4c  1040002c	beqz	r2,L100_LF3
 7019  00006c50  54000000	nop; delay slot nop
 7020  00006c54  23bdfff8	addi	r29,r29,#-8
 7021  00006c58  001d0820	add	r1,r0,r29
 7022  00006c5c  3c020001	lhi	r2,((LC40_LF3)>>16)&0xffff
 7023  00006c60  24425bb0	addui	r2,r2,(LC40_LF3)&0xffff
 7024  00006c64  ac220000	sw	(r1),r2
 7025  00006c68  8fc2ff64	lw	r2,-156(r30)
 7026  00006c6c  ac220004	sw	4(r1),r2
 7027  00006c70  0c00b908	jal	_printf
 7028  00006c74  54000000	nop; delay slot nop
 7029  00006c78  23bd0008	addi	r29,r29,#8
 7030  00006c7c          	L100_LF3:
 7031  00006c7c  8fc2ff64	lw	r2,-156(r30)
 7032  00006c80  20410028	addi	r1,r2,#40
 7033  00006c84  20020000	addi	r2,r0,#0
 7034  00006c88  ac220000	sw	(r1),r2
 7035  00006c8c  23bdfff8	addi	r29,r29,#-8
 7036  00006c90  001d0820	add	r1,r0,r29
 7037  00006c94  3c020001	lhi	r2,((_debugstr)>>16)&0xffff
 7038  00006c98  244261cb	addui	r2,r2,(_debugstr)&0xffff
 7039  00006c9c  ac220000	sw	(r1),r2
 7040  00006ca0  2002006d	addi	r2,r0,#109
 7041  00006ca4  ac220004	sw	4(r1),r2
 7042  00006ca8  0fffd7a8	jal	_dindex
 7043  00006cac  54000000	nop; delay slot nop
 7044  00006cb0  23bd0008	addi	r29,r29,#8
 7045  00006cb4  64220000	snei	r2,r1,#0
 7046  00006cb8  10400024	beqz	r2,L101_LF3
 7047  00006cbc  54000000	nop; delay slot nop
 7048  00006cc0  23bdfff8	addi	r29,r29,#-8
 7049  00006cc4  001d0820	add	r1,r0,r29
 7050  00006cc8  3c020001	lhi	r2,((LC41_LF3)>>16)&0xffff
 7051  00006ccc  24425bd0	addui	r2,r2,(LC41_LF3)&0xffff
 7052  00006cd0  ac220000	sw	(r1),r2
 7053  00006cd4  0c00b8a4	jal	_printf
 7054  00006cd8  54000000	nop; delay slot nop
 7055  00006cdc  23bd0008	addi	r29,r29,#8
 7056  00006ce0          	L101_LF3:
 7057  00006ce0  23bdfff8	addi	r29,r29,#-8
 7058  00006ce4  001d0820	add	r1,r0,r29
 7059  00006ce8  3c020001	lhi	r2,((_debugstr)>>16)&0xffff
 7060  00006cec  244261cb	addui	r2,r2,(_debugstr)&0xffff
 7061  00006cf0  ac220000	sw	(r1),r2
 7062  00006cf4  2002002b	addi	r2,r0,#43
 7063  00006cf8  ac220004	sw	4(r1),r2
 7064  00006cfc  0fffd754	jal	_dindex
 7065  00006d00  54000000	nop; delay slot nop
 7066  00006d04  23bd0008	addi	r29,r29,#8
 7067  00006d08  64220000	snei	r2,r1,#0
 7068  00006d0c  10400024	beqz	r2,L102_LF3
 7069  00006d10  54000000	nop; delay slot nop
 7070  00006d14  23bdfff8	addi	r29,r29,#-8
 7071  00006d18  001d0820	add	r1,r0,r29
 7072  00006d1c  3c020001	lhi	r2,((LC41_LF3)>>16)&0xffff
 7073  00006d20  24425bd0	addui	r2,r2,(LC41_LF3)&0xffff
 7074  00006d24  ac220000	sw	(r1),r2
 7075  00006d28  0c00b850	jal	_printf
 7076  00006d2c  54000000	nop; delay slot nop
 7077  00006d30  23bd0008	addi	r29,r29,#8
 7078  00006d34          	L102_LF3:
 7079  00006d34  8fc2ff64	lw	r2,-156(r30)
 7080  00006d38  20410138	addi	r1,r2,#312
 7081  00006d3c  8fc2ff60	lw	r2,-160(r30)
 7082  00006d40  20430060	addi	r3,r2,#96
 7083  00006d44  ac230000	sw	(r1),r3
 7084  00006d48  8fc2ff64	lw	r2,-156(r30)
 7085  00006d4c  2041013c	addi	r1,r2,#316
 7086  00006d50  20020100	addi	r2,r0,#256
 7087  00006d54  ac220000	sw	(r1),r2
 7088  00006d58  8fc2ff64	lw	r2,-156(r30)
 7089  00006d5c  20410140	addi	r1,r2,#320
 7090  00006d60  3c02000c	lhi	r2,#12
 7091  00006d64  2442000c	addui	r2,r2,#12
 7092  00006d68  ac220000	sw	(r1),r2
 7093  00006d6c  8fc1000c	lw	r1,12(r30)
 7094  00006d70  64220000	snei	r2,r1,#0
 7095  00006d74  10400774	beqz	r2,L103_LF3
 7096  00006d78  54000000	nop; delay slot nop
 7097  00006d7c  23bdfff8	addi	r29,r29,#-8
 7098  00006d80  001d0820	add	r1,r0,r29
 7099  00006d84  3c020001	lhi	r2,((_debugstr)>>16)&0xffff
 7100  00006d88  244261cb	addui	r2,r2,(_debugstr)&0xffff
 7101  00006d8c  ac220000	sw	(r1),r2
 7102  00006d90  20020070	addi	r2,r0,#112
 7103  00006d94  ac220004	sw	4(r1),r2
 7104  00006d98  0fffd6b8	jal	_dindex
 7105  00006d9c  54000000	nop; delay slot nop
 7106  00006da0  23bd0008	addi	r29,r29,#8
 7107  00006da4  64220000	snei	r2,r1,#0
 7108  00006da8  1040002c	beqz	r2,L104_LF3
 7109  00006dac  54000000	nop; delay slot nop
 7110  00006db0  23bdfff8	addi	r29,r29,#-8
 7111  00006db4  001d0820	add	r1,r0,r29
 7112  00006db8  3c020001	lhi	r2,((LC42_LF3)>>16)&0xffff
 7113  00006dbc  24425c14	addui	r2,r2,(LC42_LF3)&0xffff
 7114  00006dc0  ac220000	sw	(r1),r2
 7115  00006dc4  8fc20008	lw	r2,8(r30)
 7116  00006dc8  ac220004	sw	4(r1),r2
 7117  00006dcc  0c00b7ac	jal	_printf
 7118  00006dd0  54000000	nop; delay slot nop
 7119  00006dd4  23bd0008	addi	r29,r29,#8
 7120  00006dd8          	L104_LF3:
 7121  00006dd8  23bdfff8	addi	r29,r29,#-8
 7122  00006ddc  001d0820	add	r1,r0,r29
 7123  00006de0  3c020001	lhi	r2,((_debugstr)>>16)&0xffff
 7124  00006de4  244261cb	addui	r2,r2,(_debugstr)&0xffff
 7125  00006de8  ac220000	sw	(r1),r2
 7126  00006dec  2002002b	addi	r2,r0,#43
 7127  00006df0  ac220004	sw	4(r1),r2
 7128  00006df4  0fffd65c	jal	_dindex
 7129  00006df8  54000000	nop; delay slot nop
 7130  00006dfc  23bd0008	addi	r29,r29,#8
 7131  00006e00  64220000	snei	r2,r1,#0
 7132  00006e04  1040002c	beqz	r2,L105_LF3
 7133  00006e08  54000000	nop; delay slot nop
 7134  00006e0c  23bdfff8	addi	r29,r29,#-8
 7135  00006e10  001d0820	add	r1,r0,r29
 7136  00006e14  3c020001	lhi	r2,((LC42_LF3)>>16)&0xffff
 7137  00006e18  24425c14	addui	r2,r2,(LC42_LF3)&0xffff
 7138  00006e1c  ac220000	sw	(r1),r2
 7139  00006e20  8fc20008	lw	r2,8(r30)
 7140  00006e24  ac220004	sw	4(r1),r2
 7141  00006e28  0c00b750	jal	_printf
 7142  00006e2c  54000000	nop; delay slot nop
 7143  00006e30  23bd0008	addi	r29,r29,#8
 7144  00006e34          	L105_LF3:
 7145  00006e34  23bdffe8	addi	r29,r29,#-24
 7146  00006e38  001d0820	add	r1,r0,r29
 7147  00006e3c  8fc20008	lw	r2,8(r30)
 7148  00006e40  ac220000	sw	(r1),r2
 7149  00006e44  23c2ffe8	addi	r2,r30,#-24
 7150  00006e48  ac220004	sw	4(r1),r2
 7151  00006e4c  23c2ffe4	addi	r2,r30,#-28
 7152  00006e50  ac220008	sw	8(r1),r2
 7153  00006e54  23c2ffe0	addi	r2,r30,#-32
 7154  00006e58  ac22000c	sw	12(r1),r2
 7155  00006e5c  23c2ffdc	addi	r2,r30,#-36
 7156  00006e60  ac220010	sw	16(r1),r2
 7157  00006e64  23c2ffd8	addi	r2,r30,#-40
 7158  00006e68  ac220014	sw	20(r1),r2
 7159  00006e6c  0c0009d0	jal	_ProcessGetCodeInfo
 7160  00006e70  54000000	nop; delay slot nop
 7161  00006e74  23bd0018	addi	r29,r29,#24
 7162  00006e78  afc1fff0	sw	-16(r30),r1
 7163  00006e7c  8fc1fff0	lw	r1,-16(r30)
 7164  00006e80  68220000	slti	r2,r1,#0
 7165  00006e84  1040002c	beqz	r2,L106_LF3
 7166  00006e88  54000000	nop; delay slot nop
 7167  00006e8c  23bdfff8	addi	r29,r29,#-8
 7168  00006e90  001d0820	add	r1,r0,r29
 7169  00006e94  8fc2ff60	lw	r2,-160(r30)
 7170  00006e98  ac220000	sw	(r1),r2
 7171  00006e9c  0fffe4e8	jal	_ProcessFreeResources
 7172  00006ea0  54000000	nop; delay slot nop
 7173  00006ea4  23bd0008	addi	r29,r29,#8
 7174  00006ea8  2001ffff	addi	r1,r0,#-1
 7175  00006eac  0800096c	j	L80_LF3
 7176  00006eb0  54000000	nop; delay slot nop
 7177  00006eb4          	L106_LF3:
 7178  00006eb4  23bdfff8	addi	r29,r29,#-8
 7179  00006eb8  001d0820	add	r1,r0,r29
 7180  00006ebc  3c020001	lhi	r2,((_debugstr)>>16)&0xffff
 7181  00006ec0  244261cb	addui	r2,r2,(_debugstr)&0xffff
 7182  00006ec4  ac220000	sw	(r1),r2
 7183  00006ec8  20020070	addi	r2,r0,#112
 7184  00006ecc  ac220004	sw	4(r1),r2
 7185  00006ed0  0fffd580	jal	_dindex
 7186  00006ed4  54000000	nop; delay slot nop
 7187  00006ed8  23bd0008	addi	r29,r29,#8
 7188  00006edc  64220000	snei	r2,r1,#0
 7189  00006ee0  10400034	beqz	r2,L107_LF3
 7190  00006ee4  54000000	nop; delay slot nop
 7191  00006ee8  23bdfff0	addi	r29,r29,#-16
 7192  00006eec  001d0820	add	r1,r0,r29
 7193  00006ef0  3c020001	lhi	r2,((LC43_LF3)>>16)&0xffff
 7194  00006ef4  24425c28	addui	r2,r2,(LC43_LF3)&0xffff
 7195  00006ef8  ac220000	sw	(r1),r2
 7196  00006efc  8fc20008	lw	r2,8(r30)
 7197  00006f00  ac220004	sw	4(r1),r2
 7198  00006f04  8fc2ffe8	lw	r2,-24(r30)
 7199  00006f08  ac220008	sw	8(r1),r2
 7200  00006f0c  0c00b66c	jal	_printf
 7201  00006f10  54000000	nop; delay slot nop
 7202  00006f14  23bd0010	addi	r29,r29,#16
 7203  00006f18          	L107_LF3:
 7204  00006f18  23bdfff8	addi	r29,r29,#-8
 7205  00006f1c  001d0820	add	r1,r0,r29
 7206  00006f20  3c020001	lhi	r2,((_debugstr)>>16)&0xffff
 7207  00006f24  244261cb	addui	r2,r2,(_debugstr)&0xffff
 7208  00006f28  ac220000	sw	(r1),r2
 7209  00006f2c  2002002b	addi	r2,r0,#43
 7210  00006f30  ac220004	sw	4(r1),r2
 7211  00006f34  0fffd51c	jal	_dindex
 7212  00006f38  54000000	nop; delay slot nop
 7213  00006f3c  23bd0008	addi	r29,r29,#8
 7214  00006f40  64220000	snei	r2,r1,#0
 7215  00006f44  10400034	beqz	r2,L108_LF3
 7216  00006f48  54000000	nop; delay slot nop
 7217  00006f4c  23bdfff0	addi	r29,r29,#-16
 7218  00006f50  001d0820	add	r1,r0,r29
 7219  00006f54  3c020001	lhi	r2,((LC43_LF3)>>16)&0xffff
 7220  00006f58  24425c28	addui	r2,r2,(LC43_LF3)&0xffff
 7221  00006f5c  ac220000	sw	(r1),r2
 7222  00006f60  8fc20008	lw	r2,8(r30)
 7223  00006f64  ac220004	sw	4(r1),r2
 7224  00006f68  8fc2ffe8	lw	r2,-24(r30)
 7225  00006f6c  ac220008	sw	8(r1),r2
 7226  00006f70  0c00b608	jal	_printf
 7227  00006f74  54000000	nop; delay slot nop
 7228  00006f78  23bd0010	addi	r29,r29,#16
 7229  00006f7c          	L108_LF3:
 7230  00006f7c  23bdfff8	addi	r29,r29,#-8
 7231  00006f80  001d0820	add	r1,r0,r29
 7232  00006f84  3c020001	lhi	r2,((_debugstr)>>16)&0xffff
 7233  00006f88  244261cb	addui	r2,r2,(_debugstr)&0xffff
 7234  00006f8c  ac220000	sw	(r1),r2
 7235  00006f90  20020070	addi	r2,r0,#112
 7236  00006f94  ac220004	sw	4(r1),r2
 7237  00006f98  0fffd4b8	jal	_dindex
 7238  00006f9c  54000000	nop; delay slot nop
 7239  00006fa0  23bd0008	addi	r29,r29,#8
 7240  00006fa4  64220000	snei	r2,r1,#0
 7241  00006fa8  1040003c	beqz	r2,L109_LF3
 7242  00006fac  54000000	nop; delay slot nop
 7243  00006fb0  23bdfff0	addi	r29,r29,#-16
 7244  00006fb4  001d0820	add	r1,r0,r29
 7245  00006fb8  3c020001	lhi	r2,((LC44_LF3)>>16)&0xffff
 7246  00006fbc  24425c44	addui	r2,r2,(LC44_LF3)&0xffff
 7247  00006fc0  ac220000	sw	(r1),r2
 7248  00006fc4  8fc20008	lw	r2,8(r30)
 7249  00006fc8  ac220004	sw	4(r1),r2
 7250  00006fcc  8fc2ffe4	lw	r2,-28(r30)
 7251  00006fd0  ac220008	sw	8(r1),r2
 7252  00006fd4  8fc2ffe0	lw	r2,-32(r30)
 7253  00006fd8  ac22000c	sw	12(r1),r2
 7254  00006fdc  0c00b59c	jal	_printf
 7255  00006fe0  54000000	nop; delay slot nop
 7256  00006fe4  23bd0010	addi	r29,r29,#16
 7257  00006fe8          	L109_LF3:
 7258  00006fe8  23bdfff8	addi	r29,r29,#-8
 7259  00006fec  001d0820	add	r1,r0,r29
 7260  00006ff0  3c020001	lhi	r2,((_debugstr)>>16)&0xffff
 7261  00006ff4  244261cb	addui	r2,r2,(_debugstr)&0xffff
 7262  00006ff8  ac220000	sw	(r1),r2
 7263  00006ffc  2002002b	addi	r2,r0,#43
 7264  00007000  ac220004	sw	4(r1),r2
 7265  00007004  0fffd44c	jal	_dindex
 7266  00007008  54000000	nop; delay slot nop
 7267  0000700c  23bd0008	addi	r29,r29,#8
 7268  00007010  64220000	snei	r2,r1,#0
 7269  00007014  1040003c	beqz	r2,L110_LF3
 7270  00007018  54000000	nop; delay slot nop
 7271  0000701c  23bdfff0	addi	r29,r29,#-16
 7272  00007020  001d0820	add	r1,r0,r29
 7273  00007024  3c020001	lhi	r2,((LC44_LF3)>>16)&0xffff
 7274  00007028  24425c44	addui	r2,r2,(LC44_LF3)&0xffff
 7275  0000702c  ac220000	sw	(r1),r2
 7276  00007030  8fc20008	lw	r2,8(r30)
 7277  00007034  ac220004	sw	4(r1),r2
 7278  00007038  8fc2ffe4	lw	r2,-28(r30)
 7279  0000703c  ac220008	sw	8(r1),r2
 7280  00007040  8fc2ffe0	lw	r2,-32(r30)
 7281  00007044  ac22000c	sw	12(r1),r2
 7282  00007048  0c00b530	jal	_printf
 7283  0000704c  54000000	nop; delay slot nop
 7284  00007050  23bd0010	addi	r29,r29,#16
 7285  00007054          	L110_LF3:
 7286  00007054  23bdfff8	addi	r29,r29,#-8
 7287  00007058  001d0820	add	r1,r0,r29
 7288  0000705c  3c020001	lhi	r2,((_debugstr)>>16)&0xffff
 7289  00007060  244261cb	addui	r2,r2,(_debugstr)&0xffff
 7290  00007064  ac220000	sw	(r1),r2
 7291  00007068  20020070	addi	r2,r0,#112
 7292  0000706c  ac220004	sw	4(r1),r2
 7293  00007070  0fffd3e0	jal	_dindex
 7294  00007074  54000000	nop; delay slot nop
 7295  00007078  23bd0008	addi	r29,r29,#8
 7296  0000707c  64220000	snei	r2,r1,#0
 7297  00007080  1040003c	beqz	r2,L111_LF3
 7298  00007084  54000000	nop; delay slot nop
 7299  00007088  23bdfff0	addi	r29,r29,#-16
 7300  0000708c  001d0820	add	r1,r0,r29
 7301  00007090  3c020001	lhi	r2,((LC45_LF3)>>16)&0xffff
 7302  00007094  24425c6c	addui	r2,r2,(LC45_LF3)&0xffff
 7303  00007098  ac220000	sw	(r1),r2
 7304  0000709c  8fc20008	lw	r2,8(r30)
 7305  000070a0  ac220004	sw	4(r1),r2
 7306  000070a4  8fc2ffdc	lw	r2,-36(r30)
 7307  000070a8  ac220008	sw	8(r1),r2
 7308  000070ac  8fc2ffd8	lw	r2,-40(r30)
 7309  000070b0  ac22000c	sw	12(r1),r2
 7310  000070b4  0c00b4c4	jal	_printf
 7311  000070b8  54000000	nop; delay slot nop
 7312  000070bc  23bd0010	addi	r29,r29,#16
 7313  000070c0          	L111_LF3:
 7314  000070c0  23bdfff8	addi	r29,r29,#-8
 7315  000070c4  001d0820	add	r1,r0,r29
 7316  000070c8  3c020001	lhi	r2,((_debugstr)>>16)&0xffff
 7317  000070cc  244261cb	addui	r2,r2,(_debugstr)&0xffff
 7318  000070d0  ac220000	sw	(r1),r2
 7319  000070d4  2002002b	addi	r2,r0,#43
 7320  000070d8  ac220004	sw	4(r1),r2
 7321  000070dc  0fffd374	jal	_dindex
 7322  000070e0  54000000	nop; delay slot nop
 7323  000070e4  23bd0008	addi	r29,r29,#8
 7324  000070e8  64220000	snei	r2,r1,#0
 7325  000070ec  1040003c	beqz	r2,L112_LF3
 7326  000070f0  54000000	nop; delay slot nop
 7327  000070f4  23bdfff0	addi	r29,r29,#-16
 7328  000070f8  001d0820	add	r1,r0,r29
 7329  000070fc  3c020001	lhi	r2,((LC45_LF3)>>16)&0xffff
 7330  00007100  24425c6c	addui	r2,r2,(LC45_LF3)&0xffff
 7331  00007104  ac220000	sw	(r1),r2
 7332  00007108  8fc20008	lw	r2,8(r30)
 7333  0000710c  ac220004	sw	4(r1),r2
 7334  00007110  8fc2ffdc	lw	r2,-36(r30)
 7335  00007114  ac220008	sw	8(r1),r2
 7336  00007118  8fc2ffd8	lw	r2,-40(r30)
 7337  0000711c  ac22000c	sw	12(r1),r2
 7338  00007120  0c00b458	jal	_printf
 7339  00007124  54000000	nop; delay slot nop
 7340  00007128  23bd0010	addi	r29,r29,#16
 7341  0000712c          	L112_LF3:
 7342  0000712c  54000000	nop
 7343  00007130          	L113_LF3:
 7344  00007130  23bdfff0	addi	r29,r29,#-16
 7345  00007134  001d0820	add	r1,r0,r29
 7346  00007138  8fc2fff0	lw	r2,-16(r30)
 7347  0000713c  ac220000	sw	(r1),r2
 7348  00007140  23c2ff68	addi	r2,r30,#-152
 7349  00007144  ac220004	sw	4(r1),r2
 7350  00007148  23c2ffd4	addi	r2,r30,#-44
 7351  0000714c  ac220008	sw	8(r1),r2
 7352  00007150  20020064	addi	r2,r0,#100
 7353  00007154  ac22000c	sw	12(r1),r2
 7354  00007158  0c000cd8	jal	_ProcessGetFromFile
 7355  0000715c  54000000	nop; delay slot nop
 7356  00007160  23bd0010	addi	r29,r29,#16
 7357  00007164  afc1ffec	sw	-20(r30),r1
 7358  00007168  8fc1ffec	lw	r1,-20(r30)
 7359  0000716c  6c220000	sgti	r2,r1,#0
 7360  00007170  1440000c	bnez	r2,L115_LF3
 7361  00007174  54000000	nop; delay slot nop
 7362  00007178  08000120	j	L114_LF3
 7363  0000717c  54000000	nop; delay slot nop
 7364  00007180          	L115_LF3:
 7365  00007180  23bdfff8	addi	r29,r29,#-8
 7366  00007184  001d0820	add	r1,r0,r29
 7367  00007188  3c020001	lhi	r2,((_debugstr)>>16)&0xffff
 7368  0000718c  244261cb	addui	r2,r2,(_debugstr)&0xffff
 7369  00007190  ac220000	sw	(r1),r2
 7370  00007194  20020070	addi	r2,r0,#112
 7371  00007198  ac220004	sw	4(r1),r2
 7372  0000719c  0fffd2b4	jal	_dindex
 7373  000071a0  54000000	nop; delay slot nop
 7374  000071a4  23bd0008	addi	r29,r29,#8
 7375  000071a8  64220000	snei	r2,r1,#0
 7376  000071ac  1040003c	beqz	r2,L116_LF3
 7377  000071b0  54000000	nop; delay slot nop
 7378  000071b4  23bdfff0	addi	r29,r29,#-16
 7379  000071b8  001d0820	add	r1,r0,r29
 7380  000071bc  3c020001	lhi	r2,((LC46_LF3)>>16)&0xffff
 7381  000071c0  24425c94	addui	r2,r2,(LC46_LF3)&0xffff
 7382  000071c4  ac220000	sw	(r1),r2
 7383  000071c8  8fc2ffec	lw	r2,-20(r30)
 7384  000071cc  ac220004	sw	4(r1),r2
 7385  000071d0  8fc2ffd4	lw	r2,-44(r30)
 7386  000071d4  8fc3ffec	lw	r3,-20(r30)
 7387  000071d8  00431022	sub	r2,r2,r3
 7388  000071dc  ac220008	sw	8(r1),r2
 7389  000071e0  0c00b398	jal	_printf
 7390  000071e4  54000000	nop; delay slot nop
 7391  000071e8  23bd0010	addi	r29,r29,#16
 7392  000071ec          	L116_LF3:
 7393  000071ec  23bdfff8	addi	r29,r29,#-8
 7394  000071f0  001d0820	add	r1,r0,r29
 7395  000071f4  3c020001	lhi	r2,((_debugstr)>>16)&0xffff
 7396  000071f8  244261cb	addui	r2,r2,(_debugstr)&0xffff
 7397  000071fc  ac220000	sw	(r1),r2
 7398  00007200  2002002b	addi	r2,r0,#43
 7399  00007204  ac220004	sw	4(r1),r2
 7400  00007208  0fffd248	jal	_dindex
 7401  0000720c  54000000	nop; delay slot nop
 7402  00007210  23bd0008	addi	r29,r29,#8
 7403  00007214  64220000	snei	r2,r1,#0
 7404  00007218  1040003c	beqz	r2,L117_LF3
 7405  0000721c  54000000	nop; delay slot nop
 7406  00007220  23bdfff0	addi	r29,r29,#-16
 7407  00007224  001d0820	add	r1,r0,r29
 7408  00007228  3c020001	lhi	r2,((LC46_LF3)>>16)&0xffff
 7409  0000722c  24425c94	addui	r2,r2,(LC46_LF3)&0xffff
 7410  00007230  ac220000	sw	(r1),r2
 7411  00007234  8fc2ffec	lw	r2,-20(r30)
 7412  00007238  ac220004	sw	4(r1),r2
 7413  0000723c  8fc2ffd4	lw	r2,-44(r30)
 7414  00007240  8fc3ffec	lw	r3,-20(r30)
 7415  00007244  00431022	sub	r2,r2,r3
 7416  00007248  ac220008	sw	8(r1),r2
 7417  0000724c  0c00b32c	jal	_printf
 7418  00007250  54000000	nop; delay slot nop
 7419  00007254  23bd0010	addi	r29,r29,#16
 7420  00007258          	L117_LF3:
 7421  00007258  23bdfff0	addi	r29,r29,#-16
 7422  0000725c  001d0820	add	r1,r0,r29
 7423  00007260  8fc2ff60	lw	r2,-160(r30)
 7424  00007264  ac220000	sw	(r1),r2
 7425  00007268  23c2ff68	addi	r2,r30,#-152
 7426  0000726c  ac220004	sw	4(r1),r2
 7427  00007270  8fc2ffd4	lw	r2,-44(r30)
 7428  00007274  8fc3ffec	lw	r3,-20(r30)
 7429  00007278  00431022	sub	r2,r2,r3
 7430  0000727c  ac220008	sw	8(r1),r2
 7431  00007280  8fc2ffec	lw	r2,-20(r30)
 7432  00007284  ac22000c	sw	12(r1),r2
 7433  00007288  0fffc054	jal	_MemoryCopySystemToUser
 7434  0000728c  54000000	nop; delay slot nop
 7435  00007290  23bd0010	addi	r29,r29,#16
 7436  00007294  0bfffe98	j	L113_LF3
 7437  00007298  54000000	nop; delay slot nop
 7438  0000729c          	L114_LF3:
 7439  0000729c  23bdfff8	addi	r29,r29,#-8
 7440  000072a0  001d0820	add	r1,r0,r29
 7441  000072a4  8fc2fff0	lw	r2,-16(r30)
 7442  000072a8  ac220000	sw	(r1),r2
 7443  000072ac  0fffa56c	jal	_FsClose
 7444  000072b0  54000000	nop; delay slot nop
 7445  000072b4  23bd0008	addi	r29,r29,#8
 7446  000072b8  8fc2ff64	lw	r2,-156(r30)
 7447  000072bc  2041012c	addi	r1,r2,#300
 7448  000072c0  20020100	addi	r2,r0,#256
 7449  000072c4  ac220000	sw	(r1),r2
 7450  000072c8  8fc2ff64	lw	r2,-156(r30)
 7451  000072cc  2041009c	addi	r1,r2,#156
 7452  000072d0  3c02000f	lhi	r2,#15
 7453  000072d4  2442fffc	addui	r2,r2,#65532
 7454  000072d8  ac220000	sw	(r1),r2
 7455  000072dc  8fc2ff64	lw	r2,-156(r30)
 7456  000072e0  2041009c	addi	r1,r2,#156
 7457  000072e4  8fc3ff64	lw	r3,-156(r30)
 7458  000072e8  2062009c	addi	r2,r3,#156
 7459  000072ec  8c430000	lw	r3,(r2)
 7460  000072f0  2062ff00	addi	r2,r3,#-256
 7461  000072f4  ac220000	sw	(r1),r2
 7462  000072f8  23bdfff0	addi	r29,r29,#-16
 7463  000072fc  001d0820	add	r1,r0,r29
 7464  00007300  8fc2ff60	lw	r2,-160(r30)
 7465  00007304  ac220000	sw	(r1),r2
 7466  00007308  8fc20004	lw	r2,4(r30)
 7467  0000730c  ac220004	sw	4(r1),r2
 7468  00007310  8fc3ff64	lw	r3,-156(r30)
 7469  00007314  2062009c	addi	r2,r3,#156
 7470  00007318  8c430000	lw	r3,(r2)
 7471  0000731c  ac230008	sw	8(r1),r3
 7472  00007320  20020100	addi	r2,r0,#256
 7473  00007324  ac22000c	sw	12(r1),r2
 7474  00007328  0fffbfb4	jal	_MemoryCopySystemToUser
 7475  0000732c  54000000	nop; delay slot nop
 7476  00007330  23bd0010	addi	r29,r29,#16
 7477  00007334  23bdfff8	addi	r29,r29,#-8
 7478  00007338  001d0820	add	r1,r0,r29
 7479  0000733c  8fc20004	lw	r2,4(r30)
 7480  00007340  ac220000	sw	(r1),r2
 7481  00007344  0c0024a8	jal	_get_argument
 7482  00007348  54000000	nop; delay slot nop
 7483  0000734c  23bd0008	addi	r29,r29,#8
 7484  00007350  afc1ff20	sw	-224(r30),r1
 7485  00007354  20010000	addi	r1,r0,#0
 7486  00007358  afc1ff24	sw	-220(r30),r1
 7487  0000735c          	L118_LF3:
 7488  0000735c  8fc1ff24	lw	r1,-220(r30)
 7489  00007360  70220009	sleui	r2,r1,#9
 7490  00007364  1440000c	bnez	r2,L121_LF3
 7491  00007368  54000000	nop; delay slot nop
 7492  0000736c  0800009c	j	L119_LF3
 7493  00007370  54000000	nop; delay slot nop
 7494  00007374          	L121_LF3:
 7495  00007374  23c1ff30	addi	r1,r30,#-208
 7496  00007378  8fc2ff24	lw	r2,-220(r30)
 7497  0000737c  00021820	add	r3,r0,r2
 7498  00007380  50620002	slli	r2,r3,#0x2
 7499  00007384  00220820	add	r1,r1,r2
 7500  00007388  8fc3ff64	lw	r3,-156(r30)
 7501  0000738c  2062009c	addi	r2,r3,#156
 7502  00007390  8c430000	lw	r3,(r2)
 7503  00007394  8fc2ff20	lw	r2,-224(r30)
 7504  00007398  00621820	add	r3,r3,r2
 7505  0000739c  ac230000	sw	(r1),r3
 7506  000073a0  23bdfff8	addi	r29,r29,#-8
 7507  000073a4  001d0820	add	r1,r0,r29
 7508  000073a8  20020000	addi	r2,r0,#0
 7509  000073ac  ac220000	sw	(r1),r2
 7510  000073b0  0c00243c	jal	_get_argument
 7511  000073b4  54000000	nop; delay slot nop
 7512  000073b8  23bd0008	addi	r29,r29,#8
 7513  000073bc  afc1ff20	sw	-224(r30),r1
 7514  000073c0  8fc1ff20	lw	r1,-224(r30)
 7515  000073c4  64220000	snei	r2,r1,#0
 7516  000073c8  14400028	bnez	r2,L120_LF3
 7517  000073cc  54000000	nop; delay slot nop
 7518  000073d0  23c1ff34	addi	r1,r30,#-204
 7519  000073d4  8fc2ff24	lw	r2,-220(r30)
 7520  000073d8  00021820	add	r3,r0,r2
 7521  000073dc  50620002	slli	r2,r3,#0x2
 7522  000073e0  00220820	add	r1,r1,r2
 7523  000073e4  20020000	addi	r2,r0,#0
 7524  000073e8  ac220000	sw	(r1),r2
 7525  000073ec  0800001c	j	L119_LF3
 7526  000073f0  54000000	nop; delay slot nop
 7527  000073f4          	L122_LF3:
 7528  000073f4          	L120_LF3:
 7529  000073f4  8fc2ff24	lw	r2,-220(r30)
 7530  000073f8  20410001	addi	r1,r2,#1
 7531  000073fc  00011020	add	r2,r0,r1
 7532  00007400  afc2ff24	sw	-220(r30),r2
 7533  00007404  0bffff54	j	L118_LF3
 7534  00007408  54000000	nop; delay slot nop
 7535  0000740c          	L119_LF3:
 7536  0000740c  8fc2ff24	lw	r2,-220(r30)
 7537  00007410  20410001	addi	r1,r2,#1
 7538  00007414  00011020	add	r2,r0,r1
 7539  00007418  afc2ff24	sw	-220(r30),r2
 7540  0000741c  8fc1ff24	lw	r1,-220(r30)
 7541  00007420  afc1ff28	sw	-216(r30),r1
 7542  00007424  8fc2ff64	lw	r2,-156(r30)
 7543  00007428  2041009c	addi	r1,r2,#156
 7544  0000742c  8fc2ff24	lw	r2,-220(r30)
 7545  00007430  00021820	add	r3,r0,r2
 7546  00007434  50620002	slli	r2,r3,#0x2
 7547  00007438  8c210000	lw	r1,(r1)
 7548  0000743c  00221022	sub	r2,r1,r2
 7549  00007440  afc2ff2c	sw	-212(r30),r2
 7550  00007444  8fc2ff24	lw	r2,-220(r30)
 7551  00007448  20410002	addi	r1,r2,#2
 7552  0000744c  20020004	addi	r2,r0,#4
 7553  00007450  00200035	movi2fp	f0,r1
 7554  00007454  00400835	movi2fp	f1,r2
 7555  00007458  0401000e	mult	f0,f0,f1
 7556  0000745c  00000834	movfp2i	r1,f0
 7557  00007460  afc1ff1c	sw	-228(r30),r1
 7558  00007464  8fc2ff64	lw	r2,-156(r30)
 7559  00007468  2041009c	addi	r1,r2,#156
 7560  0000746c  8fc3ff64	lw	r3,-156(r30)
 7561  00007470  2062009c	addi	r2,r3,#156
 7562  00007474  8c430000	lw	r3,(r2)
 7563  00007478  8fc2ff1c	lw	r2,-228(r30)
 7564  0000747c  00621822	sub	r3,r3,r2
 7565  00007480  ac230000	sw	(r1),r3
 7566  00007484  23bdfff0	addi	r29,r29,#-16
 7567  00007488  001d0820	add	r1,r0,r29
 7568  0000748c  8fc2ff60	lw	r2,-160(r30)
 7569  00007490  ac220000	sw	(r1),r2
 7570  00007494  23c2ff28	addi	r2,r30,#-216
 7571  00007498  ac220004	sw	4(r1),r2
 7572  0000749c  8fc3ff64	lw	r3,-156(r30)
 7573  000074a0  2062009c	addi	r2,r3,#156
 7574  000074a4  8c430000	lw	r3,(r2)
 7575  000074a8  ac230008	sw	8(r1),r3
 7576  000074ac  8fc2ff1c	lw	r2,-228(r30)
 7577  000074b0  ac22000c	sw	12(r1),r2
 7578  000074b4  0fffbe28	jal	_MemoryCopySystemToUser
 7579  000074b8  54000000	nop; delay slot nop
 7580  000074bc  23bd0010	addi	r29,r29,#16
 7581  000074c0  8fc2ff64	lw	r2,-156(r30)
 7582  000074c4  20410128	addi	r1,r2,#296
 7583  000074c8  8fc2ffe8	lw	r2,-24(r30)
 7584  000074cc  ac220000	sw	(r1),r2
 7585  000074d0  8fc1ff60	lw	r1,-160(r30)
 7586  000074d4  8fc2ff60	lw	r2,-160(r30)
 7587  000074d8  8c43000c	lw	r3,12(r2)
 7588  000074dc  34620200	ori	r2,r3,#512
 7589  000074e0  ac22000c	sw	12(r1),r2
 7590  000074e4  08000060	j	L123_LF3
 7591  000074e8  54000000	nop; delay slot nop
 7592  000074ec          	L103_LF3:
 7593  000074ec  8fc2ff64	lw	r2,-156(r30)
 7594  000074f0  204100a4	addi	r1,r2,#164
 7595  000074f4  3c020000	lhi	r2,((_ProcessExit_LF3)>>16)&0xffff
 7596  000074f8  2442645c	addui	r2,r2,(_ProcessExit_LF3)&0xffff
 7597  000074fc  ac220000	sw	(r1),r2
 7598  00007500  8fc2ff64	lw	r2,-156(r30)
 7599  00007504  2041009c	addi	r1,r2,#156
 7600  00007508  8c220000	lw	r2,(r1)
 7601  0000750c  8fc10004	lw	r1,4(r30)
 7602  00007510  ac410000	sw	(r2),r1
 7603  00007514  8fc2ff64	lw	r2,-156(r30)
 7604  00007518  20410128	addi	r1,r2,#296
 7605  0000751c  8fc20000	lw	r2,(r30)
 7606  00007520  ac220000	sw	(r1),r2
 7607  00007524  8fc2ff64	lw	r2,-156(r30)
 7608  00007528  2041012c	addi	r1,r2,#300
 7609  0000752c  20020140	addi	r2,r0,#320
 7610  00007530  ac220000	sw	(r1),r2
 7611  00007534  8fc1ff60	lw	r1,-160(r30)
 7612  00007538  8fc2ff60	lw	r2,-160(r30)
 7613  0000753c  8c43000c	lw	r3,12(r2)
 7614  00007540  34620100	ori	r2,r3,#256
 7615  00007544  ac22000c	sw	12(r1),r2
 7616  00007548          	L123_LF3:
 7617  00007548  001d1020	add	r2,r0,r29
 7618  0000754c  0c00a6bc	jal	_DisableIntrs
 7619  00007550  54000000	nop; delay slot nop
 7620  00007554  afc1ff5c	sw	-164(r30),r1
 7621  00007558  23bdfff8	addi	r29,r29,#-8
 7622  0000755c  001d0820	add	r1,r0,r29
 7623  00007560  8fc2ff60	lw	r2,-160(r30)
 7624  00007564  ac220000	sw	(r1),r2
 7625  00007568  0c002d60	jal	_AQueueAllocLink
 7626  0000756c  54000000	nop; delay slot nop
 7627  00007570  23bd0008	addi	r29,r29,#8
 7628  00007574  8fc2ff60	lw	r2,-160(r30)
 7629  00007578  ac410464	sw	1124(r2),r1
 7630  0000757c  64210000	snei	r1,r1,#0
 7631  00007580  14200030	bnez	r1,L124_LF3
 7632  00007584  54000000	nop; delay slot nop
 7633  00007588  23bdfff8	addi	r29,r29,#-8
 7634  0000758c  001d0820	add	r1,r0,r29
 7635  00007590  3c020001	lhi	r2,((LC47_LF3)>>16)&0xffff
 7636  00007594  24425cb8	addui	r2,r2,(LC47_LF3)&0xffff
 7637  00007598  ac220000	sw	(r1),r2
 7638  0000759c  0c00afdc	jal	_printf
 7639  000075a0  54000000	nop; delay slot nop
 7640  000075a4  23bd0008	addi	r29,r29,#8
 7641  000075a8  001d1020	add	r2,r0,r29
 7642  000075ac  0c00afb4	jal	_exitsim
 7643  000075b0  54000000	nop; delay slot nop
 7644  000075b4          	L124_LF3:
 7645  000075b4  23bdfff8	addi	r29,r29,#-8
 7646  000075b8  001d0820	add	r1,r0,r29
 7647  000075bc  3c020001	lhi	r2,((_runQueue_LF3)>>16)&0xffff
 7648  000075c0  244262a4	addui	r2,r2,(_runQueue_LF3)&0xffff
 7649  000075c4  ac220000	sw	(r1),r2
 7650  000075c8  8fc2ff60	lw	r2,-160(r30)
 7651  000075cc  8c430464	lw	r3,1124(r2)
 7652  000075d0  ac230004	sw	4(r1),r3
 7653  000075d4  0c003b20	jal	_AQueueInsertLast
 7654  000075d8  54000000	nop; delay slot nop
 7655  000075dc  23bd0008	addi	r29,r29,#8
 7656  000075e0  64220001	snei	r2,r1,#1
 7657  000075e4  10400030	beqz	r2,L125_LF3
 7658  000075e8  54000000	nop; delay slot nop
 7659  000075ec  23bdfff8	addi	r29,r29,#-8
 7660  000075f0  001d0820	add	r1,r0,r29
 7661  000075f4  3c020001	lhi	r2,((LC48_LF3)>>16)&0xffff
 7662  000075f8  24425cf8	addui	r2,r2,(LC48_LF3)&0xffff
 7663  000075fc  ac220000	sw	(r1),r2
 7664  00007600  0c00af78	jal	_printf
 7665  00007604  54000000	nop; delay slot nop
 7666  00007608  23bd0008	addi	r29,r29,#8
 7667  0000760c  001d1020	add	r2,r0,r29
 7668  00007610  0c00af50	jal	_exitsim
 7669  00007614  54000000	nop; delay slot nop
 7670  00007618          	L125_LF3:
 7671  00007618  23bdfff8	addi	r29,r29,#-8
 7672  0000761c  001d0820	add	r1,r0,r29
 7673  00007620  8fc2ff5c	lw	r2,-164(r30)
 7674  00007624  ac220000	sw	(r1),r2
 7675  00007628  0c00a690	jal	_RestoreIntrs
 7676  0000762c  54000000	nop; delay slot nop
 7677  00007630  23bd0008	addi	r29,r29,#8
 7678  00007634  3c010001	lhi	r1,((_currentPCB)>>16)&0xffff
 7679  00007638  24216294	addui	r1,r1,(_currentPCB)&0xffff
 7680  0000763c  8c220000	lw	r2,(r1)
 7681  00007640  64410000	snei	r1,r2,#0
 7682  00007644  142000e4	bnez	r1,L126_LF3
 7683  00007648  54000000	nop; delay slot nop
 7684  0000764c  23bdfff8	addi	r29,r29,#-8
 7685  00007650  001d0820	add	r1,r0,r29
 7686  00007654  3c020001	lhi	r2,((_debugstr)>>16)&0xffff
 7687  00007658  244261cb	addui	r2,r2,(_debugstr)&0xffff
 7688  0000765c  ac220000	sw	(r1),r2
 7689  00007660  20020070	addi	r2,r0,#112
 7690  00007664  ac220004	sw	4(r1),r2
 7691  00007668  0fffcde8	jal	_dindex
 7692  0000766c  54000000	nop; delay slot nop
 7693  00007670  23bd0008	addi	r29,r29,#8
 7694  00007674  64220000	snei	r2,r1,#0
 7695  00007678  10400038	beqz	r2,L127_LF3
 7696  0000767c  54000000	nop; delay slot nop
 7697  00007680  23bdfff0	addi	r29,r29,#-16
 7698  00007684  001d0820	add	r1,r0,r29
 7699  00007688  3c020001	lhi	r2,((LC49_LF3)>>16)&0xffff
 7700  0000768c  24425d3c	addui	r2,r2,(LC49_LF3)&0xffff
 7701  00007690  ac220000	sw	(r1),r2
 7702  00007694  8fc2ff60	lw	r2,-160(r30)
 7703  00007698  ac220004	sw	4(r1),r2
 7704  0000769c  8fc2ff60	lw	r2,-160(r30)
 7705  000076a0  8c430000	lw	r3,(r2)
 7706  000076a4  ac230008	sw	8(r1),r3
 7707  000076a8  0c00aed0	jal	_printf
 7708  000076ac  54000000	nop; delay slot nop
 7709  000076b0  23bd0010	addi	r29,r29,#16
 7710  000076b4          	L127_LF3:
 7711  000076b4  23bdfff8	addi	r29,r29,#-8
 7712  000076b8  001d0820	add	r1,r0,r29
 7713  000076bc  3c020001	lhi	r2,((_debugstr)>>16)&0xffff
 7714  000076c0  244261cb	addui	r2,r2,(_debugstr)&0xffff
 7715  000076c4  ac220000	sw	(r1),r2
 7716  000076c8  2002002b	addi	r2,r0,#43
 7717  000076cc  ac220004	sw	4(r1),r2
 7718  000076d0  0fffcd80	jal	_dindex
 7719  000076d4  54000000	nop; delay slot nop
 7720  000076d8  23bd0008	addi	r29,r29,#8
 7721  000076dc  64220000	snei	r2,r1,#0
 7722  000076e0  10400038	beqz	r2,L128_LF3
 7723  000076e4  54000000	nop; delay slot nop
 7724  000076e8  23bdfff0	addi	r29,r29,#-16
 7725  000076ec  001d0820	add	r1,r0,r29
 7726  000076f0  3c020001	lhi	r2,((LC49_LF3)>>16)&0xffff
 7727  000076f4  24425d3c	addui	r2,r2,(LC49_LF3)&0xffff
 7728  000076f8  ac220000	sw	(r1),r2
 7729  000076fc  8fc2ff60	lw	r2,-160(r30)
 7730  00007700  ac220004	sw	4(r1),r2
 7731  00007704  8fc2ff60	lw	r2,-160(r30)
 7732  00007708  8c430000	lw	r3,(r2)
 7733  0000770c  ac230008	sw	8(r1),r3
 7734  00007710  0c00ae68	jal	_printf
 7735  00007714  54000000	nop; delay slot nop
 7736  00007718  23bd0010	addi	r29,r29,#16
 7737  0000771c          	L128_LF3:
 7738  0000771c  3c010001	lhi	r1,((_currentPCB)>>16)&0xffff
 7739  00007720  24216294	addui	r1,r1,(_currentPCB)&0xffff
 7740  00007724  8fc2ff60	lw	r2,-160(r30)
 7741  00007728  ac220000	sw	(r1),r2
 7742  0000772c          	L126_LF3:
 7743  0000772c  23bdfff8	addi	r29,r29,#-8
 7744  00007730  001d0820	add	r1,r0,r29
 7745  00007734  3c020001	lhi	r2,((_debugstr)>>16)&0xffff
 7746  00007738  244261cb	addui	r2,r2,(_debugstr)&0xffff
 7747  0000773c  ac220000	sw	(r1),r2
 7748  00007740  20020070	addi	r2,r0,#112
 7749  00007744  ac220004	sw	4(r1),r2
 7750  00007748  0fffcd08	jal	_dindex
 7751  0000774c  54000000	nop; delay slot nop
 7752  00007750  23bd0008	addi	r29,r29,#8
 7753  00007754  64220000	snei	r2,r1,#0
 7754  00007758  1040002c	beqz	r2,L129_LF3
 7755  0000775c  54000000	nop; delay slot nop
 7756  00007760  23bdfff8	addi	r29,r29,#-8
 7757  00007764  001d0820	add	r1,r0,r29
 7758  00007768  3c020001	lhi	r2,((LC50_LF3)>>16)&0xffff
 7759  0000776c  24425d68	addui	r2,r2,(LC50_LF3)&0xffff
 7760  00007770  ac220000	sw	(r1),r2
 7761  00007774  8fc20008	lw	r2,8(r30)
 7762  00007778  ac220004	sw	4(r1),r2
 7763  0000777c  0c00adfc	jal	_printf
 7764  00007780  54000000	nop; delay slot nop
 7765  00007784  23bd0008	addi	r29,r29,#8
 7766  00007788          	L129_LF3:
 7767  00007788  23bdfff8	addi	r29,r29,#-8
 7768  0000778c  001d0820	add	r1,r0,r29
 7769  00007790  3c020001	lhi	r2,((_debugstr)>>16)&0xffff
 7770  00007794  244261cb	addui	r2,r2,(_debugstr)&0xffff
 7771  00007798  ac220000	sw	(r1),r2
 7772  0000779c  2002002b	addi	r2,r0,#43
 7773  000077a0  ac220004	sw	4(r1),r2
 7774  000077a4  0fffccac	jal	_dindex
 7775  000077a8  54000000	nop; delay slot nop
 7776  000077ac  23bd0008	addi	r29,r29,#8
 7777  000077b0  64220000	snei	r2,r1,#0
 7778  000077b4  1040002c	beqz	r2,L130_LF3
 7779  000077b8  54000000	nop; delay slot nop
 7780  000077bc  23bdfff8	addi	r29,r29,#-8
 7781  000077c0  001d0820	add	r1,r0,r29
 7782  000077c4  3c020001	lhi	r2,((LC50_LF3)>>16)&0xffff
 7783  000077c8  24425d68	addui	r2,r2,(LC50_LF3)&0xffff
 7784  000077cc  ac220000	sw	(r1),r2
 7785  000077d0  8fc20008	lw	r2,8(r30)
 7786  000077d4  ac220004	sw	4(r1),r2
 7787  000077d8  0c00ada0	jal	_printf
 7788  000077dc  54000000	nop; delay slot nop
 7789  000077e0  23bd0008	addi	r29,r29,#8
 7790  000077e4          	L130_LF3:
 7791  000077e4  8fc2ff60	lw	r2,-160(r30)
 7792  000077e8  3c050001	lhi	r5,((_pcbs_LF3)>>16)&0xffff
 7793  000077ec  24a562c8	addui	r5,r5,(_pcbs_LF3)&0xffff
 7794  000077f0  00450822	sub	r1,r2,r5
 7795  000077f4  3c02cd29	lhi	r2,#-13015
 7796  000077f8  2442c245	addui	r2,r2,#49733
 7797  000077fc  00200035	movi2fp	f0,r1
 7798  00007800  00400835	movi2fp	f1,r2
 7799  00007804  0401000e	mult	f0,f0,f1
 7800  00007808  00000834	movfp2i	r1,f0
 7801  0000780c  5c220003	srai	r2,r1,#0x3
 7802  00007810  00020820	add	r1,r0,r2
 7803  00007814  08000004	j	L80_LF3
 7804  00007818  54000000	nop; delay slot nop
 7805  0000781c          	L80_LF3:
 7806  0000781c  8fa20000	lw	r2,0(r29)
 7807  00007820  8fa30004	lw	r3,4(r29)
 7808  00007824  8fa40008	lw	r4,8(r29)
 7809  00007828  8fa5000c	lw	r5,12(r29)
 7810  0000782c  8fdffff8	lw	r31,-8(r30)
 7811  00007830  001ee820	add	r29,r0,r30
 7812  00007834  8fdefffc	lw	r30,-4(r30)
 7813  00007838  4be00000	jr	r31
 7814  0000783c  54000000	nop
 7815  00007840          	.endproc _ProcessFork
 7816  00007840          	.data
 7817  00015d82          	.align 2
 7818  00015d84          	LC51_LF3:
 7819  00015d84  50726f63	.ascii "ProcessGetCodeInfo: open of %s failed (%d).\n\000"
 7819  00015d88  65737347	
 7819  00015d8c  6574436f	
 7819  00015d90  6465496e	
 7819  00015d94  666f3a20	
 7819  00015d98  6f70656e	
 7819  00015d9c  206f6620	
 7819  00015da0  25732066	
 7819  00015da4  61696c65	
 7819  00015da8  64202825	
 7819  00015dac  64292e0a	
 7819  00015db0  00      	
 7820  00015db1          	.align 2
 7821  00015db4          	LC52_LF3:
 7822  00015db4  46696c65	.ascii "File descriptor is now %d.\n\000"
 7822  00015db8  20646573	
 7822  00015dbc  63726970	
 7822  00015dc0  746f7220	
 7822  00015dc4  6973206e	
 7822  00015dc8  6f772025	
 7822  00015dcc  642e0a00	
 7823  00015dd0          	.align 2
 7824  00015dd0          	LC53_LF3:
 7825  00015dd0  50726f63	.ascii "ProcessGetCodeInfo: read got %d (not %d) bytes from %s\n\000"
 7825  00015dd4  65737347	
 7825  00015dd8  6574436f	
 7825  00015ddc  6465496e	
 7825  00015de0  666f3a20	
 7825  00015de4  72656164	
 7825  00015de8  20676f74	
 7825  00015dec  20256420	
 7825  00015df0  286e6f74	
 7825  00015df4  20256429	
 7825  00015df8  20627974	
 7825  00015dfc  65732066	
 7825  00015e00  726f6d20	
 7825  00015e04  25730a00	
 7826  00015e08          	.align 2
 7827  00015e08          	LC54_LF3:
 7828  00015e08  73746172	.ascii "start:\000"
 7828  00015e0c  743a00  	
 7829  00015e0f          	.align 2
 7830  00015e10          	LC55_LF3:
 7831  00015e10  50726f63	.ascii "ProcessGetCodeInfo: %s missing start line (not a DLX executable?)\n\000"
 7831  00015e14  65737347	
 7831  00015e18  6574436f	
 7831  00015e1c  6465496e	
 7831  00015e20  666f3a20	
 7831  00015e24  2573206d	
 7831  00015e28  69737369	
 7831  00015e2c  6e672073	
 7831  00015e30  74617274	
 7831  00015e34  206c696e	
 7831  00015e38  6520286e	
 7831  00015e3c  6f742061	
 7831  00015e40  20444c58	
 7831  00015e44  20657865	
 7831  00015e48  63757461	
 7831  00015e4c  626c653f	
 7831  00015e50  290a00  	
 7832  00015e53          	.text
 7833  00007840          	.align 2
 7834  00007840          	.proc _ProcessGetCodeInfo
 7835  00007840          	.global _ProcessGetCodeInfo
 7836  00007840          	_ProcessGetCodeInfo:
 7837                      ;  Function 'ProcessGetCodeInfo'; 120 bytes of locals, 2 regs to save.
 7838  00007840  afbefffc	sw	-4(r29),r30; push fp
 7839  00007844  001df020	add	r30,r0,r29; fp = sp
 7840  00007848  afbffff8	sw	-8(r29),r31; push ret addr
 7841  0000784c  2fbd0088	subui	r29,r29,#136; alloc local storage
 7842  00007850  afa20000	sw	0(r29),r2
 7843  00007854  afa30004	sw	4(r29),r3
 7844  00007858  23bdfff8	addi	r29,r29,#-8
 7845  0000785c  001d0820	add	r1,r0,r29
 7846  00007860  8fc20000	lw	r2,(r30)
 7847  00007864  ac220000	sw	(r1),r2
 7848  00007868  20020001	addi	r2,r0,#1
 7849  0000786c  ac220004	sw	4(r1),r2
 7850  00007870  0fff99ec	jal	_FsOpen
 7851  00007874  54000000	nop; delay slot nop
 7852  00007878  23bd0008	addi	r29,r29,#8
 7853  0000787c  afc1fff4	sw	-12(r30),r1
 7854  00007880  8fc1fff4	lw	r1,-12(r30)
 7855  00007884  68220000	slti	r2,r1,#0
 7856  00007888  104000d8	beqz	r2,L146_LF3
 7857  0000788c  54000000	nop; delay slot nop
 7858  00007890  23bdfff8	addi	r29,r29,#-8
 7859  00007894  001d0820	add	r1,r0,r29
 7860  00007898  3c020001	lhi	r2,((_debugstr)>>16)&0xffff
 7861  0000789c  244261cb	addui	r2,r2,(_debugstr)&0xffff
 7862  000078a0  ac220000	sw	(r1),r2
 7863  000078a4  20020066	addi	r2,r0,#102
 7864  000078a8  ac220004	sw	4(r1),r2
 7865  000078ac  0fffcba4	jal	_dindex
 7866  000078b0  54000000	nop; delay slot nop
 7867  000078b4  23bd0008	addi	r29,r29,#8
 7868  000078b8  64220000	snei	r2,r1,#0
 7869  000078bc  10400034	beqz	r2,L147_LF3
 7870  000078c0  54000000	nop; delay slot nop
 7871  000078c4  23bdfff0	addi	r29,r29,#-16
 7872  000078c8  001d0820	add	r1,r0,r29
 7873  000078cc  3c020001	lhi	r2,((LC51_LF3)>>16)&0xffff
 7874  000078d0  24425d84	addui	r2,r2,(LC51_LF3)&0xffff
 7875  000078d4  ac220000	sw	(r1),r2
 7876  000078d8  8fc20000	lw	r2,(r30)
 7877  000078dc  ac220004	sw	4(r1),r2
 7878  000078e0  8fc2fff4	lw	r2,-12(r30)
 7879  000078e4  ac220008	sw	8(r1),r2
 7880  000078e8  0c00ac90	jal	_printf
 7881  000078ec  54000000	nop; delay slot nop
 7882  000078f0  23bd0010	addi	r29,r29,#16
 7883  000078f4          	L147_LF3:
 7884  000078f4  23bdfff8	addi	r29,r29,#-8
 7885  000078f8  001d0820	add	r1,r0,r29
 7886  000078fc  3c020001	lhi	r2,((_debugstr)>>16)&0xffff
 7887  00007900  244261cb	addui	r2,r2,(_debugstr)&0xffff
 7888  00007904  ac220000	sw	(r1),r2
 7889  00007908  2002002b	addi	r2,r0,#43
 7890  0000790c  ac220004	sw	4(r1),r2
 7891  00007910  0fffcb40	jal	_dindex
 7892  00007914  54000000	nop; delay slot nop
 7893  00007918  23bd0008	addi	r29,r29,#8
 7894  0000791c  64220000	snei	r2,r1,#0
 7895  00007920  10400034	beqz	r2,L148_LF3
 7896  00007924  54000000	nop; delay slot nop
 7897  00007928  23bdfff0	addi	r29,r29,#-16
 7898  0000792c  001d0820	add	r1,r0,r29
 7899  00007930  3c020001	lhi	r2,((LC51_LF3)>>16)&0xffff
 7900  00007934  24425d84	addui	r2,r2,(LC51_LF3)&0xffff
 7901  00007938  ac220000	sw	(r1),r2
 7902  0000793c  8fc20000	lw	r2,(r30)
 7903  00007940  ac220004	sw	4(r1),r2
 7904  00007944  8fc2fff4	lw	r2,-12(r30)
 7905  00007948  ac220008	sw	8(r1),r2
 7906  0000794c  0c00ac2c	jal	_printf
 7907  00007950  54000000	nop; delay slot nop
 7908  00007954  23bd0010	addi	r29,r29,#16
 7909  00007958          	L148_LF3:
 7910  00007958  2001ffff	addi	r1,r0,#-1
 7911  0000795c  080004b8	j	L145_LF3
 7912  00007960  54000000	nop; delay slot nop
 7913  00007964          	L146_LF3:
 7914  00007964  23bdfff8	addi	r29,r29,#-8
 7915  00007968  001d0820	add	r1,r0,r29
 7916  0000796c  3c020001	lhi	r2,((_debugstr)>>16)&0xffff
 7917  00007970  244261cb	addui	r2,r2,(_debugstr)&0xffff
 7918  00007974  ac220000	sw	(r1),r2
 7919  00007978  20020066	addi	r2,r0,#102
 7920  0000797c  ac220004	sw	4(r1),r2
 7921  00007980  0fffcad0	jal	_dindex
 7922  00007984  54000000	nop; delay slot nop
 7923  00007988  23bd0008	addi	r29,r29,#8
 7924  0000798c  64220000	snei	r2,r1,#0
 7925  00007990  1040002c	beqz	r2,L149_LF3
 7926  00007994  54000000	nop; delay slot nop
 7927  00007998  23bdfff8	addi	r29,r29,#-8
 7928  0000799c  001d0820	add	r1,r0,r29
 7929  000079a0  3c020001	lhi	r2,((LC52_LF3)>>16)&0xffff
 7930  000079a4  24425db4	addui	r2,r2,(LC52_LF3)&0xffff
 7931  000079a8  ac220000	sw	(r1),r2
 7932  000079ac  8fc2fff4	lw	r2,-12(r30)
 7933  000079b0  ac220004	sw	4(r1),r2
 7934  000079b4  0c00abc4	jal	_printf
 7935  000079b8  54000000	nop; delay slot nop
 7936  000079bc  23bd0008	addi	r29,r29,#8
 7937  000079c0          	L149_LF3:
 7938  000079c0  23bdfff8	addi	r29,r29,#-8
 7939  000079c4  001d0820	add	r1,r0,r29
 7940  000079c8  3c020001	lhi	r2,((_debugstr)>>16)&0xffff
 7941  000079cc  244261cb	addui	r2,r2,(_debugstr)&0xffff
 7942  000079d0  ac220000	sw	(r1),r2
 7943  000079d4  2002002b	addi	r2,r0,#43
 7944  000079d8  ac220004	sw	4(r1),r2
 7945  000079dc  0fffca74	jal	_dindex
 7946  000079e0  54000000	nop; delay slot nop
 7947  000079e4  23bd0008	addi	r29,r29,#8
 7948  000079e8  64220000	snei	r2,r1,#0
 7949  000079ec  1040002c	beqz	r2,L150_LF3
 7950  000079f0  54000000	nop; delay slot nop
 7951  000079f4  23bdfff8	addi	r29,r29,#-8
 7952  000079f8  001d0820	add	r1,r0,r29
 7953  000079fc  3c020001	lhi	r2,((LC52_LF3)>>16)&0xffff
 7954  00007a00  24425db4	addui	r2,r2,(LC52_LF3)&0xffff
 7955  00007a04  ac220000	sw	(r1),r2
 7956  00007a08  8fc2fff4	lw	r2,-12(r30)
 7957  00007a0c  ac220004	sw	4(r1),r2
 7958  00007a10  0c00ab68	jal	_printf
 7959  00007a14  54000000	nop; delay slot nop
 7960  00007a18  23bd0008	addi	r29,r29,#8
 7961  00007a1c          	L150_LF3:
 7962  00007a1c  23bdfff0	addi	r29,r29,#-16
 7963  00007a20  001d0820	add	r1,r0,r29
 7964  00007a24  8fc2fff4	lw	r2,-12(r30)
 7965  00007a28  ac220000	sw	(r1),r2
 7966  00007a2c  23c2ff88	addi	r2,r30,#-120
 7967  00007a30  ac220004	sw	4(r1),r2
 7968  00007a34  20020064	addi	r2,r0,#100
 7969  00007a38  ac220008	sw	8(r1),r2
 7970  00007a3c  0fff9ee8	jal	_FsRead
 7971  00007a40  54000000	nop; delay slot nop
 7972  00007a44  23bd0010	addi	r29,r29,#16
 7973  00007a48  afc1fff0	sw	-16(r30),r1
 7974  00007a4c  8fc1fff0	lw	r1,-16(r30)
 7975  00007a50  64220064	snei	r2,r1,#100
 7976  00007a54  10400104	beqz	r2,L151_LF3
 7977  00007a58  54000000	nop; delay slot nop
 7978  00007a5c  23bdfff8	addi	r29,r29,#-8
 7979  00007a60  001d0820	add	r1,r0,r29
 7980  00007a64  3c020001	lhi	r2,((_debugstr)>>16)&0xffff
 7981  00007a68  244261cb	addui	r2,r2,(_debugstr)&0xffff
 7982  00007a6c  ac220000	sw	(r1),r2
 7983  00007a70  20020066	addi	r2,r0,#102
 7984  00007a74  ac220004	sw	4(r1),r2
 7985  00007a78  0fffc9d8	jal	_dindex
 7986  00007a7c  54000000	nop; delay slot nop
 7987  00007a80  23bd0008	addi	r29,r29,#8
 7988  00007a84  64220000	snei	r2,r1,#0
 7989  00007a88  1040003c	beqz	r2,L152_LF3
 7990  00007a8c  54000000	nop; delay slot nop
 7991  00007a90  23bdfff0	addi	r29,r29,#-16
 7992  00007a94  001d0820	add	r1,r0,r29
 7993  00007a98  3c020001	lhi	r2,((LC53_LF3)>>16)&0xffff
 7994  00007a9c  24425dd0	addui	r2,r2,(LC53_LF3)&0xffff
 7995  00007aa0  ac220000	sw	(r1),r2
 7996  00007aa4  8fc2fff0	lw	r2,-16(r30)
 7997  00007aa8  ac220004	sw	4(r1),r2
 7998  00007aac  20020064	addi	r2,r0,#100
 7999  00007ab0  ac220008	sw	8(r1),r2
 8000  00007ab4  8fc20000	lw	r2,(r30)
 8001  00007ab8  ac22000c	sw	12(r1),r2
 8002  00007abc  0c00aabc	jal	_printf
 8003  00007ac0  54000000	nop; delay slot nop
 8004  00007ac4  23bd0010	addi	r29,r29,#16
 8005  00007ac8          	L152_LF3:
 8006  00007ac8  23bdfff8	addi	r29,r29,#-8
 8007  00007acc  001d0820	add	r1,r0,r29
 8008  00007ad0  3c020001	lhi	r2,((_debugstr)>>16)&0xffff
 8009  00007ad4  244261cb	addui	r2,r2,(_debugstr)&0xffff
 8010  00007ad8  ac220000	sw	(r1),r2
 8011  00007adc  2002002b	addi	r2,r0,#43
 8012  00007ae0  ac220004	sw	4(r1),r2
 8013  00007ae4  0fffc96c	jal	_dindex
 8014  00007ae8  54000000	nop; delay slot nop
 8015  00007aec  23bd0008	addi	r29,r29,#8
 8016  00007af0  64220000	snei	r2,r1,#0
 8017  00007af4  1040003c	beqz	r2,L153_LF3
 8018  00007af8  54000000	nop; delay slot nop
 8019  00007afc  23bdfff0	addi	r29,r29,#-16
 8020  00007b00  001d0820	add	r1,r0,r29
 8021  00007b04  3c020001	lhi	r2,((LC53_LF3)>>16)&0xffff
 8022  00007b08  24425dd0	addui	r2,r2,(LC53_LF3)&0xffff
 8023  00007b0c  ac220000	sw	(r1),r2
 8024  00007b10  8fc2fff0	lw	r2,-16(r30)
 8025  00007b14  ac220004	sw	4(r1),r2
 8026  00007b18  20020064	addi	r2,r0,#100
 8027  00007b1c  ac220008	sw	8(r1),r2
 8028  00007b20  8fc20000	lw	r2,(r30)
 8029  00007b24  ac22000c	sw	12(r1),r2
 8030  00007b28  0c00aa50	jal	_printf
 8031  00007b2c  54000000	nop; delay slot nop
 8032  00007b30  23bd0010	addi	r29,r29,#16
 8033  00007b34          	L153_LF3:
 8034  00007b34  23bdfff8	addi	r29,r29,#-8
 8035  00007b38  001d0820	add	r1,r0,r29
 8036  00007b3c  8fc2fff4	lw	r2,-12(r30)
 8037  00007b40  ac220000	sw	(r1),r2
 8038  00007b44  0fff9cd4	jal	_FsClose
 8039  00007b48  54000000	nop; delay slot nop
 8040  00007b4c  23bd0008	addi	r29,r29,#8
 8041  00007b50  2001ffff	addi	r1,r0,#-1
 8042  00007b54  080002c0	j	L145_LF3
 8043  00007b58  54000000	nop; delay slot nop
 8044  00007b5c          	L151_LF3:
 8045  00007b5c  23bdfff8	addi	r29,r29,#-8
 8046  00007b60  001d0820	add	r1,r0,r29
 8047  00007b64  23c2ff88	addi	r2,r30,#-120
 8048  00007b68  ac220000	sw	(r1),r2
 8049  00007b6c  3c020001	lhi	r2,((LC54_LF3)>>16)&0xffff
 8050  00007b70  24425e08	addui	r2,r2,(LC54_LF3)&0xffff
 8051  00007b74  ac220004	sw	4(r1),r2
 8052  00007b78  0fffc744	jal	_dstrstr
 8053  00007b7c  54000000	nop; delay slot nop
 8054  00007b80  23bd0008	addi	r29,r29,#8
 8055  00007b84  64220000	snei	r2,r1,#0
 8056  00007b88  144000c8	bnez	r2,L154_LF3
 8057  00007b8c  54000000	nop; delay slot nop
 8058  00007b90  23bdfff8	addi	r29,r29,#-8
 8059  00007b94  001d0820	add	r1,r0,r29
 8060  00007b98  3c020001	lhi	r2,((_debugstr)>>16)&0xffff
 8061  00007b9c  244261cb	addui	r2,r2,(_debugstr)&0xffff
 8062  00007ba0  ac220000	sw	(r1),r2
 8063  00007ba4  20020066	addi	r2,r0,#102
 8064  00007ba8  ac220004	sw	4(r1),r2
 8065  00007bac  0fffc8a4	jal	_dindex
 8066  00007bb0  54000000	nop; delay slot nop
 8067  00007bb4  23bd0008	addi	r29,r29,#8
 8068  00007bb8  64220000	snei	r2,r1,#0
 8069  00007bbc  1040002c	beqz	r2,L155_LF3
 8070  00007bc0  54000000	nop; delay slot nop
 8071  00007bc4  23bdfff8	addi	r29,r29,#-8
 8072  00007bc8  001d0820	add	r1,r0,r29
 8073  00007bcc  3c020001	lhi	r2,((LC55_LF3)>>16)&0xffff
 8074  00007bd0  24425e10	addui	r2,r2,(LC55_LF3)&0xffff
 8075  00007bd4  ac220000	sw	(r1),r2
 8076  00007bd8  8fc20000	lw	r2,(r30)
 8077  00007bdc  ac220004	sw	4(r1),r2
 8078  00007be0  0c00a998	jal	_printf
 8079  00007be4  54000000	nop; delay slot nop
 8080  00007be8  23bd0008	addi	r29,r29,#8
 8081  00007bec          	L155_LF3:
 8082  00007bec  23bdfff8	addi	r29,r29,#-8
 8083  00007bf0  001d0820	add	r1,r0,r29
 8084  00007bf4  3c020001	lhi	r2,((_debugstr)>>16)&0xffff
 8085  00007bf8  244261cb	addui	r2,r2,(_debugstr)&0xffff
 8086  00007bfc  ac220000	sw	(r1),r2
 8087  00007c00  2002002b	addi	r2,r0,#43
 8088  00007c04  ac220004	sw	4(r1),r2
 8089  00007c08  0fffc848	jal	_dindex
 8090  00007c0c  54000000	nop; delay slot nop
 8091  00007c10  23bd0008	addi	r29,r29,#8
 8092  00007c14  64220000	snei	r2,r1,#0
 8093  00007c18  1040002c	beqz	r2,L156_LF3
 8094  00007c1c  54000000	nop; delay slot nop
 8095  00007c20  23bdfff8	addi	r29,r29,#-8
 8096  00007c24  001d0820	add	r1,r0,r29
 8097  00007c28  3c020001	lhi	r2,((LC55_LF3)>>16)&0xffff
 8098  00007c2c  24425e10	addui	r2,r2,(LC55_LF3)&0xffff
 8099  00007c30  ac220000	sw	(r1),r2
 8100  00007c34  8fc20000	lw	r2,(r30)
 8101  00007c38  ac220004	sw	4(r1),r2
 8102  00007c3c  0c00a93c	jal	_printf
 8103  00007c40  54000000	nop; delay slot nop
 8104  00007c44  23bd0008	addi	r29,r29,#8
 8105  00007c48          	L156_LF3:
 8106  00007c48  2001ffff	addi	r1,r0,#-1
 8107  00007c4c  080001c8	j	L145_LF3
 8108  00007c50  54000000	nop; delay slot nop
 8109  00007c54          	L154_LF3:
 8110  00007c54  23bdfff8	addi	r29,r29,#-8
 8111  00007c58  001d0820	add	r1,r0,r29
 8112  00007c5c  23c2ff88	addi	r2,r30,#-120
 8113  00007c60  ac220000	sw	(r1),r2
 8114  00007c64  2002003a	addi	r2,r0,#58
 8115  00007c68  ac220004	sw	4(r1),r2
 8116  00007c6c  0fffc7e4	jal	_dindex
 8117  00007c70  54000000	nop; delay slot nop
 8118  00007c74  23bd0008	addi	r29,r29,#8
 8119  00007c78  20220001	addi	r2,r1,#1
 8120  00007c7c  afc2ff84	sw	-124(r30),r2
 8121  00007c80  23bdfff0	addi	r29,r29,#-16
 8122  00007c84  001d0820	add	r1,r0,r29
 8123  00007c88  8fc2ff84	lw	r2,-124(r30)
 8124  00007c8c  ac220000	sw	(r1),r2
 8125  00007c90  23c2ff84	addi	r2,r30,#-124
 8126  00007c94  ac220004	sw	4(r1),r2
 8127  00007c98  20020010	addi	r2,r0,#16
 8128  00007c9c  ac220008	sw	8(r1),r2
 8129  00007ca0  0fffc9d0	jal	_dstrtol
 8130  00007ca4  54000000	nop; delay slot nop
 8131  00007ca8  23bd0010	addi	r29,r29,#16
 8132  00007cac  8fc20004	lw	r2,4(r30)
 8133  00007cb0  ac410000	sw	(r2),r1
 8134  00007cb4  23bdfff0	addi	r29,r29,#-16
 8135  00007cb8  001d0820	add	r1,r0,r29
 8136  00007cbc  8fc2ff84	lw	r2,-124(r30)
 8137  00007cc0  ac220000	sw	(r1),r2
 8138  00007cc4  23c2ff84	addi	r2,r30,#-124
 8139  00007cc8  ac220004	sw	4(r1),r2
 8140  00007ccc  20020010	addi	r2,r0,#16
 8141  00007cd0  ac220008	sw	8(r1),r2
 8142  00007cd4  0fffc99c	jal	_dstrtol
 8143  00007cd8  54000000	nop; delay slot nop
 8144  00007cdc  23bd0010	addi	r29,r29,#16
 8145  00007ce0  afc1fff0	sw	-16(r30),r1
 8146  00007ce4  23bdfff0	addi	r29,r29,#-16
 8147  00007ce8  001d0820	add	r1,r0,r29
 8148  00007cec  8fc2ff84	lw	r2,-124(r30)
 8149  00007cf0  ac220000	sw	(r1),r2
 8150  00007cf4  23c2ff84	addi	r2,r30,#-124
 8151  00007cf8  ac220004	sw	4(r1),r2
 8152  00007cfc  20020010	addi	r2,r0,#16
 8153  00007d00  ac220008	sw	8(r1),r2
 8154  00007d04  0fffc96c	jal	_dstrtol
 8155  00007d08  54000000	nop; delay slot nop
 8156  00007d0c  23bd0010	addi	r29,r29,#16
 8157  00007d10  8fc20008	lw	r2,8(r30)
 8158  00007d14  ac410000	sw	(r2),r1
 8159  00007d18  23bdfff0	addi	r29,r29,#-16
 8160  00007d1c  001d0820	add	r1,r0,r29
 8161  00007d20  8fc2ff84	lw	r2,-124(r30)
 8162  00007d24  ac220000	sw	(r1),r2
 8163  00007d28  23c2ff84	addi	r2,r30,#-124
 8164  00007d2c  ac220004	sw	4(r1),r2
 8165  00007d30  20020010	addi	r2,r0,#16
 8166  00007d34  ac220008	sw	8(r1),r2
 8167  00007d38  0fffc938	jal	_dstrtol
 8168  00007d3c  54000000	nop; delay slot nop
 8169  00007d40  23bd0010	addi	r29,r29,#16
 8170  00007d44  8fc2000c	lw	r2,12(r30)
 8171  00007d48  ac410000	sw	(r2),r1
 8172  00007d4c  23bdfff0	addi	r29,r29,#-16
 8173  00007d50  001d0820	add	r1,r0,r29
 8174  00007d54  8fc2ff84	lw	r2,-124(r30)
 8175  00007d58  ac220000	sw	(r1),r2
 8176  00007d5c  23c2ff84	addi	r2,r30,#-124
 8177  00007d60  ac220004	sw	4(r1),r2
 8178  00007d64  20020010	addi	r2,r0,#16
 8179  00007d68  ac220008	sw	8(r1),r2
 8180  00007d6c  0fffc904	jal	_dstrtol
 8181  00007d70  54000000	nop; delay slot nop
 8182  00007d74  23bd0010	addi	r29,r29,#16
 8183  00007d78  8fc20010	lw	r2,16(r30)
 8184  00007d7c  ac410000	sw	(r2),r1
 8185  00007d80  23bdfff0	addi	r29,r29,#-16
 8186  00007d84  001d0820	add	r1,r0,r29
 8187  00007d88  8fc2ff84	lw	r2,-124(r30)
 8188  00007d8c  ac220000	sw	(r1),r2
 8189  00007d90  23c2ff84	addi	r2,r30,#-124
 8190  00007d94  ac220004	sw	4(r1),r2
 8191  00007d98  20020010	addi	r2,r0,#16
 8192  00007d9c  ac220008	sw	8(r1),r2
 8193  00007da0  0fffc8d0	jal	_dstrtol
 8194  00007da4  54000000	nop; delay slot nop
 8195  00007da8  23bd0010	addi	r29,r29,#16
 8196  00007dac  8fc20014	lw	r2,20(r30)
 8197  00007db0  ac410000	sw	(r2),r1
 8198  00007db4  23bdfff8	addi	r29,r29,#-8
 8199  00007db8  001d0820	add	r1,r0,r29
 8200  00007dbc  23c2ff88	addi	r2,r30,#-120
 8201  00007dc0  ac220000	sw	(r1),r2
 8202  00007dc4  2002000a	addi	r2,r0,#10
 8203  00007dc8  ac220004	sw	4(r1),r2
 8204  00007dcc  0fffc684	jal	_dindex
 8205  00007dd0  54000000	nop; delay slot nop
 8206  00007dd4  23bd0008	addi	r29,r29,#8
 8207  00007dd8  23c2ff88	addi	r2,r30,#-120
 8208  00007ddc  2043ffff	addi	r3,r2,#-1
 8209  00007de0  00230822	sub	r1,r1,r3
 8210  00007de4  23bdfff0	addi	r29,r29,#-16
 8211  00007de8  001d1020	add	r2,r0,r29
 8212  00007dec  8fc3fff4	lw	r3,-12(r30)
 8213  00007df0  ac430000	sw	(r2),r3
 8214  00007df4  ac410004	sw	4(r2),r1
 8215  00007df8  20010000	addi	r1,r0,#0
 8216  00007dfc  ac410008	sw	8(r2),r1
 8217  00007e00  0fff9d24	jal	_FsSeek
 8218  00007e04  54000000	nop; delay slot nop
 8219  00007e08  23bd0010	addi	r29,r29,#16
 8220  00007e0c  8fc1fff4	lw	r1,-12(r30)
 8221  00007e10  08000004	j	L145_LF3
 8222  00007e14  54000000	nop; delay slot nop
 8223  00007e18          	L145_LF3:
 8224  00007e18  8fa20000	lw	r2,0(r29)
 8225  00007e1c  8fa30004	lw	r3,4(r29)
 8226  00007e20  8fdffff8	lw	r31,-8(r30)
 8227  00007e24  001ee820	add	r29,r0,r30
 8228  00007e28  8fdefffc	lw	r30,-4(r30)
 8229  00007e2c  4be00000	jr	r31
 8230  00007e30  54000000	nop
 8231  00007e34          	.endproc _ProcessGetCodeInfo
 8232  00007e34          	.data
 8233  00015e53          	.align 2
 8234  00015e54          	LC56_LF3:
 8235  00015e54  476f7420	.ascii "Got %d bytes at offset %d ...\000"
 8235  00015e58  25642062	
 8235  00015e5c  79746573	
 8235  00015e60  20617420	
 8235  00015e64  6f666673	
 8235  00015e68  65742025	
 8235  00015e6c  64202e2e	
 8235  00015e70  2e00    	
 8236  00015e72          	.align 2
 8237  00015e74          	LC57_LF3:
 8238  00015e74  20746572	.ascii " terminated at %d.\n\000"
 8238  00015e78  6d696e61	
 8238  00015e7c  74656420	
 8238  00015e80  61742025	
 8238  00015e84  642e0a00	
 8239  00015e88          	.align 2
 8240  00015e88          	LC58_LF3:
 8241  00015e88  42756666	.ascii "Buffer is \'%s\'\n\000"
 8241  00015e8c  65722069	
 8241  00015e90  73202725	
 8241  00015e94  73270a00	
 8242  00015e98          	.align 2
 8243  00015e98          	LC59_LF3:
 8244  00015e98  4e657720	.ascii "New address is 0x%x.\n\000"
 8244  00015e9c  61646472	
 8244  00015ea0  65737320	
 8244  00015ea4  69732030	
 8244  00015ea8  7825782e	
 8244  00015eac  0a00    	
 8245  00015eae          	.align 2
 8246  00015eb0          	LC60_LF3:
 8247  00015eb0  5365656b	.ascii "Seeking to %d and returning %d bytes!\n\000"
 8247  00015eb4  696e6720	
 8247  00015eb8  746f2025	
 8247  00015ebc  6420616e	
 8247  00015ec0  64207265	
 8247  00015ec4  7475726e	
 8247  00015ec8  696e6720	
 8247  00015ecc  25642062	
 8247  00015ed0  79746573	
 8247  00015ed4  210a00  	
 8248  00015ed7          	.text
 8249  00007e34          	.align 2
 8250  00007e34          	.proc _ProcessGetFromFile
 8251  00007e34          	.global _ProcessGetFromFile
 8252  00007e34          	_ProcessGetFromFile:
 8253                      ;  Function 'ProcessGetFromFile'; 224 bytes of locals, 3 regs to save.
 8254  00007e34  afbefffc	sw	-4(r29),r30; push fp
 8255  00007e38  001df020	add	r30,r0,r29; fp = sp
 8256  00007e3c  afbffff8	sw	-8(r29),r31; push ret addr
 8257  00007e40  2fbd00f8	subui	r29,r29,#248; alloc local storage
 8258  00007e44  afa20000	sw	0(r29),r2
 8259  00007e48  afa30004	sw	4(r29),r3
 8260  00007e4c  afa40008	sw	8(r29),r4
 8261  00007e50  8fc10004	lw	r1,4(r30)
 8262  00007e54  afc1ff1c	sw	-228(r30),r1
 8263  00007e58  23c1ff28	addi	r1,r30,#-216
 8264  00007e5c  afc1ff18	sw	-232(r30),r1
 8265  00007e60  23bdfff0	addi	r29,r29,#-16
 8266  00007e64  001d0820	add	r1,r0,r29
 8267  00007e68  8fc20000	lw	r2,(r30)
 8268  00007e6c  ac220000	sw	(r1),r2
 8269  00007e70  20020000	addi	r2,r0,#0
 8270  00007e74  ac220004	sw	4(r1),r2
 8271  00007e78  20020001	addi	r2,r0,#1
 8272  00007e7c  ac220008	sw	8(r1),r2
 8273  00007e80  0fff9ca4	jal	_FsSeek
 8274  00007e84  54000000	nop; delay slot nop
 8275  00007e88  23bd0010	addi	r29,r29,#16
 8276  00007e8c  afc1ff20	sw	-224(r30),r1
 8277  00007e90  8fc1000c	lw	r1,12(r30)
 8278  00007e94  00011020	add	r2,r0,r1
 8279  00007e98  50410001	slli	r1,r2,#0x1
 8280  00007e9c  afc1000c	sw	12(r30),r1
 8281  00007ea0  8fc1000c	lw	r1,12(r30)
 8282  00007ea4  6c2200c8	sgtui	r2,r1,#200
 8283  00007ea8  1040000c	beqz	r2,L158_LF3
 8284  00007eac  54000000	nop; delay slot nop
 8285  00007eb0  200100c8	addi	r1,r0,#200
 8286  00007eb4  afc1000c	sw	12(r30),r1
 8287  00007eb8          	L158_LF3:
 8288  00007eb8  23bdfff0	addi	r29,r29,#-16
 8289  00007ebc  001d0820	add	r1,r0,r29
 8290  00007ec0  8fc20000	lw	r2,(r30)
 8291  00007ec4  ac220000	sw	(r1),r2
 8292  00007ec8  23c2ff28	addi	r2,r30,#-216
 8293  00007ecc  ac220004	sw	4(r1),r2
 8294  00007ed0  8fc2000c	lw	r2,12(r30)
 8295  00007ed4  ac220008	sw	8(r1),r2
 8296  00007ed8  0fff9a4c	jal	_FsRead
 8297  00007edc  54000000	nop; delay slot nop
 8298  00007ee0  23bd0010	addi	r29,r29,#16
 8299  00007ee4  afc1ff24	sw	-220(r30),r1
 8300  00007ee8  8fc1ff24	lw	r1,-220(r30)
 8301  00007eec  70220000	slei	r2,r1,#0
 8302  00007ef0  10400010	beqz	r2,L159_LF3
 8303  00007ef4  54000000	nop; delay slot nop
 8304  00007ef8  20010000	addi	r1,r0,#0
 8305  00007efc  08000744	j	L157_LF3
 8306  00007f00  54000000	nop; delay slot nop
 8307  00007f04          	L159_LF3:
 8308  00007f04  23bdfff8	addi	r29,r29,#-8
 8309  00007f08  001d0820	add	r1,r0,r29
 8310  00007f0c  3c020001	lhi	r2,((_debugstr)>>16)&0xffff
 8311  00007f10  244261cb	addui	r2,r2,(_debugstr)&0xffff
 8312  00007f14  ac220000	sw	(r1),r2
 8313  00007f18  20020066	addi	r2,r0,#102
 8314  00007f1c  ac220004	sw	4(r1),r2
 8315  00007f20  0fffc530	jal	_dindex
 8316  00007f24  54000000	nop; delay slot nop
 8317  00007f28  23bd0008	addi	r29,r29,#8
 8318  00007f2c  64220000	snei	r2,r1,#0
 8319  00007f30  10400034	beqz	r2,L160_LF3
 8320  00007f34  54000000	nop; delay slot nop
 8321  00007f38  23bdfff0	addi	r29,r29,#-16
 8322  00007f3c  001d0820	add	r1,r0,r29
 8323  00007f40  3c020001	lhi	r2,((LC56_LF3)>>16)&0xffff
 8324  00007f44  24425e54	addui	r2,r2,(LC56_LF3)&0xffff
 8325  00007f48  ac220000	sw	(r1),r2
 8326  00007f4c  8fc2ff24	lw	r2,-220(r30)
 8327  00007f50  ac220004	sw	4(r1),r2
 8328  00007f54  8fc2ff20	lw	r2,-224(r30)
 8329  00007f58  ac220008	sw	8(r1),r2
 8330  00007f5c  0c00a61c	jal	_printf
 8331  00007f60  54000000	nop; delay slot nop
 8332  00007f64  23bd0010	addi	r29,r29,#16
 8333  00007f68          	L160_LF3:
 8334  00007f68  23bdfff8	addi	r29,r29,#-8
 8335  00007f6c  001d0820	add	r1,r0,r29
 8336  00007f70  3c020001	lhi	r2,((_debugstr)>>16)&0xffff
 8337  00007f74  244261cb	addui	r2,r2,(_debugstr)&0xffff
 8338  00007f78  ac220000	sw	(r1),r2
 8339  00007f7c  2002002b	addi	r2,r0,#43
 8340  00007f80  ac220004	sw	4(r1),r2
 8341  00007f84  0fffc4cc	jal	_dindex
 8342  00007f88  54000000	nop; delay slot nop
 8343  00007f8c  23bd0008	addi	r29,r29,#8
 8344  00007f90  64220000	snei	r2,r1,#0
 8345  00007f94  10400034	beqz	r2,L161_LF3
 8346  00007f98  54000000	nop; delay slot nop
 8347  00007f9c  23bdfff0	addi	r29,r29,#-16
 8348  00007fa0  001d0820	add	r1,r0,r29
 8349  00007fa4  3c020001	lhi	r2,((LC56_LF3)>>16)&0xffff
 8350  00007fa8  24425e54	addui	r2,r2,(LC56_LF3)&0xffff
 8351  00007fac  ac220000	sw	(r1),r2
 8352  00007fb0  8fc2ff24	lw	r2,-220(r30)
 8353  00007fb4  ac220004	sw	4(r1),r2
 8354  00007fb8  8fc2ff20	lw	r2,-224(r30)
 8355  00007fbc  ac220008	sw	8(r1),r2
 8356  00007fc0  0c00a5b8	jal	_printf
 8357  00007fc4  54000000	nop; delay slot nop
 8358  00007fc8  23bd0010	addi	r29,r29,#16
 8359  00007fcc          	L161_LF3:
 8360  00007fcc  54000000	nop
 8361  00007fd0          	L162_LF3:
 8362  00007fd0  8fc1ff24	lw	r1,-220(r30)
 8363  00007fd4  2022ffff	addi	r2,r1,#-1
 8364  00007fd8  00020820	add	r1,r0,r2
 8365  00007fdc  afc1ff24	sw	-220(r30),r1
 8366  00007fe0  23c2ff28	addi	r2,r30,#-216
 8367  00007fe4  00410820	add	r1,r2,r1
 8368  00007fe8  90220000	lbu	r2,(r1)
 8369  00007fec  6441000a	snei	r1,r2,#10
 8370  00007ff0  1420000c	bnez	r1,L164_LF3
 8371  00007ff4  54000000	nop; delay slot nop
 8372  00007ff8  0800000c	j	L163_LF3
 8373  00007ffc  54000000	nop; delay slot nop
 8374  00008000          	L164_LF3:
 8375  00008000  0bffffcc	j	L162_LF3
 8376  00008004  54000000	nop; delay slot nop
 8377  00008008          	L163_LF3:
 8378  00008008  23c1ff29	addi	r1,r30,#-215
 8379  0000800c  8fc2ff24	lw	r2,-220(r30)
 8380  00008010  00220820	add	r1,r1,r2
 8381  00008014  2002005a	addi	r2,r0,(#0x5a)&0xff
 8382  00008018  a0220000	sb	(r1),r2
 8383  0000801c  23c1ff2a	addi	r1,r30,#-214
 8384  00008020  8fc2ff24	lw	r2,-220(r30)
 8385  00008024  00220820	add	r1,r1,r2
 8386  00008028  20020000	addi	r2,r0,(#0x0)&0xff
 8387  0000802c  a0220000	sb	(r1),r2
 8388  00008030  23bdfff8	addi	r29,r29,#-8
 8389  00008034  001d0820	add	r1,r0,r29
 8390  00008038  3c020001	lhi	r2,((_debugstr)>>16)&0xffff
 8391  0000803c  244261cb	addui	r2,r2,(_debugstr)&0xffff
 8392  00008040  ac220000	sw	(r1),r2
 8393  00008044  20020066	addi	r2,r0,#102
 8394  00008048  ac220004	sw	4(r1),r2
 8395  0000804c  0fffc404	jal	_dindex
 8396  00008050  54000000	nop; delay slot nop
 8397  00008054  23bd0008	addi	r29,r29,#8
 8398  00008058  64220000	snei	r2,r1,#0
 8399  0000805c  1040002c	beqz	r2,L165_LF3
 8400  00008060  54000000	nop; delay slot nop
 8401  00008064  23bdfff8	addi	r29,r29,#-8
 8402  00008068  001d0820	add	r1,r0,r29
 8403  0000806c  3c020001	lhi	r2,((LC57_LF3)>>16)&0xffff
 8404  00008070  24425e74	addui	r2,r2,(LC57_LF3)&0xffff
 8405  00008074  ac220000	sw	(r1),r2
 8406  00008078  8fc2ff24	lw	r2,-220(r30)
 8407  0000807c  ac220004	sw	4(r1),r2
 8408  00008080  0c00a4f8	jal	_printf
 8409  00008084  54000000	nop; delay slot nop
 8410  00008088  23bd0008	addi	r29,r29,#8
 8411  0000808c          	L165_LF3:
 8412  0000808c  23bdfff8	addi	r29,r29,#-8
 8413  00008090  001d0820	add	r1,r0,r29
 8414  00008094  3c020001	lhi	r2,((_debugstr)>>16)&0xffff
 8415  00008098  244261cb	addui	r2,r2,(_debugstr)&0xffff
 8416  0000809c  ac220000	sw	(r1),r2
 8417  000080a0  2002002b	addi	r2,r0,#43
 8418  000080a4  ac220004	sw	4(r1),r2
 8419  000080a8  0fffc3a8	jal	_dindex
 8420  000080ac  54000000	nop; delay slot nop
 8421  000080b0  23bd0008	addi	r29,r29,#8
 8422  000080b4  64220000	snei	r2,r1,#0
 8423  000080b8  1040002c	beqz	r2,L166_LF3
 8424  000080bc  54000000	nop; delay slot nop
 8425  000080c0  23bdfff8	addi	r29,r29,#-8
 8426  000080c4  001d0820	add	r1,r0,r29
 8427  000080c8  3c020001	lhi	r2,((LC57_LF3)>>16)&0xffff
 8428  000080cc  24425e74	addui	r2,r2,(LC57_LF3)&0xffff
 8429  000080d0  ac220000	sw	(r1),r2
 8430  000080d4  8fc2ff24	lw	r2,-220(r30)
 8431  000080d8  ac220004	sw	4(r1),r2
 8432  000080dc  0c00a49c	jal	_printf
 8433  000080e0  54000000	nop; delay slot nop
 8434  000080e4  23bd0008	addi	r29,r29,#8
 8435  000080e8          	L166_LF3:
 8436  000080e8  23bdfff8	addi	r29,r29,#-8
 8437  000080ec  001d0820	add	r1,r0,r29
 8438  000080f0  3c020001	lhi	r2,((_debugstr)>>16)&0xffff
 8439  000080f4  244261cb	addui	r2,r2,(_debugstr)&0xffff
 8440  000080f8  ac220000	sw	(r1),r2
 8441  000080fc  20020066	addi	r2,r0,#102
 8442  00008100  ac220004	sw	4(r1),r2
 8443  00008104  0fffc34c	jal	_dindex
 8444  00008108  54000000	nop; delay slot nop
 8445  0000810c  23bd0008	addi	r29,r29,#8
 8446  00008110  64220000	snei	r2,r1,#0
 8447  00008114  1040002c	beqz	r2,L167_LF3
 8448  00008118  54000000	nop; delay slot nop
 8449  0000811c  23bdfff8	addi	r29,r29,#-8
 8450  00008120  001d0820	add	r1,r0,r29
 8451  00008124  3c020001	lhi	r2,((LC58_LF3)>>16)&0xffff
 8452  00008128  24425e88	addui	r2,r2,(LC58_LF3)&0xffff
 8453  0000812c  ac220000	sw	(r1),r2
 8454  00008130  23c2ff28	addi	r2,r30,#-216
 8455  00008134  ac220004	sw	4(r1),r2
 8456  00008138  0c00a440	jal	_printf
 8457  0000813c  54000000	nop; delay slot nop
 8458  00008140  23bd0008	addi	r29,r29,#8
 8459  00008144          	L167_LF3:
 8460  00008144  23bdfff8	addi	r29,r29,#-8
 8461  00008148  001d0820	add	r1,r0,r29
 8462  0000814c  3c020001	lhi	r2,((_debugstr)>>16)&0xffff
 8463  00008150  244261cb	addui	r2,r2,(_debugstr)&0xffff
 8464  00008154  ac220000	sw	(r1),r2
 8465  00008158  2002002b	addi	r2,r0,#43
 8466  0000815c  ac220004	sw	4(r1),r2
 8467  00008160  0fffc2f0	jal	_dindex
 8468  00008164  54000000	nop; delay slot nop
 8469  00008168  23bd0008	addi	r29,r29,#8
 8470  0000816c  64220000	snei	r2,r1,#0
 8471  00008170  1040002c	beqz	r2,L168_LF3
 8472  00008174  54000000	nop; delay slot nop
 8473  00008178  23bdfff8	addi	r29,r29,#-8
 8474  0000817c  001d0820	add	r1,r0,r29
 8475  00008180  3c020001	lhi	r2,((LC58_LF3)>>16)&0xffff
 8476  00008184  24425e88	addui	r2,r2,(LC58_LF3)&0xffff
 8477  00008188  ac220000	sw	(r1),r2
 8478  0000818c  23c2ff28	addi	r2,r30,#-216
 8479  00008190  ac220004	sw	4(r1),r2
 8480  00008194  0c00a3e4	jal	_printf
 8481  00008198  54000000	nop; delay slot nop
 8482  0000819c  23bd0008	addi	r29,r29,#8
 8483  000081a0          	L168_LF3:
 8484  000081a0  20010000	addi	r1,r0,#0
 8485  000081a4  afc1ff24	sw	-220(r30),r1
 8486  000081a8          	L169_LF3:
 8487  000081a8  23bdfff8	addi	r29,r29,#-8
 8488  000081ac  001d0820	add	r1,r0,r29
 8489  000081b0  8fc2ff18	lw	r2,-232(r30)
 8490  000081b4  ac220000	sw	(r1),r2
 8491  000081b8  2002005a	addi	r2,r0,#90
 8492  000081bc  ac220004	sw	4(r1),r2
 8493  000081c0  0fffc290	jal	_dindex
 8494  000081c4  54000000	nop; delay slot nop
 8495  000081c8  23bd0008	addi	r29,r29,#8
 8496  000081cc  64220000	snei	r2,r1,#0
 8497  000081d0  1440000c	bnez	r2,L171_LF3
 8498  000081d4  54000000	nop; delay slot nop
 8499  000081d8  08000338	j	L170_LF3
 8500  000081dc  54000000	nop; delay slot nop
 8501  000081e0          	L171_LF3:
 8502  000081e0  23bdfff8	addi	r29,r29,#-8
 8503  000081e4  001d0820	add	r1,r0,r29
 8504  000081e8  8fc2ff18	lw	r2,-232(r30)
 8505  000081ec  ac220000	sw	(r1),r2
 8506  000081f0  2002003a	addi	r2,r0,#58
 8507  000081f4  ac220004	sw	4(r1),r2
 8508  000081f8  0fffc258	jal	_dindex
 8509  000081fc  54000000	nop; delay slot nop
 8510  00008200  23bd0008	addi	r29,r29,#8
 8511  00008204  64220000	snei	r2,r1,#0
 8512  00008208  1440000c	bnez	r2,L172_LF3
 8513  0000820c  54000000	nop; delay slot nop
 8514  00008210  08000300	j	L170_LF3
 8515  00008214  54000000	nop; delay slot nop
 8516  00008218          	L172_LF3:
 8517  00008218  8fc1ff18	lw	r1,-232(r30)
 8518  0000821c  90220000	lbu	r2,(r1)
 8519  00008220  6441003a	snei	r1,r2,#58
 8520  00008224  10200110	beqz	r1,L173_LF3
 8521  00008228  54000000	nop; delay slot nop
 8522  0000822c  8fc1ff24	lw	r1,-220(r30)
 8523  00008230  6c220000	sgti	r2,r1,#0
 8524  00008234  1040000c	beqz	r2,L174_LF3
 8525  00008238  54000000	nop; delay slot nop
 8526  0000823c  080002d4	j	L170_LF3
 8527  00008240  54000000	nop; delay slot nop
 8528  00008244          	L174_LF3:
 8529  00008244  23bdfff0	addi	r29,r29,#-16
 8530  00008248  001d0820	add	r1,r0,r29
 8531  0000824c  8fc2ff18	lw	r2,-232(r30)
 8532  00008250  ac220000	sw	(r1),r2
 8533  00008254  23c2ff18	addi	r2,r30,#-232
 8534  00008258  ac220004	sw	4(r1),r2
 8535  0000825c  20020010	addi	r2,r0,#16
 8536  00008260  ac220008	sw	8(r1),r2
 8537  00008264  0fffc40c	jal	_dstrtol
 8538  00008268  54000000	nop; delay slot nop
 8539  0000826c  23bd0010	addi	r29,r29,#16
 8540  00008270  8fc20008	lw	r2,8(r30)
 8541  00008274  ac410000	sw	(r2),r1
 8542  00008278  23bdfff8	addi	r29,r29,#-8
 8543  0000827c  001d0820	add	r1,r0,r29
 8544  00008280  3c020001	lhi	r2,((_debugstr)>>16)&0xffff
 8545  00008284  244261cb	addui	r2,r2,(_debugstr)&0xffff
 8546  00008288  ac220000	sw	(r1),r2
 8547  0000828c  20020066	addi	r2,r0,#102
 8548  00008290  ac220004	sw	4(r1),r2
 8549  00008294  0fffc1bc	jal	_dindex
 8550  00008298  54000000	nop; delay slot nop
 8551  0000829c  23bd0008	addi	r29,r29,#8
 8552  000082a0  64220000	snei	r2,r1,#0
 8553  000082a4  10400030	beqz	r2,L175_LF3
 8554  000082a8  54000000	nop; delay slot nop
 8555  000082ac  23bdfff8	addi	r29,r29,#-8
 8556  000082b0  001d0820	add	r1,r0,r29
 8557  000082b4  3c020001	lhi	r2,((LC59_LF3)>>16)&0xffff
 8558  000082b8  24425e98	addui	r2,r2,(LC59_LF3)&0xffff
 8559  000082bc  ac220000	sw	(r1),r2
 8560  000082c0  8fc20008	lw	r2,8(r30)
 8561  000082c4  8c430000	lw	r3,(r2)
 8562  000082c8  ac230004	sw	4(r1),r3
 8563  000082cc  0c00a2ac	jal	_printf
 8564  000082d0  54000000	nop; delay slot nop
 8565  000082d4  23bd0008	addi	r29,r29,#8
 8566  000082d8          	L175_LF3:
 8567  000082d8  23bdfff8	addi	r29,r29,#-8
 8568  000082dc  001d0820	add	r1,r0,r29
 8569  000082e0  3c020001	lhi	r2,((_debugstr)>>16)&0xffff
 8570  000082e4  244261cb	addui	r2,r2,(_debugstr)&0xffff
 8571  000082e8  ac220000	sw	(r1),r2
 8572  000082ec  2002002b	addi	r2,r0,#43
 8573  000082f0  ac220004	sw	4(r1),r2
 8574  000082f4  0fffc15c	jal	_dindex
 8575  000082f8  54000000	nop; delay slot nop
 8576  000082fc  23bd0008	addi	r29,r29,#8
 8577  00008300  64220000	snei	r2,r1,#0
 8578  00008304  10400030	beqz	r2,L173_LF3
 8579  00008308  54000000	nop; delay slot nop
 8580  0000830c  23bdfff8	addi	r29,r29,#-8
 8581  00008310  001d0820	add	r1,r0,r29
 8582  00008314  3c020001	lhi	r2,((LC59_LF3)>>16)&0xffff
 8583  00008318  24425e98	addui	r2,r2,(LC59_LF3)&0xffff
 8584  0000831c  ac220000	sw	(r1),r2
 8585  00008320  8fc20008	lw	r2,8(r30)
 8586  00008324  8c430000	lw	r3,(r2)
 8587  00008328  ac230004	sw	4(r1),r3
 8588  0000832c  0c00a24c	jal	_printf
 8589  00008330  54000000	nop; delay slot nop
 8590  00008334  23bd0008	addi	r29,r29,#8
 8591  00008338          	L176_LF3:
 8592  00008338          	L173_LF3:
 8593  00008338  8fc1ff18	lw	r1,-232(r30)
 8594  0000833c  90220000	lbu	r2,(r1)
 8595  00008340  6441003a	snei	r1,r2,#58
 8596  00008344  1020000c	beqz	r1,L177_LF3
 8597  00008348  54000000	nop; delay slot nop
 8598  0000834c  080001c4	j	L170_LF3
 8599  00008350  54000000	nop; delay slot nop
 8600  00008354          	L177_LF3:
 8601  00008354  8fc2ff18	lw	r2,-232(r30)
 8602  00008358  20410001	addi	r1,r2,#1
 8603  0000835c  00011020	add	r2,r0,r1
 8604  00008360  afc2ff18	sw	-232(r30),r2
 8605  00008364          	L178_LF3:
 8606  00008364  0800000c	j	L180_LF3
 8607  00008368  54000000	nop; delay slot nop
 8608  0000836c  0800019c	j	L179_LF3
 8609  00008370  54000000	nop; delay slot nop
 8610  00008374          	L180_LF3:
 8611  00008374          	L181_LF3:
 8612  00008374  8fc1ff18	lw	r1,-232(r30)
 8613  00008378  90220000	lbu	r2,(r1)
 8614  0000837c  60410020	seqi	r1,r2,#32
 8615  00008380  14200020	bnez	r1,L183_LF3
 8616  00008384  54000000	nop; delay slot nop
 8617  00008388  8fc1ff18	lw	r1,-232(r30)
 8618  0000838c  90220000	lbu	r2,(r1)
 8619  00008390  60410009	seqi	r1,r2,#9
 8620  00008394  1420000c	bnez	r1,L183_LF3
 8621  00008398  54000000	nop; delay slot nop
 8622  0000839c  0800001c	j	L182_LF3
 8623  000083a0  54000000	nop; delay slot nop
 8624  000083a4          	L183_LF3:
 8625  000083a4  8fc2ff18	lw	r2,-232(r30)
 8626  000083a8  20410001	addi	r1,r2,#1
 8627  000083ac  00011020	add	r2,r0,r1
 8628  000083b0  afc2ff18	sw	-232(r30),r2
 8629  000083b4  0bffffbc	j	L181_LF3
 8630  000083b8  54000000	nop; delay slot nop
 8631  000083bc          	L182_LF3:
 8632  000083bc  8fc1ff18	lw	r1,-232(r30)
 8633  000083c0  90220000	lbu	r2,(r1)
 8634  000083c4  6041000a	seqi	r1,r2,#10
 8635  000083c8  10200024	beqz	r1,L184_LF3
 8636  000083cc  54000000	nop; delay slot nop
 8637  000083d0  8fc2ff18	lw	r2,-232(r30)
 8638  000083d4  20410001	addi	r1,r2,#1
 8639  000083d8  00011020	add	r2,r0,r1
 8640  000083dc  afc2ff18	sw	-232(r30),r2
 8641  000083e0  08000128	j	L179_LF3
 8642  000083e4  54000000	nop; delay slot nop
 8643  000083e8  08000070	j	L185_LF3
 8644  000083ec  54000000	nop; delay slot nop
 8645  000083f0          	L184_LF3:
 8646  000083f0  23bdfff8	addi	r29,r29,#-8
 8647  000083f4  001d0820	add	r1,r0,r29
 8648  000083f8  8fc2ff18	lw	r2,-232(r30)
 8649  000083fc  80430000	lb	r3,(r2)
 8650  00008400  a0230003	sb	3(r1),r3
 8651  00008404  0c00973c	jal	_isxdigit
 8652  00008408  54000000	nop; delay slot nop
 8653  0000840c  23bd0008	addi	r29,r29,#8
 8654  00008410  64220000	snei	r2,r1,#0
 8655  00008414  1040003c	beqz	r2,L187_LF3
 8656  00008418  54000000	nop; delay slot nop
 8657  0000841c  23bdfff8	addi	r29,r29,#-8
 8658  00008420  001d0820	add	r1,r0,r29
 8659  00008424  8fc3ff18	lw	r3,-232(r30)
 8660  00008428  20620001	addi	r2,r3,#1
 8661  0000842c  80430000	lb	r3,(r2)
 8662  00008430  a0230003	sb	3(r1),r3
 8663  00008434  0c00970c	jal	_isxdigit
 8664  00008438  54000000	nop; delay slot nop
 8665  0000843c  23bd0008	addi	r29,r29,#8
 8666  00008440  64220000	snei	r2,r1,#0
 8667  00008444  14400014	bnez	r2,L185_LF3
 8668  00008448  54000000	nop; delay slot nop
 8669  0000844c  08000004	j	L187_LF3
 8670  00008450  54000000	nop; delay slot nop
 8671  00008454          	L187_LF3:
 8672  00008454  080000b4	j	L179_LF3
 8673  00008458  54000000	nop; delay slot nop
 8674  0000845c          	L186_LF3:
 8675  0000845c          	L185_LF3:
 8676  0000845c  23bdfff8	addi	r29,r29,#-8
 8677  00008460  001d0820	add	r1,r0,r29
 8678  00008464  8fc2ff18	lw	r2,-232(r30)
 8679  00008468  90430000	lbu	r3,(r2)
 8680  0000846c  ac230000	sw	(r1),r3
 8681  00008470  0c001698	jal	_getxvalue_LF3
 8682  00008474  54000000	nop; delay slot nop
 8683  00008478  23bd0008	addi	r29,r29,#8
 8684  0000847c  00011020	add	r2,r0,r1
 8685  00008480  23bdfff8	addi	r29,r29,#-8
 8686  00008484  001d0820	add	r1,r0,r29
 8687  00008488  8fc4ff18	lw	r4,-232(r30)
 8688  0000848c  20830001	addi	r3,r4,#1
 8689  00008490  90640000	lbu	r4,(r3)
 8690  00008494  ac240000	sw	(r1),r4
 8691  00008498  0c001670	jal	_getxvalue_LF3
 8692  0000849c  54000000	nop; delay slot nop
 8693  000084a0  23bd0008	addi	r29,r29,#8
 8694  000084a4  8fc3ff24	lw	r3,-220(r30)
 8695  000084a8  20640001	addi	r4,r3,#1
 8696  000084ac  afc4ff24	sw	-220(r30),r4
 8697  000084b0  8fc4ff1c	lw	r4,-228(r30)
 8698  000084b4  00641820	add	r3,r3,r4
 8699  000084b8  20040010	addi	r4,r0,#16
 8700  000084bc  00400035	movi2fp	f0,r2
 8701  000084c0  00800835	movi2fp	f1,r4
 8702  000084c4  0401000e	mult	f0,f0,f1
 8703  000084c8  00001034	movfp2i	r2,f0
 8704  000084cc  00022020	add	r4,r0,r2
 8705  000084d0  00010820	add	r1,r0,r1
 8706  000084d4  00811020	add	r2,r4,r1
 8707  000084d8  a0620000	sb	(r3),r2
 8708  000084dc  8fc1ff18	lw	r1,-232(r30)
 8709  000084e0  20220002	addi	r2,r1,#2
 8710  000084e4  afc2ff18	sw	-232(r30),r2
 8711  000084e8  8fc20008	lw	r2,8(r30)
 8712  000084ec  8fc10008	lw	r1,8(r30)
 8713  000084f0  8fc20008	lw	r2,8(r30)
 8714  000084f4  8c430000	lw	r3,(r2)
 8715  000084f8  20620001	addi	r2,r3,#1
 8716  000084fc  00021820	add	r3,r0,r2
 8717  00008500  ac230000	sw	(r1),r3
 8718  00008504  0bfffe5c	j	L178_LF3
 8719  00008508  54000000	nop; delay slot nop
 8720  0000850c          	L179_LF3:
 8721  0000850c  0bfffc98	j	L169_LF3
 8722  00008510  54000000	nop; delay slot nop
 8723  00008514          	L170_LF3:
 8724  00008514  23bdfff0	addi	r29,r29,#-16
 8725  00008518  001d0820	add	r1,r0,r29
 8726  0000851c  8fc20000	lw	r2,(r30)
 8727  00008520  ac220000	sw	(r1),r2
 8728  00008524  8fc2ff18	lw	r2,-232(r30)
 8729  00008528  8fc3ff20	lw	r3,-224(r30)
 8730  0000852c  00431020	add	r2,r2,r3
 8731  00008530  23c3ff28	addi	r3,r30,#-216
 8732  00008534  00431022	sub	r2,r2,r3
 8733  00008538  ac220004	sw	4(r1),r2
 8734  0000853c  20020000	addi	r2,r0,#0
 8735  00008540  ac220008	sw	8(r1),r2
 8736  00008544  0fff95e0	jal	_FsSeek
 8737  00008548  54000000	nop; delay slot nop
 8738  0000854c  23bd0010	addi	r29,r29,#16
 8739  00008550  23bdfff8	addi	r29,r29,#-8
 8740  00008554  001d0820	add	r1,r0,r29
 8741  00008558  3c020001	lhi	r2,((_debugstr)>>16)&0xffff
 8742  0000855c  244261cb	addui	r2,r2,(_debugstr)&0xffff
 8743  00008560  ac220000	sw	(r1),r2
 8744  00008564  20020066	addi	r2,r0,#102
 8745  00008568  ac220004	sw	4(r1),r2
 8746  0000856c  0fffbee4	jal	_dindex
 8747  00008570  54000000	nop; delay slot nop
 8748  00008574  23bd0008	addi	r29,r29,#8
 8749  00008578  64220000	snei	r2,r1,#0
 8750  0000857c  10400044	beqz	r2,L188_LF3
 8751  00008580  54000000	nop; delay slot nop
 8752  00008584  23bdfff0	addi	r29,r29,#-16
 8753  00008588  001d0820	add	r1,r0,r29
 8754  0000858c  3c020001	lhi	r2,((LC60_LF3)>>16)&0xffff
 8755  00008590  24425eb0	addui	r2,r2,(LC60_LF3)&0xffff
 8756  00008594  ac220000	sw	(r1),r2
 8757  00008598  8fc2ff18	lw	r2,-232(r30)
 8758  0000859c  8fc3ff20	lw	r3,-224(r30)
 8759  000085a0  00431020	add	r2,r2,r3
 8760  000085a4  23c3ff28	addi	r3,r30,#-216
 8761  000085a8  00431022	sub	r2,r2,r3
 8762  000085ac  ac220004	sw	4(r1),r2
 8763  000085b0  8fc2ff24	lw	r2,-220(r30)
 8764  000085b4  ac220008	sw	8(r1),r2
 8765  000085b8  0c009fc0	jal	_printf
 8766  000085bc  54000000	nop; delay slot nop
 8767  000085c0  23bd0010	addi	r29,r29,#16
 8768  000085c4          	L188_LF3:
 8769  000085c4  23bdfff8	addi	r29,r29,#-8
 8770  000085c8  001d0820	add	r1,r0,r29
 8771  000085cc  3c020001	lhi	r2,((_debugstr)>>16)&0xffff
 8772  000085d0  244261cb	addui	r2,r2,(_debugstr)&0xffff
 8773  000085d4  ac220000	sw	(r1),r2
 8774  000085d8  2002002b	addi	r2,r0,#43
 8775  000085dc  ac220004	sw	4(r1),r2
 8776  000085e0  0fffbe70	jal	_dindex
 8777  000085e4  54000000	nop; delay slot nop
 8778  000085e8  23bd0008	addi	r29,r29,#8
 8779  000085ec  64220000	snei	r2,r1,#0
 8780  000085f0  10400044	beqz	r2,L189_LF3
 8781  000085f4  54000000	nop; delay slot nop
 8782  000085f8  23bdfff0	addi	r29,r29,#-16
 8783  000085fc  001d0820	add	r1,r0,r29
 8784  00008600  3c020001	lhi	r2,((LC60_LF3)>>16)&0xffff
 8785  00008604  24425eb0	addui	r2,r2,(LC60_LF3)&0xffff
 8786  00008608  ac220000	sw	(r1),r2
 8787  0000860c  8fc2ff18	lw	r2,-232(r30)
 8788  00008610  8fc3ff20	lw	r3,-224(r30)
 8789  00008614  00431020	add	r2,r2,r3
 8790  00008618  23c3ff28	addi	r3,r30,#-216
 8791  0000861c  00431022	sub	r2,r2,r3
 8792  00008620  ac220004	sw	4(r1),r2
 8793  00008624  8fc2ff24	lw	r2,-220(r30)
 8794  00008628  ac220008	sw	8(r1),r2
 8795  0000862c  0c009f4c	jal	_printf
 8796  00008630  54000000	nop; delay slot nop
 8797  00008634  23bd0010	addi	r29,r29,#16
 8798  00008638          	L189_LF3:
 8799  00008638  8fc1ff24	lw	r1,-220(r30)
 8800  0000863c  08000004	j	L157_LF3
 8801  00008640  54000000	nop; delay slot nop
 8802  00008644          	L157_LF3:
 8803  00008644  8fa20000	lw	r2,0(r29)
 8804  00008648  8fa30004	lw	r3,4(r29)
 8805  0000864c  8fa40008	lw	r4,8(r29)
 8806  00008650  8fdffff8	lw	r31,-8(r30)
 8807  00008654  001ee820	add	r29,r0,r30
 8808  00008658  8fdefffc	lw	r30,-4(r30)
 8809  0000865c  4be00000	jr	r31
 8810  00008660  54000000	nop
 8811  00008664          	.endproc _ProcessGetFromFile
 8812  00008664          	.data
 8813  00015ed7          	.align 2
 8814  00015ed8          	LC61_LF3:
 8815  00015ed8  476f7420	.ascii "Got %d arguments.\n\000"
 8815  00015edc  25642061	
 8815  00015ee0  7267756d	
 8815  00015ee4  656e7473	
 8815  00015ee8  2e0a00  	
 8816  00015eeb          	.align 2
 8817  00015eec          	LC62_LF3:
 8818  00015eec  41766169	.ascii "Available memory: 0x%x -> 0x%x.\n\000"
 8818  00015ef0  6c61626c	
 8818  00015ef4  65206d65	
 8818  00015ef8  6d6f7279	
 8818  00015efc  3a203078	
 8818  00015f00  2578202d	
 8818  00015f04  3e203078	
 8818  00015f08  25782e0a	
 8818  00015f0c  00      	
 8819  00015f0d          	.align 2
 8820  00015f10          	LC63_LF3:
 8821  00015f10  41726775	.ascii "Argument count is %d.\n\000"
 8821  00015f14  6d656e74	
 8821  00015f18  20636f75	
 8821  00015f1c  6e742069	
 8821  00015f20  73202564	
 8821  00015f24  2e0a00  	
 8822  00015f27          	.align 2
 8823  00015f28          	LC64_LF3:
 8824  00015f28  41726775	.ascii "Argument %d is %s.\n\000"
 8824  00015f2c  6d656e74	
 8824  00015f30  20256420	
 8824  00015f34  69732025	
 8824  00015f38  732e0a00	
 8825  00015f3c          	.align 2
 8826  00015f3c          	LC65_LF3:
 8827  00015f3c  436f6e76	.ascii "Converted %s to %d=%s\n\000"
 8827  00015f40  65727465	
 8827  00015f44  64202573	
 8827  00015f48  20746f20	
 8827  00015f4c  25643d25	
 8827  00015f50  730a00  	
 8828  00015f53          	_buf38_LF3:
 8829  00015f53          	.space 200
 8830  0001601b          	.align 2
 8831  0001601c          	LC66_LF3:
 8832  0001601c  25303878	.ascii "%08x: %02x%02x%02x%02x\n\000"
 8832  00016020  3a202530	
 8832  00016024  32782530	
 8832  00016028  32782530	
 8832  0001602c  32782530	
 8832  00016030  32780a00	
 8833  00016034          	.align 2
 8834  00016034          	LC67_LF3:
 8835  00016034  4f707469	.ascii "Option %s not recognized.\n\000"
 8835  00016038  6f6e2025	
 8835  0001603c  73206e6f	
 8835  00016040  74207265	
 8835  00016044  636f676e	
 8835  00016048  697a6564	
 8835  0001604c  2e0a00  	
 8836  0001604f          	.align 2
 8837  00016050          	LC68_LF3:
 8838  00016050  41626f75	.ascii "About to initialize queues.\n\000"
 8838  00016054  7420746f	
 8838  00016058  20696e69	
 8838  0001605c  7469616c	
 8838  00016060  697a6520	
 8838  00016064  71756575	
 8838  00016068  65732e0a	
 8838  0001606c  00      	
 8839  0001606d          	.align 2
 8840  00016070          	LC69_LF3:
 8841  00016070  41667465	.ascii "After initializing queues.\n\000"
 8841  00016074  7220696e	
 8841  00016078  69746961	
 8841  0001607c  6c697a69	
 8841  00016080  6e672071	
 8841  00016084  75657565	
 8841  00016088  732e0a00	
 8842  0001608c          	.align 2
 8843  0001608c          	LC70_LF3:
 8844  0001608c  41667465	.ascii "After initializing memory.\n\000"
 8844  00016090  7220696e	
 8844  00016094  69746961	
 8844  00016098  6c697a69	
 8844  0001609c  6e67206d	
 8844  000160a0  656d6f72	
 8844  000160a4  792e0a00	
 8845  000160a8          	.align 2
 8846  000160a8          	LC71_LF3:
 8847  000160a8  41667465	.ascii "After initializing processes.\n\000"
 8847  000160ac  7220696e	
 8847  000160b0  69746961	
 8847  000160b4  6c697a69	
 8847  000160b8  6e672070	
 8847  000160bc  726f6365	
 8847  000160c0  73736573	
 8847  000160c4  2e0a00  	
 8848  000160c7          	.align 2
 8849  000160c8          	LC72_LF3:
 8850  000160c8  41667465	.ascii "After initializing synchronization tools.\n\000"
 8850  000160cc  7220696e	
 8850  000160d0  69746961	
 8850  000160d4  6c697a69	
 8850  000160d8  6e672073	
 8850  000160dc  796e6368	
 8850  000160e0  726f6e69	
 8850  000160e4  7a617469	
 8850  000160e8  6f6e2074	
 8850  000160ec  6f6f6c73	
 8850  000160f0  2e0a00  	
 8851  000160f3          	.align 2
 8852  000160f4          	LC73_LF3:
 8853  000160f4  41667465	.ascii "After initializing keyboard.\n\000"
 8853  000160f8  7220696e	
 8853  000160fc  69746961	
 8853  00016100  6c697a69	
 8853  00016104  6e67206b	
 8853  00016108  6579626f	
 8853  0001610c  6172642e	
 8853  00016110  0a00    	
 8854  00016112          	.align 2
 8855  00016114          	LC74_LF3:
 8856  00016114  41667465	.ascii "After initializing clock.\n\000"
 8856  00016118  7220696e	
 8856  0001611c  69746961	
 8856  00016120  6c697a69	
 8856  00016124  6e672063	
 8856  00016128  6c6f636b	
 8856  0001612c  2e0a00  	
 8857  0001612f          	.align 2
 8858  00016130          	LC75_LF3:
 8859  00016130  766d00  	.ascii "vm\000"
 8860  00016133          	.align 2
 8861  00016134          	LC76_LF3:
 8862  00016134  564d2044	.ascii "VM Descriptor is %d\n\000"
 8862  00016138  65736372	
 8862  0001613c  6970746f	
 8862  00016140  72206973	
 8862  00016144  2025640a	
 8862  00016148  00      	
 8863  00016149          	.align 2
 8864  0001614c          	LC77_LF3:
 8865  0001614c  4e6f2075	.ascii "No user program passed!\n\000"
 8865  00016150  73657220	
 8865  00016154  70726f67	
 8865  00016158  72616d20	
 8865  0001615c  70617373	
 8865  00016160  6564210a	
 8865  00016164  00      	
 8866  00016165          	.align 2
 8867  00016168          	LC78_LF3:
 8868  00016168  53657420	.ascii "Set timer quantum to %d, about to run first process.\n\000"
 8868  0001616c  74696d65	
 8868  00016170  72207175	
 8868  00016174  616e7475	
 8868  00016178  6d20746f	
 8868  0001617c  2025642c	
 8868  00016180  2061626f	
 8868  00016184  75742074	
 8868  00016188  6f207275	
 8868  0001618c  6e206669	
 8868  00016190  72737420	
 8868  00016194  70726f63	
 8868  00016198  6573732e	
 8868  0001619c  0a00    	
 8869  0001619e          	.text
 8870  00008664          	.align 2
 8871  00008664          	.proc _main
 8872  00008664          	.global _main
 8873  00008664          	_main:
 8874                      ;  Function 'main'; 448 bytes of locals, 0 regs to save.
 8875  00008664  afbefffc	sw	-4(r29),r30; push fp
 8876  00008668  001df020	add	r30,r0,r29; fp = sp
 8877  0000866c  afbffff8	sw	-8(r29),r31; push ret addr
 8878  00008670  2fbd01c8	subui	r29,r29,#456; alloc local storage
 8879  00008674  0c009e6c	jal	___main
 8880  00008678  54000000	nop; delay slot nop
 8881  0000867c  20010000	addi	r1,r0,#0
 8882  00008680  afc1ff6c	sw	-148(r30),r1
 8883  00008684  20010000	addi	r1,r0,#0
 8884  00008688  afc1ff68	sw	-152(r30),r1
 8885  0000868c  20010000	addi	r1,r0,#0
 8886  00008690  afc1ff64	sw	-156(r30),r1
 8887  00008694  20010000	addi	r1,r0,#0
 8888  00008698  afc1fe5c	sw	-420(r30),r1
 8889  0000869c  3c010001	lhi	r1,((_debugstr)>>16)&0xffff
 8890  000086a0  242161cb	addui	r1,r1,(_debugstr)&0xffff
 8891  000086a4  20020000	addi	r2,r0,(#0x0)&0xff
 8892  000086a8  a0220000	sb	(r1),r2
 8893  000086ac  23bdfff8	addi	r29,r29,#-8
 8894  000086b0  001d0820	add	r1,r0,r29
 8895  000086b4  3c020001	lhi	r2,((LC61_LF3)>>16)&0xffff
 8896  000086b8  24425ed8	addui	r2,r2,(LC61_LF3)&0xffff
 8897  000086bc  ac220000	sw	(r1),r2
 8898  000086c0  8fc20000	lw	r2,(r30)
 8899  000086c4  ac220004	sw	4(r1),r2
 8900  000086c8  0c009eb0	jal	_printf
 8901  000086cc  54000000	nop; delay slot nop
 8902  000086d0  23bd0008	addi	r29,r29,#8
 8903  000086d4  001d1020	add	r2,r0,r29
 8904  000086d8  0fffa26c	jal	_MemoryGetSize
 8905  000086dc  54000000	nop; delay slot nop
 8906  000086e0  23bdfff0	addi	r29,r29,#-16
 8907  000086e4  001d1020	add	r2,r0,r29
 8908  000086e8  3c030001	lhi	r3,((LC62_LF3)>>16)&0xffff
 8909  000086ec  24635eec	addui	r3,r3,(LC62_LF3)&0xffff
 8910  000086f0  ac430000	sw	(r2),r3
 8911  000086f4  3c030002	lhi	r3,((_lastosaddress)>>16)&0xffff
 8912  000086f8  24632518	addui	r3,r3,(_lastosaddress)&0xffff
 8913  000086fc  8c640000	lw	r4,(r3)
 8914  00008700  ac440004	sw	4(r2),r4
 8915  00008704  ac410008	sw	8(r2),r1
 8916  00008708  0c009e70	jal	_printf
 8917  0000870c  54000000	nop; delay slot nop
 8918  00008710  23bd0010	addi	r29,r29,#16
 8919  00008714  23bdfff8	addi	r29,r29,#-8
 8920  00008718  001d0820	add	r1,r0,r29
 8921  0000871c  3c020001	lhi	r2,((LC63_LF3)>>16)&0xffff
 8922  00008720  24425f10	addui	r2,r2,(LC63_LF3)&0xffff
 8923  00008724  ac220000	sw	(r1),r2
 8924  00008728  8fc20000	lw	r2,(r30)
 8925  0000872c  ac220004	sw	4(r1),r2
 8926  00008730  0c009e48	jal	_printf
 8927  00008734  54000000	nop; delay slot nop
 8928  00008738  23bd0008	addi	r29,r29,#8
 8929  0000873c  20010000	addi	r1,r0,#0
 8930  00008740  afc1fff4	sw	-12(r30),r1
 8931  00008744          	L191_LF3:
 8932  00008744  8fc1fff4	lw	r1,-12(r30)
 8933  00008748  8fc20000	lw	r2,(r30)
 8934  0000874c  0022082a	slt	r1,r1,r2
 8935  00008750  1420000c	bnez	r1,L194_LF3
 8936  00008754  54000000	nop; delay slot nop
 8937  00008758  0800006c	j	L192_LF3
 8938  0000875c  54000000	nop; delay slot nop
 8939  00008760          	L194_LF3:
 8940  00008760  23bdfff0	addi	r29,r29,#-16
 8941  00008764  001d0820	add	r1,r0,r29
 8942  00008768  3c020001	lhi	r2,((LC64_LF3)>>16)&0xffff
 8943  0000876c  24425f28	addui	r2,r2,(LC64_LF3)&0xffff
 8944  00008770  ac220000	sw	(r1),r2
 8945  00008774  8fc2fff4	lw	r2,-12(r30)
 8946  00008778  ac220004	sw	4(r1),r2
 8947  0000877c  8fc2fff4	lw	r2,-12(r30)
 8948  00008780  20030004	addi	r3,r0,#4
 8949  00008784  00400035	movi2fp	f0,r2
 8950  00008788  00600835	movi2fp	f1,r3
 8951  0000878c  0401000e	mult	f0,f0,f1
 8952  00008790  00001034	movfp2i	r2,f0
 8953  00008794  8fc30004	lw	r3,4(r30)
 8954  00008798  00431020	add	r2,r2,r3
 8955  0000879c  8c430000	lw	r3,(r2)
 8956  000087a0  ac230008	sw	8(r1),r3
 8957  000087a4  0c009dd4	jal	_printf
 8958  000087a8  54000000	nop; delay slot nop
 8959  000087ac  23bd0010	addi	r29,r29,#16
 8960  000087b0          	L193_LF3:
 8961  000087b0  8fc2fff4	lw	r2,-12(r30)
 8962  000087b4  20410001	addi	r1,r2,#1
 8963  000087b8  00011020	add	r2,r0,r1
 8964  000087bc  afc2fff4	sw	-12(r30),r2
 8965  000087c0  0bffff80	j	L191_LF3
 8966  000087c4  54000000	nop; delay slot nop
 8967  000087c8          	L192_LF3:
 8968  000087c8  001d1020	add	r2,r0,r29
 8969  000087cc  0fff9c78	jal	_FsModuleInit
 8970  000087d0  54000000	nop; delay slot nop
 8971  000087d4  20010000	addi	r1,r0,#0
 8972  000087d8  afc1fff4	sw	-12(r30),r1
 8973  000087dc          	L195_LF3:
 8974  000087dc  8fc1fff4	lw	r1,-12(r30)
 8975  000087e0  8fc20000	lw	r2,(r30)
 8976  000087e4  0022082a	slt	r1,r1,r2
 8977  000087e8  1420000c	bnez	r1,L198_LF3
 8978  000087ec  54000000	nop; delay slot nop
 8979  000087f0  0800057c	j	L196_LF3
 8980  000087f4  54000000	nop; delay slot nop
 8981  000087f8          	L198_LF3:
 8982  000087f8  8fc1fff4	lw	r1,-12(r30)
 8983  000087fc  20020004	addi	r2,r0,#4
 8984  00008800  00200035	movi2fp	f0,r1
 8985  00008804  00400835	movi2fp	f1,r2
 8986  00008808  0401000e	mult	f0,f0,f1
 8987  0000880c  00000834	movfp2i	r1,f0
 8988  00008810  8fc20004	lw	r2,4(r30)
 8989  00008814  00220820	add	r1,r1,r2
 8990  00008818  8c220000	lw	r2,(r1)
 8991  0000881c  90410000	lbu	r1,(r2)
 8992  00008820  6022002d	seqi	r2,r1,#45
 8993  00008824  10400530	beqz	r2,L197_LF3
 8994  00008828  54000000	nop; delay slot nop
 8995  0000882c  8fc1fff4	lw	r1,-12(r30)
 8996  00008830  20020004	addi	r2,r0,#4
 8997  00008834  00200035	movi2fp	f0,r1
 8998  00008838  00400835	movi2fp	f1,r2
 8999  0000883c  0401000e	mult	f0,f0,f1
 9000  00008840  00000834	movfp2i	r1,f0
 9001  00008844  8fc20004	lw	r2,4(r30)
 9002  00008848  00220820	add	r1,r1,r2
 9003  0000884c  8c230000	lw	r3,(r1)
 9004  00008850  20620001	addi	r2,r3,#1
 9005  00008854  90410000	lbu	r1,(r2)
 9006  00008858  60220066	seqi	r2,r1,#102
 9007  0000885c  14400180	bnez	r2,L203_LF3
 9008  00008860  54000000	nop; delay slot nop
 9009  00008864  6c220066	sgti	r2,r1,#102
 9010  00008868  14400018	bnez	r2,L214_LF3
 9011  0000886c  54000000	nop; delay slot nop
 9012  00008870  60220044	seqi	r2,r1,#68
 9013  00008874  1440002c	bnez	r2,L201_LF3
 9014  00008878  54000000	nop; delay slot nop
 9015  0000887c  08000470	j	L212_LF3
 9016  00008880  54000000	nop; delay slot nop
 9017  00008884          	L214_LF3:
 9018  00008884  60220069	seqi	r2,r1,#105
 9019  00008888  14400074	bnez	r2,L202_LF3
 9020  0000888c  54000000	nop; delay slot nop
 9021  00008890  60210075	seqi	r1,r1,#117
 9022  00008894  14200414	bnez	r1,L211_LF3
 9023  00008898  54000000	nop; delay slot nop
 9024  0000889c  08000450	j	L212_LF3
 9025  000088a0  54000000	nop; delay slot nop
 9026  000088a4          	L201_LF3:
 9027  000088a4  23bdfff8	addi	r29,r29,#-8
 9028  000088a8  001d0820	add	r1,r0,r29
 9029  000088ac  3c020001	lhi	r2,((_debugstr)>>16)&0xffff
 9030  000088b0  244261cb	addui	r2,r2,(_debugstr)&0xffff
 9031  000088b4  ac220000	sw	(r1),r2
 9032  000088b8  8fc2fff4	lw	r2,-12(r30)
 9033  000088bc  20430001	addi	r3,r2,#1
 9034  000088c0  00031020	add	r2,r0,r3
 9035  000088c4  afc2fff4	sw	-12(r30),r2
 9036  000088c8  20030004	addi	r3,r0,#4
 9037  000088cc  00400035	movi2fp	f0,r2
 9038  000088d0  00600835	movi2fp	f1,r3
 9039  000088d4  0401000e	mult	f0,f0,f1
 9040  000088d8  00001034	movfp2i	r2,f0
 9041  000088dc  8fc30004	lw	r3,4(r30)
 9042  000088e0  00431020	add	r2,r2,r3
 9043  000088e4  8c430000	lw	r3,(r2)
 9044  000088e8  ac230004	sw	4(r1),r3
 9045  000088ec  0fffb634	jal	_dstrcpy
 9046  000088f0  54000000	nop; delay slot nop
 9047  000088f4  23bd0008	addi	r29,r29,#8
 9048  000088f8  08000444	j	L200_LF3
 9049  000088fc  54000000	nop; delay slot nop
 9050  00008900          	L202_LF3:
 9051  00008900  23bdfff0	addi	r29,r29,#-16
 9052  00008904  001d0820	add	r1,r0,r29
 9053  00008908  8fc2fff4	lw	r2,-12(r30)
 9054  0000890c  20430001	addi	r3,r2,#1
 9055  00008910  00031020	add	r2,r0,r3
 9056  00008914  afc2fff4	sw	-12(r30),r2
 9057  00008918  20030004	addi	r3,r0,#4
 9058  0000891c  00400035	movi2fp	f0,r2
 9059  00008920  00600835	movi2fp	f1,r3
 9060  00008924  0401000e	mult	f0,f0,f1
 9061  00008928  00001034	movfp2i	r2,f0
 9062  0000892c  8fc30004	lw	r3,4(r30)
 9063  00008930  00431020	add	r2,r2,r3
 9064  00008934  8c430000	lw	r3,(r2)
 9065  00008938  ac230000	sw	(r1),r3
 9066  0000893c  20020000	addi	r2,r0,#0
 9067  00008940  ac220004	sw	4(r1),r2
 9068  00008944  20020000	addi	r2,r0,#0
 9069  00008948  ac220008	sw	8(r1),r2
 9070  0000894c  0fffbd24	jal	_dstrtol
 9071  00008950  54000000	nop; delay slot nop
 9072  00008954  23bd0010	addi	r29,r29,#16
 9073  00008958  afc1ffec	sw	-20(r30),r1
 9074  0000895c  23bdfff8	addi	r29,r29,#-8
 9075  00008960  001d0820	add	r1,r0,r29
 9076  00008964  8fc2ffec	lw	r2,-20(r30)
 9077  00008968  ac220000	sw	(r1),r2
 9078  0000896c  23c2ff70	addi	r2,r30,#-144
 9079  00008970  ac220004	sw	4(r1),r2
 9080  00008974  0fffbb70	jal	_ditoa
 9081  00008978  54000000	nop; delay slot nop
 9082  0000897c  23bd0008	addi	r29,r29,#8
 9083  00008980  23bdfff0	addi	r29,r29,#-16
 9084  00008984  001d0820	add	r1,r0,r29
 9085  00008988  3c020001	lhi	r2,((LC65_LF3)>>16)&0xffff
 9086  0000898c  24425f3c	addui	r2,r2,(LC65_LF3)&0xffff
 9087  00008990  ac220000	sw	(r1),r2
 9088  00008994  8fc2fff4	lw	r2,-12(r30)
 9089  00008998  20030004	addi	r3,r0,#4
 9090  0000899c  00400035	movi2fp	f0,r2
 9091  000089a0  00600835	movi2fp	f1,r3
 9092  000089a4  0401000e	mult	f0,f0,f1
 9093  000089a8  00001034	movfp2i	r2,f0
 9094  000089ac  8fc30004	lw	r3,4(r30)
 9095  000089b0  00431020	add	r2,r2,r3
 9096  000089b4  8c430000	lw	r3,(r2)
 9097  000089b8  ac230004	sw	4(r1),r3
 9098  000089bc  8fc2ffec	lw	r2,-20(r30)
 9099  000089c0  ac220008	sw	8(r1),r2
 9100  000089c4  23c2ff70	addi	r2,r30,#-144
 9101  000089c8  ac22000c	sw	12(r1),r2
 9102  000089cc  0c009bac	jal	_printf
 9103  000089d0  54000000	nop; delay slot nop
 9104  000089d4  23bd0010	addi	r29,r29,#16
 9105  000089d8  08000364	j	L200_LF3
 9106  000089dc  54000000	nop; delay slot nop
 9107  000089e0          	L203_LF3:
 9108  000089e0  20010000	addi	r1,r0,#0
 9109  000089e4  afc1fe3c	sw	-452(r30),r1
 9110  000089e8  23bdffe8	addi	r29,r29,#-24
 9111  000089ec  001d0820	add	r1,r0,r29
 9112  000089f0  8fc2fff4	lw	r2,-12(r30)
 9113  000089f4  20430001	addi	r3,r2,#1
 9114  000089f8  00031020	add	r2,r0,r3
 9115  000089fc  afc2fff4	sw	-12(r30),r2
 9116  00008a00  20030004	addi	r3,r0,#4
 9117  00008a04  00400035	movi2fp	f0,r2
 9118  00008a08  00600835	movi2fp	f1,r3
 9119  00008a0c  0401000e	mult	f0,f0,f1
 9120  00008a10  00001034	movfp2i	r2,f0
 9121  00008a14  8fc30004	lw	r3,4(r30)
 9122  00008a18  00431020	add	r2,r2,r3
 9123  00008a1c  8c430000	lw	r3,(r2)
 9124  00008a20  ac230000	sw	(r1),r3
 9125  00008a24  23c2fe58	addi	r2,r30,#-424
 9126  00008a28  ac220004	sw	4(r1),r2
 9127  00008a2c  23c2fe54	addi	r2,r30,#-428
 9128  00008a30  ac220008	sw	8(r1),r2
 9129  00008a34  23c2fe50	addi	r2,r30,#-432
 9130  00008a38  ac22000c	sw	12(r1),r2
 9131  00008a3c  23c2fe4c	addi	r2,r30,#-436
 9132  00008a40  ac220010	sw	16(r1),r2
 9133  00008a44  23c2fe48	addi	r2,r30,#-440
 9134  00008a48  ac220014	sw	20(r1),r2
 9135  00008a4c  0fffedf0	jal	_ProcessGetCodeInfo
 9136  00008a50  54000000	nop; delay slot nop
 9137  00008a54  23bd0018	addi	r29,r29,#24
 9138  00008a58  afc1fe44	sw	-444(r30),r1
 9139  00008a5c  23bdfff0	addi	r29,r29,#-16
 9140  00008a60  001d0820	add	r1,r0,r29
 9141  00008a64  3c020001	lhi	r2,((LC43_LF3)>>16)&0xffff
 9142  00008a68  24425c28	addui	r2,r2,(LC43_LF3)&0xffff
 9143  00008a6c  ac220000	sw	(r1),r2
 9144  00008a70  8fc2fff4	lw	r2,-12(r30)
 9145  00008a74  20030004	addi	r3,r0,#4
 9146  00008a78  00400035	movi2fp	f0,r2
 9147  00008a7c  00600835	movi2fp	f1,r3
 9148  00008a80  0401000e	mult	f0,f0,f1
 9149  00008a84  00001034	movfp2i	r2,f0
 9150  00008a88  8fc30004	lw	r3,4(r30)
 9151  00008a8c  00431020	add	r2,r2,r3
 9152  00008a90  8c430000	lw	r3,(r2)
 9153  00008a94  ac230004	sw	4(r1),r3
 9154  00008a98  8fc2fe58	lw	r2,-424(r30)
 9155  00008a9c  ac220008	sw	8(r1),r2
 9156  00008aa0  0c009ad8	jal	_printf
 9157  00008aa4  54000000	nop; delay slot nop
 9158  00008aa8  23bd0010	addi	r29,r29,#16
 9159  00008aac  23bdfff0	addi	r29,r29,#-16
 9160  00008ab0  001d0820	add	r1,r0,r29
 9161  00008ab4  3c020001	lhi	r2,((LC44_LF3)>>16)&0xffff
 9162  00008ab8  24425c44	addui	r2,r2,(LC44_LF3)&0xffff
 9163  00008abc  ac220000	sw	(r1),r2
 9164  00008ac0  8fc2fff4	lw	r2,-12(r30)
 9165  00008ac4  20030004	addi	r3,r0,#4
 9166  00008ac8  00400035	movi2fp	f0,r2
 9167  00008acc  00600835	movi2fp	f1,r3
 9168  00008ad0  0401000e	mult	f0,f0,f1
 9169  00008ad4  00001034	movfp2i	r2,f0
 9170  00008ad8  8fc30004	lw	r3,4(r30)
 9171  00008adc  00431020	add	r2,r2,r3
 9172  00008ae0  8c430000	lw	r3,(r2)
 9173  00008ae4  ac230004	sw	4(r1),r3
 9174  00008ae8  8fc2fe54	lw	r2,-428(r30)
 9175  00008aec  ac220008	sw	8(r1),r2
 9176  00008af0  8fc2fe50	lw	r2,-432(r30)
 9177  00008af4  ac22000c	sw	12(r1),r2
 9178  00008af8  0c009a80	jal	_printf
 9179  00008afc  54000000	nop; delay slot nop
 9180  00008b00  23bd0010	addi	r29,r29,#16
 9181  00008b04  23bdfff0	addi	r29,r29,#-16
 9182  00008b08  001d0820	add	r1,r0,r29
 9183  00008b0c  3c020001	lhi	r2,((LC45_LF3)>>16)&0xffff
 9184  00008b10  24425c6c	addui	r2,r2,(LC45_LF3)&0xffff
 9185  00008b14  ac220000	sw	(r1),r2
 9186  00008b18  8fc2fff4	lw	r2,-12(r30)
 9187  00008b1c  20030004	addi	r3,r0,#4
 9188  00008b20  00400035	movi2fp	f0,r2
 9189  00008b24  00600835	movi2fp	f1,r3
 9190  00008b28  0401000e	mult	f0,f0,f1
 9191  00008b2c  00001034	movfp2i	r2,f0
 9192  00008b30  8fc30004	lw	r3,4(r30)
 9193  00008b34  00431020	add	r2,r2,r3
 9194  00008b38  8c430000	lw	r3,(r2)
 9195  00008b3c  ac230004	sw	4(r1),r3
 9196  00008b40  8fc2fe4c	lw	r2,-436(r30)
 9197  00008b44  ac220008	sw	8(r1),r2
 9198  00008b48  8fc2fe48	lw	r2,-440(r30)
 9199  00008b4c  ac22000c	sw	12(r1),r2
 9200  00008b50  0c009a28	jal	_printf
 9201  00008b54  54000000	nop; delay slot nop
 9202  00008b58  23bd0010	addi	r29,r29,#16
 9203  00008b5c          	L204_LF3:
 9204  00008b5c  23bdfff0	addi	r29,r29,#-16
 9205  00008b60  001d0820	add	r1,r0,r29
 9206  00008b64  8fc2fe44	lw	r2,-444(r30)
 9207  00008b68  ac220000	sw	(r1),r2
 9208  00008b6c  3c020001	lhi	r2,((_buf38_LF3)>>16)&0xffff
 9209  00008b70  24425f53	addui	r2,r2,(_buf38_LF3)&0xffff
 9210  00008b74  ac220004	sw	4(r1),r2
 9211  00008b78  23c2fe3c	addi	r2,r30,#-452
 9212  00008b7c  ac220008	sw	8(r1),r2
 9213  00008b80  200200c8	addi	r2,r0,#200
 9214  00008b84  ac22000c	sw	12(r1),r2
 9215  00008b88  0ffff2a8	jal	_ProcessGetFromFile
 9216  00008b8c  54000000	nop; delay slot nop
 9217  00008b90  23bd0010	addi	r29,r29,#16
 9218  00008b94  afc1ffec	sw	-20(r30),r1
 9219  00008b98  8fc1ffec	lw	r1,-20(r30)
 9220  00008b9c  6c220000	sgti	r2,r1,#0
 9221  00008ba0  1440000c	bnez	r2,L206_LF3
 9222  00008ba4  54000000	nop; delay slot nop
 9223  00008ba8  080000dc	j	L205_LF3
 9224  00008bac  54000000	nop; delay slot nop
 9225  00008bb0          	L206_LF3:
 9226  00008bb0  20010000	addi	r1,r0,#0
 9227  00008bb4  afc1fe40	sw	-448(r30),r1
 9228  00008bb8          	L207_LF3:
 9229  00008bb8  8fc1fe40	lw	r1,-448(r30)
 9230  00008bbc  8fc2ffec	lw	r2,-20(r30)
 9231  00008bc0  0022082a	slt	r1,r1,r2
 9232  00008bc4  1420000c	bnez	r1,L210_LF3
 9233  00008bc8  54000000	nop; delay slot nop
 9234  00008bcc  080000b0	j	L208_LF3
 9235  00008bd0  54000000	nop; delay slot nop
 9236  00008bd4          	L210_LF3:
 9237  00008bd4  23bdffe8	addi	r29,r29,#-24
 9238  00008bd8  001d0820	add	r1,r0,r29
 9239  00008bdc  3c020001	lhi	r2,((LC66_LF3)>>16)&0xffff
 9240  00008be0  2442601c	addui	r2,r2,(LC66_LF3)&0xffff
 9241  00008be4  ac220000	sw	(r1),r2
 9242  00008be8  8fc2fe3c	lw	r2,-452(r30)
 9243  00008bec  8fc3fe40	lw	r3,-448(r30)
 9244  00008bf0  00431020	add	r2,r2,r3
 9245  00008bf4  8fc3ffec	lw	r3,-20(r30)
 9246  00008bf8  00431022	sub	r2,r2,r3
 9247  00008bfc  ac220004	sw	4(r1),r2
 9248  00008c00  8fc3fe40	lw	r3,-448(r30)
 9249  00008c04  3c050001	lhi	r5,((_buf38_LF3)>>16)&0xffff
 9250  00008c08  24a55f53	addui	r5,r5,(_buf38_LF3)&0xffff
 9251  00008c0c  00651020	add	r2,r3,r5
 9252  00008c10  90430000	lbu	r3,(r2)
 9253  00008c14  ac230008	sw	8(r1),r3
 9254  00008c18  8fc3fe40	lw	r3,-448(r30)
 9255  00008c1c  3c050001	lhi	r5,((_buf38_LF3+1)>>16)&0xffff
 9256  00008c20  24a55f54	addui	r5,r5,(_buf38_LF3+1)&0xffff
 9257  00008c24  00651020	add	r2,r3,r5
 9258  00008c28  90430000	lbu	r3,(r2)
 9259  00008c2c  ac23000c	sw	12(r1),r3
 9260  00008c30  8fc3fe40	lw	r3,-448(r30)
 9261  00008c34  3c050001	lhi	r5,((_buf38_LF3+2)>>16)&0xffff
 9262  00008c38  24a55f55	addui	r5,r5,(_buf38_LF3+2)&0xffff
 9263  00008c3c  00651020	add	r2,r3,r5
 9264  00008c40  90430000	lbu	r3,(r2)
 9265  00008c44  ac230010	sw	16(r1),r3
 9266  00008c48  8fc3fe40	lw	r3,-448(r30)
 9267  00008c4c  3c050001	lhi	r5,((_buf38_LF3+3)>>16)&0xffff
 9268  00008c50  24a55f56	addui	r5,r5,(_buf38_LF3+3)&0xffff
 9269  00008c54  00651020	add	r2,r3,r5
 9270  00008c58  90430000	lbu	r3,(r2)
 9271  00008c5c  ac230014	sw	20(r1),r3
 9272  00008c60  0c009918	jal	_printf
 9273  00008c64  54000000	nop; delay slot nop
 9274  00008c68  23bd0018	addi	r29,r29,#24
 9275  00008c6c          	L209_LF3:
 9276  00008c6c  8fc1fe40	lw	r1,-448(r30)
 9277  00008c70  20220004	addi	r2,r1,#4
 9278  00008c74  afc2fe40	sw	-448(r30),r2
 9279  00008c78  0bffff3c	j	L207_LF3
 9280  00008c7c  54000000	nop; delay slot nop
 9281  00008c80          	L208_LF3:
 9282  00008c80  0bfffed8	j	L204_LF3
 9283  00008c84  54000000	nop; delay slot nop
 9284  00008c88          	L205_LF3:
 9285  00008c88  23bdfff8	addi	r29,r29,#-8
 9286  00008c8c  001d0820	add	r1,r0,r29
 9287  00008c90  8fc2fe44	lw	r2,-444(r30)
 9288  00008c94  ac220000	sw	(r1),r2
 9289  00008c98  0c00985c	jal	_close
 9290  00008c9c  54000000	nop; delay slot nop
 9291  00008ca0  23bd0008	addi	r29,r29,#8
 9292  00008ca4  08000098	j	L200_LF3
 9293  00008ca8  54000000	nop; delay slot nop
 9294  00008cac          	L211_LF3:
 9295  00008cac  8fc1fff4	lw	r1,-12(r30)
 9296  00008cb0  20220001	addi	r2,r1,#1
 9297  00008cb4  00020820	add	r1,r0,r2
 9298  00008cb8  afc1fff4	sw	-12(r30),r1
 9299  00008cbc  20020004	addi	r2,r0,#4
 9300  00008cc0  00200035	movi2fp	f0,r1
 9301  00008cc4  00400835	movi2fp	f1,r2
 9302  00008cc8  0401000e	mult	f0,f0,f1
 9303  00008ccc  00000834	movfp2i	r1,f0
 9304  00008cd0  8fc20004	lw	r2,4(r30)
 9305  00008cd4  00220820	add	r1,r1,r2
 9306  00008cd8  8c220000	lw	r2,(r1)
 9307  00008cdc  afc2ff6c	sw	-148(r30),r2
 9308  00008ce0  8fc1fff4	lw	r1,-12(r30)
 9309  00008ce4  afc1ff68	sw	-152(r30),r1
 9310  00008ce8  08000054	j	L200_LF3
 9311  00008cec  54000000	nop; delay slot nop
 9312  00008cf0          	L212_LF3:
 9313  00008cf0  23bdfff8	addi	r29,r29,#-8
 9314  00008cf4  001d0820	add	r1,r0,r29
 9315  00008cf8  3c020001	lhi	r2,((LC67_LF3)>>16)&0xffff
 9316  00008cfc  24426034	addui	r2,r2,(LC67_LF3)&0xffff
 9317  00008d00  ac220000	sw	(r1),r2
 9318  00008d04  8fc2fff4	lw	r2,-12(r30)
 9319  00008d08  20030004	addi	r3,r0,#4
 9320  00008d0c  00400035	movi2fp	f0,r2
 9321  00008d10  00600835	movi2fp	f1,r3
 9322  00008d14  0401000e	mult	f0,f0,f1
 9323  00008d18  00001034	movfp2i	r2,f0
 9324  00008d1c  8fc30004	lw	r3,4(r30)
 9325  00008d20  00431020	add	r2,r2,r3
 9326  00008d24  8c430000	lw	r3,(r2)
 9327  00008d28  ac230004	sw	4(r1),r3
 9328  00008d2c  0c00984c	jal	_printf
 9329  00008d30  54000000	nop; delay slot nop
 9330  00008d34  23bd0008	addi	r29,r29,#8
 9331  00008d38  08000004	j	L200_LF3
 9332  00008d3c  54000000	nop; delay slot nop
 9333  00008d40          	L200_LF3:
 9334  00008d40  8fc1ff6c	lw	r1,-148(r30)
 9335  00008d44  64220000	snei	r2,r1,#0
 9336  00008d48  1040000c	beqz	r2,L197_LF3
 9337  00008d4c  54000000	nop; delay slot nop
 9338  00008d50  0800001c	j	L196_LF3
 9339  00008d54  54000000	nop; delay slot nop
 9340  00008d58          	L215_LF3:
 9341  00008d58          	L199_LF3:
 9342  00008d58          	L197_LF3:
 9343  00008d58  8fc2fff4	lw	r2,-12(r30)
 9344  00008d5c  20410001	addi	r1,r2,#1
 9345  00008d60  00011020	add	r2,r0,r1
 9346  00008d64  afc2fff4	sw	-12(r30),r2
 9347  00008d68  0bfffa70	j	L195_LF3
 9348  00008d6c  54000000	nop; delay slot nop
 9349  00008d70          	L196_LF3:
 9350  00008d70  23bdfff8	addi	r29,r29,#-8
 9351  00008d74  001d0820	add	r1,r0,r29
 9352  00008d78  3c020001	lhi	r2,((_debugstr)>>16)&0xffff
 9353  00008d7c  244261cb	addui	r2,r2,(_debugstr)&0xffff
 9354  00008d80  ac220000	sw	(r1),r2
 9355  00008d84  20020069	addi	r2,r0,#105
 9356  00008d88  ac220004	sw	4(r1),r2
 9357  00008d8c  0fffb6c4	jal	_dindex
 9358  00008d90  54000000	nop; delay slot nop
 9359  00008d94  23bd0008	addi	r29,r29,#8
 9360  00008d98  64220000	snei	r2,r1,#0
 9361  00008d9c  10400024	beqz	r2,L216_LF3
 9362  00008da0  54000000	nop; delay slot nop
 9363  00008da4  23bdfff8	addi	r29,r29,#-8
 9364  00008da8  001d0820	add	r1,r0,r29
 9365  00008dac  3c020001	lhi	r2,((LC68_LF3)>>16)&0xffff
 9366  00008db0  24426050	addui	r2,r2,(LC68_LF3)&0xffff
 9367  00008db4  ac220000	sw	(r1),r2
 9368  00008db8  0c0097c0	jal	_printf
 9369  00008dbc  54000000	nop; delay slot nop
 9370  00008dc0  23bd0008	addi	r29,r29,#8
 9371  00008dc4          	L216_LF3:
 9372  00008dc4  23bdfff8	addi	r29,r29,#-8
 9373  00008dc8  001d0820	add	r1,r0,r29
 9374  00008dcc  3c020001	lhi	r2,((_debugstr)>>16)&0xffff
 9375  00008dd0  244261cb	addui	r2,r2,(_debugstr)&0xffff
 9376  00008dd4  ac220000	sw	(r1),r2
 9377  00008dd8  2002002b	addi	r2,r0,#43
 9378  00008ddc  ac220004	sw	4(r1),r2
 9379  00008de0  0fffb670	jal	_dindex
 9380  00008de4  54000000	nop; delay slot nop
 9381  00008de8  23bd0008	addi	r29,r29,#8
 9382  00008dec  64220000	snei	r2,r1,#0
 9383  00008df0  10400024	beqz	r2,L217_LF3
 9384  00008df4  54000000	nop; delay slot nop
 9385  00008df8  23bdfff8	addi	r29,r29,#-8
 9386  00008dfc  001d0820	add	r1,r0,r29
 9387  00008e00  3c020001	lhi	r2,((LC68_LF3)>>16)&0xffff
 9388  00008e04  24426050	addui	r2,r2,(LC68_LF3)&0xffff
 9389  00008e08  ac220000	sw	(r1),r2
 9390  00008e0c  0c00976c	jal	_printf
 9391  00008e10  54000000	nop; delay slot nop
 9392  00008e14  23bd0008	addi	r29,r29,#8
 9393  00008e18          	L217_LF3:
 9394  00008e18  001d1020	add	r2,r0,r29
 9395  00008e1c  0c0011d4	jal	_AQueueModuleInit
 9396  00008e20  54000000	nop; delay slot nop
 9397  00008e24  23bdfff8	addi	r29,r29,#-8
 9398  00008e28  001d0820	add	r1,r0,r29
 9399  00008e2c  3c020001	lhi	r2,((_debugstr)>>16)&0xffff
 9400  00008e30  244261cb	addui	r2,r2,(_debugstr)&0xffff
 9401  00008e34  ac220000	sw	(r1),r2
 9402  00008e38  20020069	addi	r2,r0,#105
 9403  00008e3c  ac220004	sw	4(r1),r2
 9404  00008e40  0fffb610	jal	_dindex
 9405  00008e44  54000000	nop; delay slot nop
 9406  00008e48  23bd0008	addi	r29,r29,#8
 9407  00008e4c  64220000	snei	r2,r1,#0
 9408  00008e50  10400024	beqz	r2,L218_LF3
 9409  00008e54  54000000	nop; delay slot nop
 9410  00008e58  23bdfff8	addi	r29,r29,#-8
 9411  00008e5c  001d0820	add	r1,r0,r29
 9412  00008e60  3c020001	lhi	r2,((LC69_LF3)>>16)&0xffff
 9413  00008e64  24426070	addui	r2,r2,(LC69_LF3)&0xffff
 9414  00008e68  ac220000	sw	(r1),r2
 9415  00008e6c  0c00970c	jal	_printf
 9416  00008e70  54000000	nop; delay slot nop
 9417  00008e74  23bd0008	addi	r29,r29,#8
 9418  00008e78          	L218_LF3:
 9419  00008e78  23bdfff8	addi	r29,r29,#-8
 9420  00008e7c  001d0820	add	r1,r0,r29
 9421  00008e80  3c020001	lhi	r2,((_debugstr)>>16)&0xffff
 9422  00008e84  244261cb	addui	r2,r2,(_debugstr)&0xffff
 9423  00008e88  ac220000	sw	(r1),r2
 9424  00008e8c  2002002b	addi	r2,r0,#43
 9425  00008e90  ac220004	sw	4(r1),r2
 9426  00008e94  0fffb5bc	jal	_dindex
 9427  00008e98  54000000	nop; delay slot nop
 9428  00008e9c  23bd0008	addi	r29,r29,#8
 9429  00008ea0  64220000	snei	r2,r1,#0
 9430  00008ea4  10400024	beqz	r2,L219_LF3
 9431  00008ea8  54000000	nop; delay slot nop
 9432  00008eac  23bdfff8	addi	r29,r29,#-8
 9433  00008eb0  001d0820	add	r1,r0,r29
 9434  00008eb4  3c020001	lhi	r2,((LC69_LF3)>>16)&0xffff
 9435  00008eb8  24426070	addui	r2,r2,(LC69_LF3)&0xffff
 9436  00008ebc  ac220000	sw	(r1),r2
 9437  00008ec0  0c0096b8	jal	_printf
 9438  00008ec4  54000000	nop; delay slot nop
 9439  00008ec8  23bd0008	addi	r29,r29,#8
 9440  00008ecc          	L219_LF3:
 9441  00008ecc  001d1020	add	r2,r0,r29
 9442  00008ed0  0fff9ab4	jal	_MemoryModuleInit
 9443  00008ed4  54000000	nop; delay slot nop
 9444  00008ed8  23bdfff8	addi	r29,r29,#-8
 9445  00008edc  001d0820	add	r1,r0,r29
 9446  00008ee0  3c020001	lhi	r2,((_debugstr)>>16)&0xffff
 9447  00008ee4  244261cb	addui	r2,r2,(_debugstr)&0xffff
 9448  00008ee8  ac220000	sw	(r1),r2
 9449  00008eec  20020069	addi	r2,r0,#105
 9450  00008ef0  ac220004	sw	4(r1),r2
 9451  00008ef4  0fffb55c	jal	_dindex
 9452  00008ef8  54000000	nop; delay slot nop
 9453  00008efc  23bd0008	addi	r29,r29,#8
 9454  00008f00  64220000	snei	r2,r1,#0
 9455  00008f04  10400024	beqz	r2,L220_LF3
 9456  00008f08  54000000	nop; delay slot nop
 9457  00008f0c  23bdfff8	addi	r29,r29,#-8
 9458  00008f10  001d0820	add	r1,r0,r29
 9459  00008f14  3c020001	lhi	r2,((LC70_LF3)>>16)&0xffff
 9460  00008f18  2442608c	addui	r2,r2,(LC70_LF3)&0xffff
 9461  00008f1c  ac220000	sw	(r1),r2
 9462  00008f20  0c009658	jal	_printf
 9463  00008f24  54000000	nop; delay slot nop
 9464  00008f28  23bd0008	addi	r29,r29,#8
 9465  00008f2c          	L220_LF3:
 9466  00008f2c  23bdfff8	addi	r29,r29,#-8
 9467  00008f30  001d0820	add	r1,r0,r29
 9468  00008f34  3c020001	lhi	r2,((_debugstr)>>16)&0xffff
 9469  00008f38  244261cb	addui	r2,r2,(_debugstr)&0xffff
 9470  00008f3c  ac220000	sw	(r1),r2
 9471  00008f40  2002002b	addi	r2,r0,#43
 9472  00008f44  ac220004	sw	4(r1),r2
 9473  00008f48  0fffb508	jal	_dindex
 9474  00008f4c  54000000	nop; delay slot nop
 9475  00008f50  23bd0008	addi	r29,r29,#8
 9476  00008f54  64220000	snei	r2,r1,#0
 9477  00008f58  10400024	beqz	r2,L221_LF3
 9478  00008f5c  54000000	nop; delay slot nop
 9479  00008f60  23bdfff8	addi	r29,r29,#-8
 9480  00008f64  001d0820	add	r1,r0,r29
 9481  00008f68  3c020001	lhi	r2,((LC70_LF3)>>16)&0xffff
 9482  00008f6c  2442608c	addui	r2,r2,(LC70_LF3)&0xffff
 9483  00008f70  ac220000	sw	(r1),r2
 9484  00008f74  0c009604	jal	_printf
 9485  00008f78  54000000	nop; delay slot nop
 9486  00008f7c  23bd0008	addi	r29,r29,#8
 9487  00008f80          	L221_LF3:
 9488  00008f80  001d1020	add	r2,r0,r29
 9489  00008f84  0fffbe3c	jal	_ProcessModuleInit
 9490  00008f88  54000000	nop; delay slot nop
 9491  00008f8c  23bdfff8	addi	r29,r29,#-8
 9492  00008f90  001d0820	add	r1,r0,r29
 9493  00008f94  3c020001	lhi	r2,((_debugstr)>>16)&0xffff
 9494  00008f98  244261cb	addui	r2,r2,(_debugstr)&0xffff
 9495  00008f9c  ac220000	sw	(r1),r2
 9496  00008fa0  20020069	addi	r2,r0,#105
 9497  00008fa4  ac220004	sw	4(r1),r2
 9498  00008fa8  0fffb4a8	jal	_dindex
 9499  00008fac  54000000	nop; delay slot nop
 9500  00008fb0  23bd0008	addi	r29,r29,#8
 9501  00008fb4  64220000	snei	r2,r1,#0
 9502  00008fb8  10400024	beqz	r2,L222_LF3
 9503  00008fbc  54000000	nop; delay slot nop
 9504  00008fc0  23bdfff8	addi	r29,r29,#-8
 9505  00008fc4  001d0820	add	r1,r0,r29
 9506  00008fc8  3c020001	lhi	r2,((LC71_LF3)>>16)&0xffff
 9507  00008fcc  244260a8	addui	r2,r2,(LC71_LF3)&0xffff
 9508  00008fd0  ac220000	sw	(r1),r2
 9509  00008fd4  0c0095a4	jal	_printf
 9510  00008fd8  54000000	nop; delay slot nop
 9511  00008fdc  23bd0008	addi	r29,r29,#8
 9512  00008fe0          	L222_LF3:
 9513  00008fe0  23bdfff8	addi	r29,r29,#-8
 9514  00008fe4  001d0820	add	r1,r0,r29
 9515  00008fe8  3c020001	lhi	r2,((_debugstr)>>16)&0xffff
 9516  00008fec  244261cb	addui	r2,r2,(_debugstr)&0xffff
 9517  00008ff0  ac220000	sw	(r1),r2
 9518  00008ff4  2002002b	addi	r2,r0,#43
 9519  00008ff8  ac220004	sw	4(r1),r2
 9520  00008ffc  0fffb454	jal	_dindex
 9521  00009000  54000000	nop; delay slot nop
 9522  00009004  23bd0008	addi	r29,r29,#8
 9523  00009008  64220000	snei	r2,r1,#0
 9524  0000900c  10400024	beqz	r2,L223_LF3
 9525  00009010  54000000	nop; delay slot nop
 9526  00009014  23bdfff8	addi	r29,r29,#-8
 9527  00009018  001d0820	add	r1,r0,r29
 9528  0000901c  3c020001	lhi	r2,((LC71_LF3)>>16)&0xffff
 9529  00009020  244260a8	addui	r2,r2,(LC71_LF3)&0xffff
 9530  00009024  ac220000	sw	(r1),r2
 9531  00009028  0c009550	jal	_printf
 9532  0000902c  54000000	nop; delay slot nop
 9533  00009030  23bd0008	addi	r29,r29,#8
 9534  00009034          	L223_LF3:
 9535  00009034  001d1020	add	r2,r0,r29
 9536  00009038  0c00259c	jal	_SynchModuleInit
 9537  0000903c  54000000	nop; delay slot nop
 9538  00009040  23bdfff8	addi	r29,r29,#-8
 9539  00009044  001d0820	add	r1,r0,r29
 9540  00009048  3c020001	lhi	r2,((_debugstr)>>16)&0xffff
 9541  0000904c  244261cb	addui	r2,r2,(_debugstr)&0xffff
 9542  00009050  ac220000	sw	(r1),r2
 9543  00009054  20020069	addi	r2,r0,#105
 9544  00009058  ac220004	sw	4(r1),r2
 9545  0000905c  0fffb3f4	jal	_dindex
 9546  00009060  54000000	nop; delay slot nop
 9547  00009064  23bd0008	addi	r29,r29,#8
 9548  00009068  64220000	snei	r2,r1,#0
 9549  0000906c  10400024	beqz	r2,L224_LF3
 9550  00009070  54000000	nop; delay slot nop
 9551  00009074  23bdfff8	addi	r29,r29,#-8
 9552  00009078  001d0820	add	r1,r0,r29
 9553  0000907c  3c020001	lhi	r2,((LC72_LF3)>>16)&0xffff
 9554  00009080  244260c8	addui	r2,r2,(LC72_LF3)&0xffff
 9555  00009084  ac220000	sw	(r1),r2
 9556  00009088  0c0094f0	jal	_printf
 9557  0000908c  54000000	nop; delay slot nop
 9558  00009090  23bd0008	addi	r29,r29,#8
 9559  00009094          	L224_LF3:
 9560  00009094  23bdfff8	addi	r29,r29,#-8
 9561  00009098  001d0820	add	r1,r0,r29
 9562  0000909c  3c020001	lhi	r2,((_debugstr)>>16)&0xffff
 9563  000090a0  244261cb	addui	r2,r2,(_debugstr)&0xffff
 9564  000090a4  ac220000	sw	(r1),r2
 9565  000090a8  2002002b	addi	r2,r0,#43
 9566  000090ac  ac220004	sw	4(r1),r2
 9567  000090b0  0fffb3a0	jal	_dindex
 9568  000090b4  54000000	nop; delay slot nop
 9569  000090b8  23bd0008	addi	r29,r29,#8
 9570  000090bc  64220000	snei	r2,r1,#0
 9571  000090c0  10400024	beqz	r2,L225_LF3
 9572  000090c4  54000000	nop; delay slot nop
 9573  000090c8  23bdfff8	addi	r29,r29,#-8
 9574  000090cc  001d0820	add	r1,r0,r29
 9575  000090d0  3c020001	lhi	r2,((LC72_LF3)>>16)&0xffff
 9576  000090d4  244260c8	addui	r2,r2,(LC72_LF3)&0xffff
 9577  000090d8  ac220000	sw	(r1),r2
 9578  000090dc  0c00949c	jal	_printf
 9579  000090e0  54000000	nop; delay slot nop
 9580  000090e4  23bd0008	addi	r29,r29,#8
 9581  000090e8          	L225_LF3:
 9582  000090e8  001d1020	add	r2,r0,r29
 9583  000090ec  0c005c9c	jal	_KbdModuleInit
 9584  000090f0  54000000	nop; delay slot nop
 9585  000090f4  23bdfff8	addi	r29,r29,#-8
 9586  000090f8  001d0820	add	r1,r0,r29
 9587  000090fc  3c020001	lhi	r2,((_debugstr)>>16)&0xffff
 9588  00009100  244261cb	addui	r2,r2,(_debugstr)&0xffff
 9589  00009104  ac220000	sw	(r1),r2
 9590  00009108  20020069	addi	r2,r0,#105
 9591  0000910c  ac220004	sw	4(r1),r2
 9592  00009110  0fffb340	jal	_dindex
 9593  00009114  54000000	nop; delay slot nop
 9594  00009118  23bd0008	addi	r29,r29,#8
 9595  0000911c  64220000	snei	r2,r1,#0
 9596  00009120  10400024	beqz	r2,L226_LF3
 9597  00009124  54000000	nop; delay slot nop
 9598  00009128  23bdfff8	addi	r29,r29,#-8
 9599  0000912c  001d0820	add	r1,r0,r29
 9600  00009130  3c020001	lhi	r2,((LC73_LF3)>>16)&0xffff
 9601  00009134  244260f4	addui	r2,r2,(LC73_LF3)&0xffff
 9602  00009138  ac220000	sw	(r1),r2
 9603  0000913c  0c00943c	jal	_printf
 9604  00009140  54000000	nop; delay slot nop
 9605  00009144  23bd0008	addi	r29,r29,#8
 9606  00009148          	L226_LF3:
 9607  00009148  23bdfff8	addi	r29,r29,#-8
 9608  0000914c  001d0820	add	r1,r0,r29
 9609  00009150  3c020001	lhi	r2,((_debugstr)>>16)&0xffff
 9610  00009154  244261cb	addui	r2,r2,(_debugstr)&0xffff
 9611  00009158  ac220000	sw	(r1),r2
 9612  0000915c  2002002b	addi	r2,r0,#43
 9613  00009160  ac220004	sw	4(r1),r2
 9614  00009164  0fffb2ec	jal	_dindex
 9615  00009168  54000000	nop; delay slot nop
 9616  0000916c  23bd0008	addi	r29,r29,#8
 9617  00009170  64220000	snei	r2,r1,#0
 9618  00009174  10400024	beqz	r2,L227_LF3
 9619  00009178  54000000	nop; delay slot nop
 9620  0000917c  23bdfff8	addi	r29,r29,#-8
 9621  00009180  001d0820	add	r1,r0,r29
 9622  00009184  3c020001	lhi	r2,((LC73_LF3)>>16)&0xffff
 9623  00009188  244260f4	addui	r2,r2,(LC73_LF3)&0xffff
 9624  0000918c  ac220000	sw	(r1),r2
 9625  00009190  0c0093e8	jal	_printf
 9626  00009194  54000000	nop; delay slot nop
 9627  00009198  23bd0008	addi	r29,r29,#8
 9628  0000919c          	L227_LF3:
 9629  0000919c  001d1020	add	r2,r0,r29
 9630  000091a0  0c008b78	jal	_ClkModuleInit
 9631  000091a4  54000000	nop; delay slot nop
 9632  000091a8  23bdfff8	addi	r29,r29,#-8
 9633  000091ac  001d0820	add	r1,r0,r29
 9634  000091b0  3c020001	lhi	r2,((_debugstr)>>16)&0xffff
 9635  000091b4  244261cb	addui	r2,r2,(_debugstr)&0xffff
 9636  000091b8  ac220000	sw	(r1),r2
 9637  000091bc  20020069	addi	r2,r0,#105
 9638  000091c0  ac220004	sw	4(r1),r2
 9639  000091c4  0fffb28c	jal	_dindex
 9640  000091c8  54000000	nop; delay slot nop
 9641  000091cc  23bd0008	addi	r29,r29,#8
 9642  000091d0  64220000	snei	r2,r1,#0
 9643  000091d4  10400024	beqz	r2,L228_LF3
 9644  000091d8  54000000	nop; delay slot nop
 9645  000091dc  23bdfff8	addi	r29,r29,#-8
 9646  000091e0  001d0820	add	r1,r0,r29
 9647  000091e4  3c020001	lhi	r2,((LC74_LF3)>>16)&0xffff
 9648  000091e8  24426114	addui	r2,r2,(LC74_LF3)&0xffff
 9649  000091ec  ac220000	sw	(r1),r2
 9650  000091f0  0c009388	jal	_printf
 9651  000091f4  54000000	nop; delay slot nop
 9652  000091f8  23bd0008	addi	r29,r29,#8
 9653  000091fc          	L228_LF3:
 9654  000091fc  23bdfff8	addi	r29,r29,#-8
 9655  00009200  001d0820	add	r1,r0,r29
 9656  00009204  3c020001	lhi	r2,((_debugstr)>>16)&0xffff
 9657  00009208  244261cb	addui	r2,r2,(_debugstr)&0xffff
 9658  0000920c  ac220000	sw	(r1),r2
 9659  00009210  2002002b	addi	r2,r0,#43
 9660  00009214  ac220004	sw	4(r1),r2
 9661  00009218  0fffb238	jal	_dindex
 9662  0000921c  54000000	nop; delay slot nop
 9663  00009220  23bd0008	addi	r29,r29,#8
 9664  00009224  64220000	snei	r2,r1,#0
 9665  00009228  10400024	beqz	r2,L229_LF3
 9666  0000922c  54000000	nop; delay slot nop
 9667  00009230  23bdfff8	addi	r29,r29,#-8
 9668  00009234  001d0820	add	r1,r0,r29
 9669  00009238  3c020001	lhi	r2,((LC74_LF3)>>16)&0xffff
 9670  0000923c  24426114	addui	r2,r2,(LC74_LF3)&0xffff
 9671  00009240  ac220000	sw	(r1),r2
 9672  00009244  0c009334	jal	_printf
 9673  00009248  54000000	nop; delay slot nop
 9674  0000924c  23bd0008	addi	r29,r29,#8
 9675  00009250          	L229_LF3:
 9676  00009250  54000000	nop
 9677  00009254  20010000	addi	r1,r0,#0
 9678  00009258  afc1fff4	sw	-12(r30),r1
 9679  0000925c          	L230_LF3:
 9680  0000925c  8fc1fff4	lw	r1,-12(r30)
 9681  00009260  70220063	slei	r2,r1,#99
 9682  00009264  1440000c	bnez	r2,L233_LF3
 9683  00009268  54000000	nop; delay slot nop
 9684  0000926c  08000030	j	L231_LF3
 9685  00009270  54000000	nop; delay slot nop
 9686  00009274          	L233_LF3:
 9687  00009274  23c1ff70	addi	r1,r30,#-144
 9688  00009278  8fc2fff4	lw	r2,-12(r30)
 9689  0000927c  00220820	add	r1,r1,r2
 9690  00009280  20020061	addi	r2,r0,(#0x61)&0xff
 9691  00009284  a0220000	sb	(r1),r2
 9692  00009288          	L232_LF3:
 9693  00009288  8fc2fff4	lw	r2,-12(r30)
 9694  0000928c  20410001	addi	r1,r2,#1
 9695  00009290  00011020	add	r2,r0,r1
 9696  00009294  afc2fff4	sw	-12(r30),r2
 9697  00009298  0bffffc0	j	L230_LF3
 9698  0000929c  54000000	nop; delay slot nop
 9699  000092a0          	L231_LF3:
 9700  000092a0  23bdfff8	addi	r29,r29,#-8
 9701  000092a4  001d0820	add	r1,r0,r29
 9702  000092a8  3c020001	lhi	r2,((LC75_LF3)>>16)&0xffff
 9703  000092ac  24426130	addui	r2,r2,(LC75_LF3)&0xffff
 9704  000092b0  ac220000	sw	(r1),r2
 9705  000092b4  20020002	addi	r2,r0,#2
 9706  000092b8  ac220004	sw	4(r1),r2
 9707  000092bc  0fff7fa0	jal	_FsOpen
 9708  000092c0  54000000	nop; delay slot nop
 9709  000092c4  23bd0008	addi	r29,r29,#8
 9710  000092c8  afc1fff4	sw	-12(r30),r1
 9711  000092cc  23bdfff8	addi	r29,r29,#-8
 9712  000092d0  001d0820	add	r1,r0,r29
 9713  000092d4  3c020001	lhi	r2,((_debugstr)>>16)&0xffff
 9714  000092d8  244261cb	addui	r2,r2,(_debugstr)&0xffff
 9715  000092dc  ac220000	sw	(r1),r2
 9716  000092e0  20020069	addi	r2,r0,#105
 9717  000092e4  ac220004	sw	4(r1),r2
 9718  000092e8  0fffb168	jal	_dindex
 9719  000092ec  54000000	nop; delay slot nop
 9720  000092f0  23bd0008	addi	r29,r29,#8
 9721  000092f4  64220000	snei	r2,r1,#0
 9722  000092f8  1040002c	beqz	r2,L234_LF3
 9723  000092fc  54000000	nop; delay slot nop
 9724  00009300  23bdfff8	addi	r29,r29,#-8
 9725  00009304  001d0820	add	r1,r0,r29
 9726  00009308  3c020001	lhi	r2,((LC76_LF3)>>16)&0xffff
 9727  0000930c  24426134	addui	r2,r2,(LC76_LF3)&0xffff
 9728  00009310  ac220000	sw	(r1),r2
 9729  00009314  8fc2fff4	lw	r2,-12(r30)
 9730  00009318  ac220004	sw	4(r1),r2
 9731  0000931c  0c00925c	jal	_printf
 9732  00009320  54000000	nop; delay slot nop
 9733  00009324  23bd0008	addi	r29,r29,#8
 9734  00009328          	L234_LF3:
 9735  00009328  23bdfff8	addi	r29,r29,#-8
 9736  0000932c  001d0820	add	r1,r0,r29
 9737  00009330  3c020001	lhi	r2,((_debugstr)>>16)&0xffff
 9738  00009334  244261cb	addui	r2,r2,(_debugstr)&0xffff
 9739  00009338  ac220000	sw	(r1),r2
 9740  0000933c  2002002b	addi	r2,r0,#43
 9741  00009340  ac220004	sw	4(r1),r2
 9742  00009344  0fffb10c	jal	_dindex
 9743  00009348  54000000	nop; delay slot nop
 9744  0000934c  23bd0008	addi	r29,r29,#8
 9745  00009350  64220000	snei	r2,r1,#0
 9746  00009354  1040002c	beqz	r2,L235_LF3
 9747  00009358  54000000	nop; delay slot nop
 9748  0000935c  23bdfff8	addi	r29,r29,#-8
 9749  00009360  001d0820	add	r1,r0,r29
 9750  00009364  3c020001	lhi	r2,((LC76_LF3)>>16)&0xffff
 9751  00009368  24426134	addui	r2,r2,(LC76_LF3)&0xffff
 9752  0000936c  ac220000	sw	(r1),r2
 9753  00009370  8fc2fff4	lw	r2,-12(r30)
 9754  00009374  ac220004	sw	4(r1),r2
 9755  00009378  0c009200	jal	_printf
 9756  0000937c  54000000	nop; delay slot nop
 9757  00009380  23bd0008	addi	r29,r29,#8
 9758  00009384          	L235_LF3:
 9759  00009384  23bdfff0	addi	r29,r29,#-16
 9760  00009388  001d0820	add	r1,r0,r29
 9761  0000938c  8fc2fff4	lw	r2,-12(r30)
 9762  00009390  ac220000	sw	(r1),r2
 9763  00009394  20020000	addi	r2,r0,#0
 9764  00009398  ac220004	sw	4(r1),r2
 9765  0000939c  20020000	addi	r2,r0,#0
 9766  000093a0  ac220008	sw	8(r1),r2
 9767  000093a4  0fff8780	jal	_FsSeek
 9768  000093a8  54000000	nop; delay slot nop
 9769  000093ac  23bd0010	addi	r29,r29,#16
 9770  000093b0  23bdfff0	addi	r29,r29,#-16
 9771  000093b4  001d0820	add	r1,r0,r29
 9772  000093b8  8fc2fff4	lw	r2,-12(r30)
 9773  000093bc  ac220000	sw	(r1),r2
 9774  000093c0  23c2ff70	addi	r2,r30,#-144
 9775  000093c4  ac220004	sw	4(r1),r2
 9776  000093c8  20020050	addi	r2,r0,#80
 9777  000093cc  ac220008	sw	8(r1),r2
 9778  000093d0  0fff8654	jal	_FsWrite
 9779  000093d4  54000000	nop; delay slot nop
 9780  000093d8  23bd0010	addi	r29,r29,#16
 9781  000093dc  23bdfff8	addi	r29,r29,#-8
 9782  000093e0  001d0820	add	r1,r0,r29
 9783  000093e4  8fc2fff4	lw	r2,-12(r30)
 9784  000093e8  ac220000	sw	(r1),r2
 9785  000093ec  0fff842c	jal	_FsClose
 9786  000093f0  54000000	nop; delay slot nop
 9787  000093f4  23bd0008	addi	r29,r29,#8
 9788  000093f8  8fc1ff6c	lw	r1,-148(r30)
 9789  000093fc  64220000	snei	r2,r1,#0
 9790  00009400  10400180	beqz	r2,L236_LF3
 9791  00009404  54000000	nop; delay slot nop
 9792  00009408  20010000	addi	r1,r0,#0
 9793  0000940c  afc1ff64	sw	-156(r30),r1
 9794  00009410  20010000	addi	r1,r0,#0
 9795  00009414  afc1fe5c	sw	-420(r30),r1
 9796  00009418  20010000	addi	r1,r0,#0
 9797  0000941c  afc1fff4	sw	-12(r30),r1
 9798  00009420          	L237_LF3:
 9799  00009420  8fc10000	lw	r1,(r30)
 9800  00009424  8fc2ff68	lw	r2,-152(r30)
 9801  00009428  00220822	sub	r1,r1,r2
 9802  0000942c  8fc2fff4	lw	r2,-12(r30)
 9803  00009430  0041082a	slt	r1,r2,r1
 9804  00009434  1420000c	bnez	r1,L240_LF3
 9805  00009438  54000000	nop; delay slot nop
 9806  0000943c  08000100	j	L238_LF3
 9807  00009440  54000000	nop; delay slot nop
 9808  00009444          	L240_LF3:
 9809  00009444  20010000	addi	r1,r0,#0
 9810  00009448  afc1fff0	sw	-16(r30),r1
 9811  0000944c          	L241_LF3:
 9812  0000944c  8fc1fe5c	lw	r1,-420(r30)
 9813  00009450  702200ff	slei	r2,r1,#255
 9814  00009454  1440000c	bnez	r2,L244_LF3
 9815  00009458  54000000	nop; delay slot nop
 9816  0000945c  080000b8	j	L242_LF3
 9817  00009460  54000000	nop; delay slot nop
 9818  00009464          	L244_LF3:
 9819  00009464  8fc1fe5c	lw	r1,-420(r30)
 9820  00009468  20220001	addi	r2,r1,#1
 9821  0000946c  afc2fe5c	sw	-420(r30),r2
 9822  00009470  23c2fe60	addi	r2,r30,#-416
 9823  00009474  00410820	add	r1,r2,r1
 9824  00009478  8fc2fff4	lw	r2,-12(r30)
 9825  0000947c  8fc3ff68	lw	r3,-152(r30)
 9826  00009480  00431020	add	r2,r2,r3
 9827  00009484  20030004	addi	r3,r0,#4
 9828  00009488  00400035	movi2fp	f0,r2
 9829  0000948c  00600835	movi2fp	f1,r3
 9830  00009490  0401000e	mult	f0,f0,f1
 9831  00009494  00001034	movfp2i	r2,f0
 9832  00009498  8fc30004	lw	r3,4(r30)
 9833  0000949c  00431020	add	r2,r2,r3
 9834  000094a0  8c430000	lw	r3,(r2)
 9835  000094a4  8fc4fff0	lw	r4,-16(r30)
 9836  000094a8  00641020	add	r2,r3,r4
 9837  000094ac  80430000	lb	r3,(r2)
 9838  000094b0  a0230000	sb	(r1),r3
 9839  000094b4  8fc1fff4	lw	r1,-12(r30)
 9840  000094b8  8fc2ff68	lw	r2,-152(r30)
 9841  000094bc  00220820	add	r1,r1,r2
 9842  000094c0  20020004	addi	r2,r0,#4
 9843  000094c4  00200035	movi2fp	f0,r1
 9844  000094c8  00400835	movi2fp	f1,r2
 9845  000094cc  0401000e	mult	f0,f0,f1
 9846  000094d0  00000834	movfp2i	r1,f0
 9847  000094d4  8fc20004	lw	r2,4(r30)
 9848  000094d8  00220820	add	r1,r1,r2
 9849  000094dc  8c220000	lw	r2,(r1)
 9850  000094e0  8fc3fff0	lw	r3,-16(r30)
 9851  000094e4  00430820	add	r1,r2,r3
 9852  000094e8  90220000	lbu	r2,(r1)
 9853  000094ec  64410000	snei	r1,r2,#0
 9854  000094f0  1420000c	bnez	r1,L243_LF3
 9855  000094f4  54000000	nop; delay slot nop
 9856  000094f8  0800001c	j	L242_LF3
 9857  000094fc  54000000	nop; delay slot nop
 9858  00009500          	L245_LF3:
 9859  00009500          	L243_LF3:
 9860  00009500  8fc2fff0	lw	r2,-16(r30)
 9861  00009504  20410001	addi	r1,r2,#1
 9862  00009508  00011020	add	r2,r0,r1
 9863  0000950c  afc2fff0	sw	-16(r30),r2
 9864  00009510  0bffff38	j	L241_LF3
 9865  00009514  54000000	nop; delay slot nop
 9866  00009518          	L242_LF3:
 9867  00009518  8fc2ff64	lw	r2,-156(r30)
 9868  0000951c  20410001	addi	r1,r2,#1
 9869  00009520  00011020	add	r2,r0,r1
 9870  00009524  afc2ff64	sw	-156(r30),r2
 9871  00009528          	L239_LF3:
 9872  00009528  8fc2fff4	lw	r2,-12(r30)
 9873  0000952c  20410001	addi	r1,r2,#1
 9874  00009530  00011020	add	r2,r0,r1
 9875  00009534  afc2fff4	sw	-12(r30),r2
 9876  00009538  0bfffee4	j	L237_LF3
 9877  0000953c  54000000	nop; delay slot nop
 9878  00009540          	L238_LF3:
 9879  00009540  20010000	addi	r1,r0,(#0x0)&0xff
 9880  00009544  a3c1ff5f	sb	-161(r30),r1
 9881  00009548  23bdfff0	addi	r29,r29,#-16
 9882  0000954c  001d0820	add	r1,r0,r29
 9883  00009550  20020000	addi	r2,r0,#0
 9884  00009554  ac220000	sw	(r1),r2
 9885  00009558  23c2fe60	addi	r2,r30,#-416
 9886  0000955c  ac220004	sw	4(r1),r2
 9887  00009560  8fc2ff6c	lw	r2,-148(r30)
 9888  00009564  ac220008	sw	8(r1),r2
 9889  00009568  20020001	addi	r2,r0,#1
 9890  0000956c  ac22000c	sw	12(r1),r2
 9891  00009570  0fffcf20	jal	_ProcessFork
 9892  00009574  54000000	nop; delay slot nop
 9893  00009578  23bd0010	addi	r29,r29,#16
 9894  0000957c  080000ac	j	L246_LF3
 9895  00009580  54000000	nop; delay slot nop
 9896  00009584          	L236_LF3:
 9897  00009584  23bdfff8	addi	r29,r29,#-8
 9898  00009588  001d0820	add	r1,r0,r29
 9899  0000958c  3c020001	lhi	r2,((_debugstr)>>16)&0xffff
 9900  00009590  244261cb	addui	r2,r2,(_debugstr)&0xffff
 9901  00009594  ac220000	sw	(r1),r2
 9902  00009598  20020069	addi	r2,r0,#105
 9903  0000959c  ac220004	sw	4(r1),r2
 9904  000095a0  0fffaeb0	jal	_dindex
 9905  000095a4  54000000	nop; delay slot nop
 9906  000095a8  23bd0008	addi	r29,r29,#8
 9907  000095ac  64220000	snei	r2,r1,#0
 9908  000095b0  10400024	beqz	r2,L247_LF3
 9909  000095b4  54000000	nop; delay slot nop
 9910  000095b8  23bdfff8	addi	r29,r29,#-8
 9911  000095bc  001d0820	add	r1,r0,r29
 9912  000095c0  3c020001	lhi	r2,((LC77_LF3)>>16)&0xffff
 9913  000095c4  2442614c	addui	r2,r2,(LC77_LF3)&0xffff
 9914  000095c8  ac220000	sw	(r1),r2
 9915  000095cc  0c008fac	jal	_printf
 9916  000095d0  54000000	nop; delay slot nop
 9917  000095d4  23bd0008	addi	r29,r29,#8
 9918  000095d8          	L247_LF3:
 9919  000095d8  23bdfff8	addi	r29,r29,#-8
 9920  000095dc  001d0820	add	r1,r0,r29
 9921  000095e0  3c020001	lhi	r2,((_debugstr)>>16)&0xffff
 9922  000095e4  244261cb	addui	r2,r2,(_debugstr)&0xffff
 9923  000095e8  ac220000	sw	(r1),r2
 9924  000095ec  2002002b	addi	r2,r0,#43
 9925  000095f0  ac220004	sw	4(r1),r2
 9926  000095f4  0fffae5c	jal	_dindex
 9927  000095f8  54000000	nop; delay slot nop
 9928  000095fc  23bd0008	addi	r29,r29,#8
 9929  00009600  64220000	snei	r2,r1,#0
 9930  00009604  10400024	beqz	r2,L246_LF3
 9931  00009608  54000000	nop; delay slot nop
 9932  0000960c  23bdfff8	addi	r29,r29,#-8
 9933  00009610  001d0820	add	r1,r0,r29
 9934  00009614  3c020001	lhi	r2,((LC77_LF3)>>16)&0xffff
 9935  00009618  2442614c	addui	r2,r2,(LC77_LF3)&0xffff
 9936  0000961c  ac220000	sw	(r1),r2
 9937  00009620  0c008f58	jal	_printf
 9938  00009624  54000000	nop; delay slot nop
 9939  00009628  23bd0008	addi	r29,r29,#8
 9940  0000962c          	L248_LF3:
 9941  0000962c          	L246_LF3:
 9942  0000962c  001d1020	add	r2,r0,r29
 9943  00009630  0c008744	jal	_ClkStart
 9944  00009634  54000000	nop; delay slot nop
 9945  00009638  23bdfff8	addi	r29,r29,#-8
 9946  0000963c  001d0820	add	r1,r0,r29
 9947  00009640  3c020001	lhi	r2,((_debugstr)>>16)&0xffff
 9948  00009644  244261cb	addui	r2,r2,(_debugstr)&0xffff
 9949  00009648  ac220000	sw	(r1),r2
 9950  0000964c  20020069	addi	r2,r0,#105
 9951  00009650  ac220004	sw	4(r1),r2
 9952  00009654  0fffadfc	jal	_dindex
 9953  00009658  54000000	nop; delay slot nop
 9954  0000965c  23bd0008	addi	r29,r29,#8
 9955  00009660  64220000	snei	r2,r1,#0
 9956  00009664  10400034	beqz	r2,L249_LF3
 9957  00009668  54000000	nop; delay slot nop
 9958  0000966c  23bdfff8	addi	r29,r29,#-8
 9959  00009670  001d0820	add	r1,r0,r29
 9960  00009674  3c020001	lhi	r2,((LC78_LF3)>>16)&0xffff
 9961  00009678  24426168	addui	r2,r2,(LC78_LF3)&0xffff
 9962  0000967c  ac220000	sw	(r1),r2
 9963  00009680  3c020001	lhi	r2,((_processQuantum_LF3)>>16)&0xffff
 9964  00009684  24425450	addui	r2,r2,(_processQuantum_LF3)&0xffff
 9965  00009688  8c430000	lw	r3,(r2)
 9966  0000968c  ac230004	sw	4(r1),r3
 9967  00009690  0c008ee8	jal	_printf
 9968  00009694  54000000	nop; delay slot nop
 9969  00009698  23bd0008	addi	r29,r29,#8
 9970  0000969c          	L249_LF3:
 9971  0000969c  23bdfff8	addi	r29,r29,#-8
 9972  000096a0  001d0820	add	r1,r0,r29
 9973  000096a4  3c020001	lhi	r2,((_debugstr)>>16)&0xffff
 9974  000096a8  244261cb	addui	r2,r2,(_debugstr)&0xffff
 9975  000096ac  ac220000	sw	(r1),r2
 9976  000096b0  2002002b	addi	r2,r0,#43
 9977  000096b4  ac220004	sw	4(r1),r2
 9978  000096b8  0fffad98	jal	_dindex
 9979  000096bc  54000000	nop; delay slot nop
 9980  000096c0  23bd0008	addi	r29,r29,#8
 9981  000096c4  64220000	snei	r2,r1,#0
 9982  000096c8  10400034	beqz	r2,L250_LF3
 9983  000096cc  54000000	nop; delay slot nop
 9984  000096d0  23bdfff8	addi	r29,r29,#-8
 9985  000096d4  001d0820	add	r1,r0,r29
 9986  000096d8  3c020001	lhi	r2,((LC78_LF3)>>16)&0xffff
 9987  000096dc  24426168	addui	r2,r2,(LC78_LF3)&0xffff
 9988  000096e0  ac220000	sw	(r1),r2
 9989  000096e4  3c020001	lhi	r2,((_processQuantum_LF3)>>16)&0xffff
 9990  000096e8  24425450	addui	r2,r2,(_processQuantum_LF3)&0xffff
 9991  000096ec  8c430000	lw	r3,(r2)
 9992  000096f0  ac230004	sw	4(r1),r3
 9993  000096f4  0c008e84	jal	_printf
 9994  000096f8  54000000	nop; delay slot nop
 9995  000096fc  23bd0008	addi	r29,r29,#8
 9996  00009700          	L250_LF3:
 9997  00009700  001d1020	add	r2,r0,r29
 9998  00009704  0c008c54	jal	_intrreturn
 9999  00009708  54000000	nop; delay slot nop
10000  0000970c  001d1020	add	r2,r0,r29
10001  00009710  0c008e50	jal	_exitsim
10002  00009714  54000000	nop; delay slot nop
10003  00009718          	L190_LF3:
10004  00009718  0c008e54	jal	_exit
10005  0000971c  54000000	nop
10006  00009720          	.endproc _main
10007  00009720          	.align 2
10008  00009720          	.proc _GetCurrentPid
10009  00009720          	.global _GetCurrentPid
10010  00009720          	_GetCurrentPid:
10011                      ;  Function 'GetCurrentPid'; 0 bytes of locals, 1 regs to save.
10012  00009720  afbefffc	sw	-4(r29),r30; push fp
10013  00009724  001df020	add	r30,r0,r29; fp = sp
10014  00009728  afbffff8	sw	-8(r29),r31; push ret addr
10015  0000972c  2fbd0010	subui	r29,r29,#16; alloc local storage
10016  00009730  afa20000	sw	0(r29),r2
10017  00009734  3c010001	lhi	r1,((_currentPCB)>>16)&0xffff
10018  00009738  24216294	addui	r1,r1,(_currentPCB)&0xffff
10019  0000973c  8c220000	lw	r2,(r1)
10020  00009740  3c1f0001	lhi	r31,((_pcbs_LF3)>>16)&0xffff
10021  00009744  27ff62c8	addui	r31,r31,(_pcbs_LF3)&0xffff
10022  00009748  005f0822	sub	r1,r2,r31
10023  0000974c  3c02cd29	lhi	r2,#-13015
10024  00009750  2442c245	addui	r2,r2,#49733
10025  00009754  00200035	movi2fp	f0,r1
10026  00009758  00400835	movi2fp	f1,r2
10027  0000975c  0401000e	mult	f0,f0,f1
10028  00009760  00000834	movfp2i	r1,f0
10029  00009764  5c220003	srai	r2,r1,#0x3
10030  00009768  00020820	add	r1,r0,r2
10031  0000976c  08000004	j	L251_LF3
10032  00009770  54000000	nop; delay slot nop
10033  00009774          	L251_LF3:
10034  00009774  8fa20000	lw	r2,0(r29)
10035  00009778  8fdffff8	lw	r31,-8(r30)
10036  0000977c  001ee820	add	r29,r0,r30
10037  00009780  8fdefffc	lw	r30,-4(r30)
10038  00009784  4be00000	jr	r31
10039  00009788  54000000	nop
10040  0000978c          	.endproc _GetCurrentPid
10041  0000978c          	.align 2
10042  0000978c          	.proc _findpid
10043  0000978c          	.global _findpid
10044  0000978c          	_findpid:
10045                      ;  Function 'findpid'; 0 bytes of locals, 1 regs to save.
10046  0000978c  afbefffc	sw	-4(r29),r30; push fp
10047  00009790  001df020	add	r30,r0,r29; fp = sp
10048  00009794  afbffff8	sw	-8(r29),r31; push ret addr
10049  00009798  2fbd0010	subui	r29,r29,#16; alloc local storage
10050  0000979c  afa20000	sw	0(r29),r2
10051  000097a0  8fc20000	lw	r2,(r30)
10052  000097a4  3c1f0001	lhi	r31,((_pcbs_LF3)>>16)&0xffff
10053  000097a8  27ff62c8	addui	r31,r31,(_pcbs_LF3)&0xffff
10054  000097ac  005f0822	sub	r1,r2,r31
10055  000097b0  3c02cd29	lhi	r2,#-13015
10056  000097b4  2442c245	addui	r2,r2,#49733
10057  000097b8  00200035	movi2fp	f0,r1
10058  000097bc  00400835	movi2fp	f1,r2
10059  000097c0  0401000e	mult	f0,f0,f1
10060  000097c4  00000834	movfp2i	r1,f0
10061  000097c8  5c220003	srai	r2,r1,#0x3
10062  000097cc  00020820	add	r1,r0,r2
10063  000097d0  08000004	j	L252_LF3
10064  000097d4  54000000	nop; delay slot nop
10065  000097d8          	L252_LF3:
10066  000097d8  8fa20000	lw	r2,0(r29)
10067  000097dc  8fdffff8	lw	r31,-8(r30)
10068  000097e0  001ee820	add	r29,r0,r30
10069  000097e4  8fdefffc	lw	r30,-4(r30)
10070  000097e8  4be00000	jr	r31
10071  000097ec  54000000	nop
10072  000097f0          	.endproc _findpid
10073  000097f0          	.data
10074  0001619e          	.align 2
10075  000161a0          	_str45_LF3:
10076  000161a0          	.space 4
10077  000161a4          	.align 2
10078  000161a4          	_location46_LF3:
10079  000161a4  00000000	.word 0
10080  000161a8          	.text
10081  000097f0          	.align 2
10082  000097f0          	.proc _get_argument
10083  000097f0          	.global _get_argument
10084  000097f0          	_get_argument:
10085                      ;  Function 'get_argument'; 8 bytes of locals, 2 regs to save.
10086  000097f0  afbefffc	sw	-4(r29),r30; push fp
10087  000097f4  001df020	add	r30,r0,r29; fp = sp
10088  000097f8  afbffff8	sw	-8(r29),r31; push ret addr
10089  000097fc  2fbd0018	subui	r29,r29,#24; alloc local storage
10090  00009800  afa20000	sw	0(r29),r2
10091  00009804  afa30004	sw	4(r29),r3
10092  00009808  8fc10000	lw	r1,(r30)
10093  0000980c  64220000	snei	r2,r1,#0
10094  00009810  10400024	beqz	r2,L254_LF3
10095  00009814  54000000	nop; delay slot nop
10096  00009818  3c010001	lhi	r1,((_str45_LF3)>>16)&0xffff
10097  0000981c  242161a0	addui	r1,r1,(_str45_LF3)&0xffff
10098  00009820  8fc20000	lw	r2,(r30)
10099  00009824  ac220000	sw	(r1),r2
10100  00009828  3c010001	lhi	r1,((_location46_LF3)>>16)&0xffff
10101  0000982c  242161a4	addui	r1,r1,(_location46_LF3)&0xffff
10102  00009830  20020000	addi	r2,r0,#0
10103  00009834  ac220000	sw	(r1),r2
10104  00009838          	L254_LF3:
10105  00009838  3c010001	lhi	r1,((_location46_LF3)>>16)&0xffff
10106  0000983c  242161a4	addui	r1,r1,(_location46_LF3)&0xffff
10107  00009840  8c220000	lw	r2,(r1)
10108  00009844  afc2fff4	sw	-12(r30),r2
10109  00009848  3c020001	lhi	r2,((_str45_LF3)>>16)&0xffff
10110  0000984c  244261a0	addui	r2,r2,(_str45_LF3)&0xffff
10111  00009850  8c410000	lw	r1,(r2)
10112  00009854  3c030001	lhi	r3,((_location46_LF3)>>16)&0xffff
10113  00009858  246361a4	addui	r3,r3,(_location46_LF3)&0xffff
10114  0000985c  8c620000	lw	r2,(r3)
10115  00009860  00220820	add	r1,r1,r2
10116  00009864  90220000	lbu	r2,(r1)
10117  00009868  64410000	snei	r1,r2,#0
10118  0000986c  14200010	bnez	r1,L255_LF3
10119  00009870  54000000	nop; delay slot nop
10120  00009874  20010000	addi	r1,r0,#0
10121  00009878  080000e4	j	L253_LF3
10122  0000987c  54000000	nop; delay slot nop
10123  00009880          	L255_LF3:
10124  00009880  3c010001	lhi	r1,((_location46_LF3)>>16)&0xffff
10125  00009884  242161a4	addui	r1,r1,(_location46_LF3)&0xffff
10126  00009888  8c220000	lw	r2,(r1)
10127  0000988c  6c4100fe	sgti	r1,r2,#254
10128  00009890  10200010	beqz	r1,L256_LF3
10129  00009894  54000000	nop; delay slot nop
10130  00009898  20010000	addi	r1,r0,#0
10131  0000989c  080000c0	j	L253_LF3
10132  000098a0  54000000	nop; delay slot nop
10133  000098a4          	L256_LF3:
10134  000098a4  54000000	nop
10135  000098a8          	L257_LF3:
10136  000098a8  3c010001	lhi	r1,((_location46_LF3)>>16)&0xffff
10137  000098ac  242161a4	addui	r1,r1,(_location46_LF3)&0xffff
10138  000098b0  8c220000	lw	r2,(r1)
10139  000098b4  704100ff	slei	r1,r2,#255
10140  000098b8  1420000c	bnez	r1,L260_LF3
10141  000098bc  54000000	nop; delay slot nop
10142  000098c0  08000090	j	L258_LF3
10143  000098c4  54000000	nop; delay slot nop
10144  000098c8          	L260_LF3:
10145  000098c8  3c020001	lhi	r2,((_str45_LF3)>>16)&0xffff
10146  000098cc  244261a0	addui	r2,r2,(_str45_LF3)&0xffff
10147  000098d0  8c410000	lw	r1,(r2)
10148  000098d4  3c030001	lhi	r3,((_location46_LF3)>>16)&0xffff
10149  000098d8  246361a4	addui	r3,r3,(_location46_LF3)&0xffff
10150  000098dc  8c620000	lw	r2,(r3)
10151  000098e0  00220820	add	r1,r1,r2
10152  000098e4  90220000	lbu	r2,(r1)
10153  000098e8  64410000	snei	r1,r2,#0
10154  000098ec  14200034	bnez	r1,L259_LF3
10155  000098f0  54000000	nop; delay slot nop
10156  000098f4  3c020001	lhi	r2,((_location46_LF3)>>16)&0xffff
10157  000098f8  244261a4	addui	r2,r2,(_location46_LF3)&0xffff
10158  000098fc  3c010001	lhi	r1,((_location46_LF3)>>16)&0xffff
10159  00009900  242161a4	addui	r1,r1,(_location46_LF3)&0xffff
10160  00009904  3c020001	lhi	r2,((_location46_LF3)>>16)&0xffff
10161  00009908  244261a4	addui	r2,r2,(_location46_LF3)&0xffff
10162  0000990c  8c430000	lw	r3,(r2)
10163  00009910  20620001	addi	r2,r3,#1
10164  00009914  00021820	add	r3,r0,r2
10165  00009918  ac230000	sw	(r1),r3
10166  0000991c  08000034	j	L258_LF3
10167  00009920  54000000	nop; delay slot nop
10168  00009924          	L261_LF3:
10169  00009924          	L259_LF3:
10170  00009924  3c020001	lhi	r2,((_location46_LF3)>>16)&0xffff
10171  00009928  244261a4	addui	r2,r2,(_location46_LF3)&0xffff
10172  0000992c  3c010001	lhi	r1,((_location46_LF3)>>16)&0xffff
10173  00009930  242161a4	addui	r1,r1,(_location46_LF3)&0xffff
10174  00009934  3c020001	lhi	r2,((_location46_LF3)>>16)&0xffff
10175  00009938  244261a4	addui	r2,r2,(_location46_LF3)&0xffff
10176  0000993c  8c430000	lw	r3,(r2)
10177  00009940  20620001	addi	r2,r3,#1
10178  00009944  00021820	add	r3,r0,r2
10179  00009948  ac230000	sw	(r1),r3
10180  0000994c  0bffff58	j	L257_LF3
10181  00009950  54000000	nop; delay slot nop
10182  00009954          	L258_LF3:
10183  00009954  8fc1fff4	lw	r1,-12(r30)
10184  00009958  08000004	j	L253_LF3
10185  0000995c  54000000	nop; delay slot nop
10186  00009960          	L253_LF3:
10187  00009960  8fa20000	lw	r2,0(r29)
10188  00009964  8fa30004	lw	r3,4(r29)
10189  00009968  8fdffff8	lw	r31,-8(r30)
10190  0000996c  001ee820	add	r29,r0,r30
10191  00009970  8fdefffc	lw	r30,-4(r30)
10192  00009974  4be00000	jr	r31
10193  00009978  54000000	nop
10194  0000997c          	.endproc _get_argument
10195  0000997c          	.align 2
10196  0000997c          	.proc _GetPidFromAddress
10197  0000997c          	.global _GetPidFromAddress
10198  0000997c          	_GetPidFromAddress:
10199                      ;  Function 'GetPidFromAddress'; 0 bytes of locals, 1 regs to save.
10200  0000997c  afbefffc	sw	-4(r29),r30; push fp
10201  00009980  001df020	add	r30,r0,r29; fp = sp
10202  00009984  afbffff8	sw	-8(r29),r31; push ret addr
10203  00009988  2fbd0010	subui	r29,r29,#16; alloc local storage
10204  0000998c  afa20000	sw	0(r29),r2
10205  00009990  8fc20000	lw	r2,(r30)
10206  00009994  3c1f0001	lhi	r31,((_pcbs_LF3)>>16)&0xffff
10207  00009998  27ff62c8	addui	r31,r31,(_pcbs_LF3)&0xffff
10208  0000999c  005f0822	sub	r1,r2,r31
10209  000099a0  3c02cd29	lhi	r2,#-13015
10210  000099a4  2442c245	addui	r2,r2,#49733
10211  000099a8  00200035	movi2fp	f0,r1
10212  000099ac  00400835	movi2fp	f1,r2
10213  000099b0  0401000e	mult	f0,f0,f1
10214  000099b4  00000834	movfp2i	r1,f0
10215  000099b8  5c220003	srai	r2,r1,#0x3
10216  000099bc  00020820	add	r1,r0,r2
10217  000099c0  08000004	j	L262_LF3
10218  000099c4  54000000	nop; delay slot nop
10219  000099c8          	L262_LF3:
10220  000099c8  8fa20000	lw	r2,0(r29)
10221  000099cc  8fdffff8	lw	r31,-8(r30)
10222  000099d0  001ee820	add	r29,r0,r30
10223  000099d4  8fdefffc	lw	r30,-4(r30)
10224  000099d8  4be00000	jr	r31
10225  000099dc  54000000	nop
10226  000099e0          	.endproc _GetPidFromAddress
10227  000099e0          	.data
10228  000161a8          	.align 2
10229  000161a8          	LC79_LF3:
10230  000161a8  50726f63	.ascii "ProcessKill: killing processid %d\n\000"
10230  000161ac  6573734b	
10230  000161b0  696c6c3a	
10230  000161b4  206b696c	
10230  000161b8  6c696e67	
10230  000161bc  2070726f	
10230  000161c0  63657373	
10230  000161c4  69642025	
10230  000161c8  640a00  	
10231  000161cb          	.text
10232  000099e0          	.align 2
10233  000099e0          	.proc _ProcessKill
10234  000099e0          	.global _ProcessKill
10235  000099e0          	_ProcessKill:
10236                      ;  Function 'ProcessKill'; 0 bytes of locals, 2 regs to save.
10237  000099e0  afbefffc	sw	-4(r29),r30; push fp
10238  000099e4  001df020	add	r30,r0,r29; fp = sp
10239  000099e8  afbffff8	sw	-8(r29),r31; push ret addr
10240  000099ec  2fbd0010	subui	r29,r29,#16; alloc local storage
10241  000099f0  afa20000	sw	0(r29),r2
10242  000099f4  afa30004	sw	4(r29),r3
10243  000099f8  23bdfff8	addi	r29,r29,#-8
10244  000099fc  001d0820	add	r1,r0,r29
10245  00009a00  3c020001	lhi	r2,((_debugstr)>>16)&0xffff
10246  00009a04  244261cb	addui	r2,r2,(_debugstr)&0xffff
10247  00009a08  ac220000	sw	(r1),r2
10248  00009a0c  2002006d	addi	r2,r0,#109
10249  00009a10  ac220004	sw	4(r1),r2
10250  00009a14  0fffaa3c	jal	_dindex
10251  00009a18  54000000	nop; delay slot nop
10252  00009a1c  23bd0008	addi	r29,r29,#8
10253  00009a20  64220000	snei	r2,r1,#0
10254  00009a24  10400034	beqz	r2,L264_LF3
10255  00009a28  54000000	nop; delay slot nop
10256  00009a2c  001d1020	add	r2,r0,r29
10257  00009a30  0ffffcec	jal	_GetCurrentPid
10258  00009a34  54000000	nop; delay slot nop
10259  00009a38  23bdfff8	addi	r29,r29,#-8
10260  00009a3c  001d1020	add	r2,r0,r29
10261  00009a40  3c030001	lhi	r3,((LC79_LF3)>>16)&0xffff
10262  00009a44  246361a8	addui	r3,r3,(LC79_LF3)&0xffff
10263  00009a48  ac430000	sw	(r2),r3
10264  00009a4c  ac410004	sw	4(r2),r1
10265  00009a50  0c008b28	jal	_printf
10266  00009a54  54000000	nop; delay slot nop
10267  00009a58  23bd0008	addi	r29,r29,#8
10268  00009a5c          	L264_LF3:
10269  00009a5c  23bdfff8	addi	r29,r29,#-8
10270  00009a60  001d0820	add	r1,r0,r29
10271  00009a64  3c020001	lhi	r2,((_debugstr)>>16)&0xffff
10272  00009a68  244261cb	addui	r2,r2,(_debugstr)&0xffff
10273  00009a6c  ac220000	sw	(r1),r2
10274  00009a70  2002002b	addi	r2,r0,#43
10275  00009a74  ac220004	sw	4(r1),r2
10276  00009a78  0fffa9d8	jal	_dindex
10277  00009a7c  54000000	nop; delay slot nop
10278  00009a80  23bd0008	addi	r29,r29,#8
10279  00009a84  64220000	snei	r2,r1,#0
10280  00009a88  10400034	beqz	r2,L265_LF3
10281  00009a8c  54000000	nop; delay slot nop
10282  00009a90  001d1020	add	r2,r0,r29
10283  00009a94  0ffffc88	jal	_GetCurrentPid
10284  00009a98  54000000	nop; delay slot nop
10285  00009a9c  23bdfff8	addi	r29,r29,#-8
10286  00009aa0  001d1020	add	r2,r0,r29
10287  00009aa4  3c030001	lhi	r3,((LC79_LF3)>>16)&0xffff
10288  00009aa8  246361a8	addui	r3,r3,(LC79_LF3)&0xffff
10289  00009aac  ac430000	sw	(r2),r3
10290  00009ab0  ac410004	sw	4(r2),r1
10291  00009ab4  0c008ac4	jal	_printf
10292  00009ab8  54000000	nop; delay slot nop
10293  00009abc  23bd0008	addi	r29,r29,#8
10294  00009ac0          	L265_LF3:
10295  00009ac0  23bdfff8	addi	r29,r29,#-8
10296  00009ac4  001d0820	add	r1,r0,r29
10297  00009ac8  3c020001	lhi	r2,((_currentPCB)>>16)&0xffff
10298  00009acc  24426294	addui	r2,r2,(_currentPCB)&0xffff
10299  00009ad0  8c430000	lw	r3,(r2)
10300  00009ad4  ac230000	sw	(r1),r3
10301  00009ad8  0fffc6a0	jal	_ProcessDestroy
10302  00009adc  54000000	nop; delay slot nop
10303  00009ae0  23bd0008	addi	r29,r29,#8
10304  00009ae4  001d1020	add	r2,r0,r29
10305  00009ae8  0fffbb58	jal	_ProcessSchedule
10306  00009aec  54000000	nop; delay slot nop
10307  00009af0          	L263_LF3:
10308  00009af0  8fa20000	lw	r2,0(r29)
10309  00009af4  8fa30004	lw	r3,4(r29)
10310  00009af8  8fdffff8	lw	r31,-8(r30)
10311  00009afc  001ee820	add	r29,r0,r30
10312  00009b00  8fdefffc	lw	r30,-4(r30)
10313  00009b04  4be00000	jr	r31
10314  00009b08  54000000	nop
10315  00009b0c          	.endproc _ProcessKill
10316  00009b0c          	.data
10317  000161cb          	.global _debugstr
10318  000161cb          	_debugstr:
10319  000161cb          	.space 200
10320  00016293          	.align 2
10321  00016294          	.global _currentPCB
10322  00016294          	_currentPCB:
10323  00016294          	.space 4
10324  00016298          	.align 2
10325  00016298          	_freepcbs_LF3:
10326  00016298          	.space 12
10327  000162a4          	.align 2
10328  000162a4          	_runQueue_LF3:
10329  000162a4          	.space 12
10330  000162b0          	.align 2
10331  000162b0          	_waitQueue_LF3:
10332  000162b0          	.space 12
10333  000162bc          	.align 2
10334  000162bc          	_zombieQueue_LF3:
10335  000162bc          	.space 12
10336  000162c8          	.align 2
10337  000162c8          	_pcbs_LF3:
10338  000162c8          	.space 36096
10339  0001efc8          	.text
10340  00009b0c          	.align 2
10341  00009b0c          	.proc _getxvalue_LF3
10342  00009b0c          	_getxvalue_LF3:
10343                      ;  Function 'getxvalue'; 0 bytes of locals, 2 regs to save.
10344  00009b0c  afbefffc	sw	-4(r29),r30; push fp
10345  00009b10  001df020	add	r30,r0,r29; fp = sp
10346  00009b14  afbffff8	sw	-8(r29),r31; push ret addr
10347  00009b18  2fbd0010	subui	r29,r29,#16; alloc local storage
10348  00009b1c  afa20000	sw	0(r29),r2
10349  00009b20  afa30004	sw	4(r29),r3
10350  00009b24  8fc20000	lw	r2,(r30)
10351  00009b28  6c41002f	sgti	r1,r2,#47
10352  00009b2c  10200028	beqz	r1,L132_LF3
10353  00009b30  54000000	nop; delay slot nop
10354  00009b34  70410039	slei	r1,r2,#57
10355  00009b38  1020001c	beqz	r1,L132_LF3
10356  00009b3c  54000000	nop; delay slot nop
10357  00009b40  2043ffd0	addi	r3,r2,#-48
10358  00009b44  00030820	add	r1,r0,r3
10359  00009b48  08000078	j	L131_LF3
10360  00009b4c  54000000	nop; delay slot nop
10361  00009b50  08000070	j	L133_LF3
10362  00009b54  54000000	nop; delay slot nop
10363  00009b58          	L132_LF3:
10364  00009b58  6c410060	sgti	r1,r2,#96
10365  00009b5c  10200028	beqz	r1,L134_LF3
10366  00009b60  54000000	nop; delay slot nop
10367  00009b64  70410066	slei	r1,r2,#102
10368  00009b68  1020001c	beqz	r1,L134_LF3
10369  00009b6c  54000000	nop; delay slot nop
10370  00009b70  2043ffa9	addi	r3,r2,#-87
10371  00009b74  00030820	add	r1,r0,r3
10372  00009b78  08000048	j	L131_LF3
10373  00009b7c  54000000	nop; delay slot nop
10374  00009b80  08000040	j	L135_LF3
10375  00009b84  54000000	nop; delay slot nop
10376  00009b88          	L134_LF3:
10377  00009b88  6c410040	sgti	r1,r2,#64
10378  00009b8c  10200028	beqz	r1,L136_LF3
10379  00009b90  54000000	nop; delay slot nop
10380  00009b94  70410046	slei	r1,r2,#70
10381  00009b98  1020001c	beqz	r1,L136_LF3
10382  00009b9c  54000000	nop; delay slot nop
10383  00009ba0  2043ffc9	addi	r3,r2,#-55
10384  00009ba4  00030820	add	r1,r0,r3
10385  00009ba8  08000018	j	L131_LF3
10386  00009bac  54000000	nop; delay slot nop
10387  00009bb0  08000010	j	L137_LF3
10388  00009bb4  54000000	nop; delay slot nop
10389  00009bb8          	L136_LF3:
10390  00009bb8  20010000	addi	r1,r0,#0
10391  00009bbc  08000004	j	L131_LF3
10392  00009bc0  54000000	nop; delay slot nop
10393  00009bc4          	L137_LF3:
10394  00009bc4          	L135_LF3:
10395  00009bc4          	L133_LF3:
10396  00009bc4          	L131_LF3:
10397  00009bc4  8fa20000	lw	r2,0(r29)
10398  00009bc8  8fa30004	lw	r3,4(r29)
10399  00009bcc  8fdffff8	lw	r31,-8(r30)
10400  00009bd0  001ee820	add	r29,r0,r30
10401  00009bd4  8fdefffc	lw	r30,-4(r30)
10402  00009bd8  4be00000	jr	r31
10403  00009bdc  54000000	nop
10404  00009be0          	.endproc _getxvalue_LF3
10405                      ; Compiled by GCC
10407  00009be0          	.align 2
10408  00009be0          	.proc _isspace
10409  00009be0          	.global _isspace
10410  00009be0          	_isspace:
10411                      ;  Function 'isspace'; 0 bytes of locals, 3 regs to save.
10412  00009be0  afbefffc	sw	-4(r29),r30; push fp
10413  00009be4  001df020	add	r30,r0,r29; fp = sp
10414  00009be8  afbffff8	sw	-8(r29),r31; push ret addr
10415  00009bec  2fbd0018	subui	r29,r29,#24; alloc local storage
10416  00009bf0  afa20000	sw	0(r29),r2
10417  00009bf4  afa30004	sw	4(r29),r3
10418  00009bf8  afa40008	sw	8(r29),r4
10419  00009bfc  83c20003	lb	r2,3(r30)
10420  00009c00  20010000	addi	r1,r0,#0
10421  00009c04  304300ff	andi	r3,r2,#0x00ff
10422  00009c08  60640020	seqi	r4,r3,#32
10423  00009c0c  1480002c	bnez	r4,L3_LF4
10424  00009c10  54000000	nop; delay slot nop
10425  00009c14  304300ff	andi	r3,r2,#0x00ff
10426  00009c18  60640009	seqi	r4,r3,#9
10427  00009c1c  1480001c	bnez	r4,L3_LF4
10428  00009c20  54000000	nop; delay slot nop
10429  00009c24  304300ff	andi	r3,r2,#0x00ff
10430  00009c28  6064000a	seqi	r4,r3,#10
10431  00009c2c  1480000c	bnez	r4,L3_LF4
10432  00009c30  54000000	nop; delay slot nop
10433  00009c34  08000008	j	L2_LF4
10434  00009c38  54000000	nop; delay slot nop
10435  00009c3c          	L3_LF4:
10436  00009c3c  20010001	addi	r1,r0,#1
10437  00009c40          	L2_LF4:
10438  00009c40  08000004	j	L1_LF4
10439  00009c44  54000000	nop; delay slot nop
10440  00009c48          	L1_LF4:
10441  00009c48  8fa20000	lw	r2,0(r29)
10442  00009c4c  8fa30004	lw	r3,4(r29)
10443  00009c50  8fa40008	lw	r4,8(r29)
10444  00009c54  8fdffff8	lw	r31,-8(r30)
10445  00009c58  001ee820	add	r29,r0,r30
10446  00009c5c  8fdefffc	lw	r30,-4(r30)
10447  00009c60  4be00000	jr	r31
10448  00009c64  54000000	nop
10449  00009c68          	.endproc _isspace
10450  00009c68          	.align 2
10451  00009c68          	.proc _isxdigit
10452  00009c68          	.global _isxdigit
10453  00009c68          	_isxdigit:
10454                      ;  Function 'isxdigit'; 0 bytes of locals, 3 regs to save.
10455  00009c68  afbefffc	sw	-4(r29),r30; push fp
10456  00009c6c  001df020	add	r30,r0,r29; fp = sp
10457  00009c70  afbffff8	sw	-8(r29),r31; push ret addr
10458  00009c74  2fbd0018	subui	r29,r29,#24; alloc local storage
10459  00009c78  afa20000	sw	0(r29),r2
10460  00009c7c  afa30004	sw	4(r29),r3
10461  00009c80  afa40008	sw	8(r29),r4
10462  00009c84  83c20003	lb	r2,3(r30)
10463  00009c88  20010000	addi	r1,r0,#0
10464  00009c8c  304300ff	andi	r3,r2,#0x00ff
10465  00009c90  6c64002f	sgtui	r4,r3,#47
10466  00009c94  1080001c	beqz	r4,L7_LF4
10467  00009c98  54000000	nop; delay slot nop
10468  00009c9c  304300ff	andi	r3,r2,#0x00ff
10469  00009ca0  70640039	sleui	r4,r3,#57
10470  00009ca4  1480005c	bnez	r4,L6_LF4
10471  00009ca8  54000000	nop; delay slot nop
10472  00009cac  08000004	j	L7_LF4
10473  00009cb0  54000000	nop; delay slot nop
10474  00009cb4          	L7_LF4:
10475  00009cb4  304300ff	andi	r3,r2,#0x00ff
10476  00009cb8  6c640060	sgtui	r4,r3,#96
10477  00009cbc  1080001c	beqz	r4,L8_LF4
10478  00009cc0  54000000	nop; delay slot nop
10479  00009cc4  304300ff	andi	r3,r2,#0x00ff
10480  00009cc8  70640066	sleui	r4,r3,#102
10481  00009ccc  14800034	bnez	r4,L6_LF4
10482  00009cd0  54000000	nop; delay slot nop
10483  00009cd4  08000004	j	L8_LF4
10484  00009cd8  54000000	nop; delay slot nop
10485  00009cdc          	L8_LF4:
10486  00009cdc  304300ff	andi	r3,r2,#0x00ff
10487  00009ce0  6c640040	sgtui	r4,r3,#64
10488  00009ce4  10800020	beqz	r4,L5_LF4
10489  00009ce8  54000000	nop; delay slot nop
10490  00009cec  304300ff	andi	r3,r2,#0x00ff
10491  00009cf0  70640041	sleui	r4,r3,#65
10492  00009cf4  1480000c	bnez	r4,L6_LF4
10493  00009cf8  54000000	nop; delay slot nop
10494  00009cfc  08000008	j	L5_LF4
10495  00009d00  54000000	nop; delay slot nop
10496  00009d04          	L6_LF4:
10497  00009d04  20010001	addi	r1,r0,#1
10498  00009d08          	L5_LF4:
10499  00009d08  08000004	j	L4_LF4
10500  00009d0c  54000000	nop; delay slot nop
10501  00009d10          	L4_LF4:
10502  00009d10  8fa20000	lw	r2,0(r29)
10503  00009d14  8fa30004	lw	r3,4(r29)
10504  00009d18  8fa40008	lw	r4,8(r29)
10505  00009d1c  8fdffff8	lw	r31,-8(r30)
10506  00009d20  001ee820	add	r29,r0,r30
10507  00009d24  8fdefffc	lw	r30,-4(r30)
10508  00009d28  4be00000	jr	r31
10509  00009d2c  54000000	nop
10510  00009d30          	.endproc _isxdigit
10511  00009d30          	.align 2
10512  00009d30          	.proc _DisableIntrs
10513  00009d30          	.global _DisableIntrs
10514  00009d30          	_DisableIntrs:
10515                      ;  Function 'DisableIntrs'; 0 bytes of locals, 1 regs to save.
10516  00009d30  afbefffc	sw	-4(r29),r30; push fp
10517  00009d34  001df020	add	r30,r0,r29; fp = sp
10518  00009d38  afbffff8	sw	-8(r29),r31; push ret addr
10519  00009d3c  2fbd0010	subui	r29,r29,#16; alloc local storage
10520  00009d40  afa20000	sw	0(r29),r2
10521  00009d44  23bdfff8	addi	r29,r29,#-8
10522  00009d48  001d0820	add	r1,r0,r29
10523  00009d4c  2002000f	addi	r2,r0,#15
10524  00009d50  ac220000	sw	(r1),r2
10525  00009d54  0c008724	jal	_SetIntrs
10526  00009d58  54000000	nop; delay slot nop
10527  00009d5c  23bd0008	addi	r29,r29,#8
10528  00009d60  00011020	add	r2,r0,r1
10529  00009d64  00020820	add	r1,r0,r2
10530  00009d68  08000004	j	L9_LF4
10531  00009d6c  54000000	nop; delay slot nop
10532  00009d70          	L9_LF4:
10533  00009d70  8fa20000	lw	r2,0(r29)
10534  00009d74  8fdffff8	lw	r31,-8(r30)
10535  00009d78  001ee820	add	r29,r0,r30
10536  00009d7c  8fdefffc	lw	r30,-4(r30)
10537  00009d80  4be00000	jr	r31
10538  00009d84  54000000	nop
10539  00009d88          	.endproc _DisableIntrs
10540  00009d88          	.align 2
10541  00009d88          	.proc _EnableIntrs
10542  00009d88          	.global _EnableIntrs
10543  00009d88          	_EnableIntrs:
10544                      ;  Function 'EnableIntrs'; 0 bytes of locals, 1 regs to save.
10545  00009d88  afbefffc	sw	-4(r29),r30; push fp
10546  00009d8c  001df020	add	r30,r0,r29; fp = sp
10547  00009d90  afbffff8	sw	-8(r29),r31; push ret addr
10548  00009d94  2fbd0010	subui	r29,r29,#16; alloc local storage
10549  00009d98  afa20000	sw	0(r29),r2
10550  00009d9c  23bdfff8	addi	r29,r29,#-8
10551  00009da0  001d0820	add	r1,r0,r29
10552  00009da4  20020000	addi	r2,r0,#0
10553  00009da8  ac220000	sw	(r1),r2
10554  00009dac  0c0086cc	jal	_SetIntrs
10555  00009db0  54000000	nop; delay slot nop
10556  00009db4  23bd0008	addi	r29,r29,#8
10557  00009db8  00011020	add	r2,r0,r1
10558  00009dbc  00020820	add	r1,r0,r2
10559  00009dc0  08000004	j	L10_LF4
10560  00009dc4  54000000	nop; delay slot nop
10561  00009dc8          	L10_LF4:
10562  00009dc8  8fa20000	lw	r2,0(r29)
10563  00009dcc  8fdffff8	lw	r31,-8(r30)
10564  00009dd0  001ee820	add	r29,r0,r30
10565  00009dd4  8fdefffc	lw	r30,-4(r30)
10566  00009dd8  4be00000	jr	r31
10567  00009ddc  54000000	nop
10568  00009de0          	.endproc _EnableIntrs
10569  00009de0          	.align 2
10570  00009de0          	.proc _RestoreIntrs
10571  00009de0          	.global _RestoreIntrs
10572  00009de0          	_RestoreIntrs:
10573                      ;  Function 'RestoreIntrs'; 0 bytes of locals, 2 regs to save.
10574  00009de0  afbefffc	sw	-4(r29),r30; push fp
10575  00009de4  001df020	add	r30,r0,r29; fp = sp
10576  00009de8  afbffff8	sw	-8(r29),r31; push ret addr
10577  00009dec  2fbd0010	subui	r29,r29,#16; alloc local storage
10578  00009df0  afa20000	sw	0(r29),r2
10579  00009df4  afa30004	sw	4(r29),r3
10580  00009df8  8fc20000	lw	r2,(r30)
10581  00009dfc  23bdfff8	addi	r29,r29,#-8
10582  00009e00  001d0820	add	r1,r0,r29
10583  00009e04  ac220000	sw	(r1),r2
10584  00009e08  0c008670	jal	_SetIntrs
10585  00009e0c  54000000	nop; delay slot nop
10586  00009e10  23bd0008	addi	r29,r29,#8
10587  00009e14  00011820	add	r3,r0,r1
10588  00009e18  00030820	add	r1,r0,r3
10589  00009e1c  08000004	j	L11_LF4
10590  00009e20  54000000	nop; delay slot nop
10591  00009e24          	L11_LF4:
10592  00009e24  8fa20000	lw	r2,0(r29)
10593  00009e28  8fa30004	lw	r3,4(r29)
10594  00009e2c  8fdffff8	lw	r31,-8(r30)
10595  00009e30  001ee820	add	r29,r0,r30
10596  00009e34  8fdefffc	lw	r30,-4(r30)
10597  00009e38  4be00000	jr	r31
10598  00009e3c  54000000	nop
10599  00009e40          	.endproc _RestoreIntrs
10600  00009e40          	.data
10601  0001efc8          	.align 2
10602  0001efc8          	LC0_LF4:
10603  0001efc8  74657374	.ascii "testfunvoid\n\000"
10603  0001efcc  66756e76	
10603  0001efd0  6f69640a	
10603  0001efd4  00      	
10604  0001efd5          	.text
10605  00009e40          	.align 2
10606  00009e40          	.proc _testfuncvoid
10607  00009e40          	.global _testfuncvoid
10608  00009e40          	_testfuncvoid:
10609                      ;  Function 'testfuncvoid'; 0 bytes of locals, 1 regs to save.
10610  00009e40  afbefffc	sw	-4(r29),r30; push fp
10611  00009e44  001df020	add	r30,r0,r29; fp = sp
10612  00009e48  afbffff8	sw	-8(r29),r31; push ret addr
10613  00009e4c  2fbd0010	subui	r29,r29,#16; alloc local storage
10614  00009e50  afa20000	sw	0(r29),r2
10615  00009e54  23bdfff8	addi	r29,r29,#-8
10616  00009e58  001d0820	add	r1,r0,r29
10617  00009e5c  3c020001	lhi	r2,((_debugstr)>>16)&0xffff
10618  00009e60  244261cb	addui	r2,r2,(_debugstr)&0xffff
10619  00009e64  ac220000	sw	(r1),r2
10620  00009e68  20020071	addi	r2,r0,#113
10621  00009e6c  ac220004	sw	4(r1),r2
10622  00009e70  0fffa5e0	jal	_dindex
10623  00009e74  54000000	nop; delay slot nop
10624  00009e78  23bd0008	addi	r29,r29,#8
10625  00009e7c  64220000	snei	r2,r1,#0
10626  00009e80  10400024	beqz	r2,L13_LF4
10627  00009e84  54000000	nop; delay slot nop
10628  00009e88  23bdfff8	addi	r29,r29,#-8
10629  00009e8c  001d0820	add	r1,r0,r29
10630  00009e90  3c020001	lhi	r2,((LC0_LF4)>>16)&0xffff
10631  00009e94  2442efc8	addui	r2,r2,(LC0_LF4)&0xffff
10632  00009e98  ac220000	sw	(r1),r2
10633  00009e9c  0c0086dc	jal	_printf
10634  00009ea0  54000000	nop; delay slot nop
10635  00009ea4  23bd0008	addi	r29,r29,#8
10636  00009ea8          	L13_LF4:
10637  00009ea8  23bdfff8	addi	r29,r29,#-8
10638  00009eac  001d0820	add	r1,r0,r29
10639  00009eb0  3c020001	lhi	r2,((_debugstr)>>16)&0xffff
10640  00009eb4  244261cb	addui	r2,r2,(_debugstr)&0xffff
10641  00009eb8  ac220000	sw	(r1),r2
10642  00009ebc  2002002b	addi	r2,r0,#43
10643  00009ec0  ac220004	sw	4(r1),r2
10644  00009ec4  0fffa58c	jal	_dindex
10645  00009ec8  54000000	nop; delay slot nop
10646  00009ecc  23bd0008	addi	r29,r29,#8
10647  00009ed0  64220000	snei	r2,r1,#0
10648  00009ed4  10400024	beqz	r2,L14_LF4
10649  00009ed8  54000000	nop; delay slot nop
10650  00009edc  23bdfff8	addi	r29,r29,#-8
10651  00009ee0  001d0820	add	r1,r0,r29
10652  00009ee4  3c020001	lhi	r2,((LC0_LF4)>>16)&0xffff
10653  00009ee8  2442efc8	addui	r2,r2,(LC0_LF4)&0xffff
10654  00009eec  ac220000	sw	(r1),r2
10655  00009ef0  0c008688	jal	_printf
10656  00009ef4  54000000	nop; delay slot nop
10657  00009ef8  23bd0008	addi	r29,r29,#8
10658  00009efc          	L14_LF4:
10659  00009efc          	L12_LF4:
10660  00009efc  8fa20000	lw	r2,0(r29)
10661  00009f00  8fdffff8	lw	r31,-8(r30)
10662  00009f04  001ee820	add	r29,r0,r30
10663  00009f08  8fdefffc	lw	r30,-4(r30)
10664  00009f0c  4be00000	jr	r31
10665  00009f10  54000000	nop
10666  00009f14          	.endproc _testfuncvoid
10667  00009f14          	.data
10668  0001efd5          	.align 2
10669  0001efd8          	LC1_LF4:
10670  0001efd8  74657374	.ascii "testfuncint\n\000"
10670  0001efdc  66756e63	
10670  0001efe0  696e740a	
10670  0001efe4  00      	
10671  0001efe5          	.text
10672  00009f14          	.align 2
10673  00009f14          	.proc _testfuncint
10674  00009f14          	.global _testfuncint
10675  00009f14          	_testfuncint:
10676                      ;  Function 'testfuncint'; 0 bytes of locals, 1 regs to save.
10677  00009f14  afbefffc	sw	-4(r29),r30; push fp
10678  00009f18  001df020	add	r30,r0,r29; fp = sp
10679  00009f1c  afbffff8	sw	-8(r29),r31; push ret addr
10680  00009f20  2fbd0010	subui	r29,r29,#16; alloc local storage
10681  00009f24  afa20000	sw	0(r29),r2
10682  00009f28  23bdfff8	addi	r29,r29,#-8
10683  00009f2c  001d0820	add	r1,r0,r29
10684  00009f30  3c020001	lhi	r2,((_debugstr)>>16)&0xffff
10685  00009f34  244261cb	addui	r2,r2,(_debugstr)&0xffff
10686  00009f38  ac220000	sw	(r1),r2
10687  00009f3c  20020071	addi	r2,r0,#113
10688  00009f40  ac220004	sw	4(r1),r2
10689  00009f44  0fffa50c	jal	_dindex
10690  00009f48  54000000	nop; delay slot nop
10691  00009f4c  23bd0008	addi	r29,r29,#8
10692  00009f50  64220000	snei	r2,r1,#0
10693  00009f54  10400024	beqz	r2,L16_LF4
10694  00009f58  54000000	nop; delay slot nop
10695  00009f5c  23bdfff8	addi	r29,r29,#-8
10696  00009f60  001d0820	add	r1,r0,r29
10697  00009f64  3c020001	lhi	r2,((LC1_LF4)>>16)&0xffff
10698  00009f68  2442efd8	addui	r2,r2,(LC1_LF4)&0xffff
10699  00009f6c  ac220000	sw	(r1),r2
10700  00009f70  0c008608	jal	_printf
10701  00009f74  54000000	nop; delay slot nop
10702  00009f78  23bd0008	addi	r29,r29,#8
10703  00009f7c          	L16_LF4:
10704  00009f7c  23bdfff8	addi	r29,r29,#-8
10705  00009f80  001d0820	add	r1,r0,r29
10706  00009f84  3c020001	lhi	r2,((_debugstr)>>16)&0xffff
10707  00009f88  244261cb	addui	r2,r2,(_debugstr)&0xffff
10708  00009f8c  ac220000	sw	(r1),r2
10709  00009f90  2002002b	addi	r2,r0,#43
10710  00009f94  ac220004	sw	4(r1),r2
10711  00009f98  0fffa4b8	jal	_dindex
10712  00009f9c  54000000	nop; delay slot nop
10713  00009fa0  23bd0008	addi	r29,r29,#8
10714  00009fa4  64220000	snei	r2,r1,#0
10715  00009fa8  10400024	beqz	r2,L17_LF4
10716  00009fac  54000000	nop; delay slot nop
10717  00009fb0  23bdfff8	addi	r29,r29,#-8
10718  00009fb4  001d0820	add	r1,r0,r29
10719  00009fb8  3c020001	lhi	r2,((LC1_LF4)>>16)&0xffff
10720  00009fbc  2442efd8	addui	r2,r2,(LC1_LF4)&0xffff
10721  00009fc0  ac220000	sw	(r1),r2
10722  00009fc4  0c0085b4	jal	_printf
10723  00009fc8  54000000	nop; delay slot nop
10724  00009fcc  23bd0008	addi	r29,r29,#8
10725  00009fd0          	L17_LF4:
10726  00009fd0  20010000	addi	r1,r0,#0
10727  00009fd4  08000004	j	L15_LF4
10728  00009fd8  54000000	nop; delay slot nop
10729  00009fdc          	L15_LF4:
10730  00009fdc  8fa20000	lw	r2,0(r29)
10731  00009fe0  8fdffff8	lw	r31,-8(r30)
10732  00009fe4  001ee820	add	r29,r0,r30
10733  00009fe8  8fdefffc	lw	r30,-4(r30)
10734  00009fec  4be00000	jr	r31
10735  00009ff0  54000000	nop
10736  00009ff4          	.endproc _testfuncint
10737  00009ff4          	.data
10738  0001efe5          	.align 2
10739  0001efe8          	LC2_LF4:
10740  0001efe8  46415441	.ascii "FATAL ERROR: could not initialize freeLinks queue in AQueueModuleInit!"
10740  0001efec  4c204552	
10740  0001eff0  524f523a	
10740  0001eff4  20636f75	
10740  0001eff8  6c64206e	
10740  0001effc  6f742069	
10740  0001f000  6e697469	
10740  0001f004  616c697a	
10740  0001f008  65206672	
10740  0001f00c  65654c69	
10740  0001f010  6e6b7320	
10740  0001f014  71756575	
10740  0001f018  6520696e	
10740  0001f01c  20415175	
10740  0001f020  6575654d	
10740  0001f024  6f64756c	
10740  0001f028  65496e69	
10740  0001f02c  7421    	
10741  0001f02e  0a00    	.ascii "\n\000"
10742  0001f030          	.align 2
10743  0001f030          	LC3_LF4:
10744  0001f030  496e6974	.ascii "Initializing %d links.\n\000"
10744  0001f034  69616c69	
10744  0001f038  7a696e67	
10744  0001f03c  20256420	
10744  0001f040  6c696e6b	
10744  0001f044  732e0a00	
10745  0001f048          	.align 2
10746  0001f048          	LC4_LF4:
10747  0001f048  46415441	.ascii "FATAL ERROR: could not insert link into freeLinks in AQueueModuleInit!"
10747  0001f04c  4c204552	
10747  0001f050  524f523a	
10747  0001f054  20636f75	
10747  0001f058  6c64206e	
10747  0001f05c  6f742069	
10747  0001f060  6e736572	
10747  0001f064  74206c69	
10747  0001f068  6e6b2069	
10747  0001f06c  6e746f20	
10747  0001f070  66726565	
10747  0001f074  4c696e6b	
10747  0001f078  7320696e	
10747  0001f07c  20415175	
10747  0001f080  6575654d	
10747  0001f084  6f64756c	
10747  0001f088  65496e69	
10747  0001f08c  7421    	
10748  0001f08e  0a00    	.ascii "\n\000"
10749  0001f090          	.text
10750  00009ff4          	.align 2
10751  00009ff4          	.proc _AQueueModuleInit
10752  00009ff4          	.global _AQueueModuleInit
10753  00009ff4          	_AQueueModuleInit:
10754                      ;  Function 'AQueueModuleInit'; 8 bytes of locals, 2 regs to save.
10755  00009ff4  afbefffc	sw	-4(r29),r30; push fp
10756  00009ff8  001df020	add	r30,r0,r29; fp = sp
10757  00009ffc  afbffff8	sw	-8(r29),r31; push ret addr
10758  0000a000  2fbd0018	subui	r29,r29,#24; alloc local storage
10759  0000a004  afa20000	sw	0(r29),r2
10760  0000a008  afa30004	sw	4(r29),r3
10761  0000a00c  23bdfff8	addi	r29,r29,#-8
10762  0000a010  001d0820	add	r1,r0,r29
10763  0000a014  3c020001	lhi	r2,((_freeLinks)>>16)&0xffff
10764  0000a018  2442f12c	addui	r2,r2,(_freeLinks)&0xffff
10765  0000a01c  ac220000	sw	(r1),r2
10766  0000a020  0c000230	jal	_AQueueInit
10767  0000a024  54000000	nop; delay slot nop
10768  0000a028  23bd0008	addi	r29,r29,#8
10769  0000a02c  64220001	snei	r2,r1,#1
10770  0000a030  10400030	beqz	r2,L19_LF4
10771  0000a034  54000000	nop; delay slot nop
10772  0000a038  23bdfff8	addi	r29,r29,#-8
10773  0000a03c  001d0820	add	r1,r0,r29
10774  0000a040  3c020001	lhi	r2,((LC2_LF4)>>16)&0xffff
10775  0000a044  2442efe8	addui	r2,r2,(LC2_LF4)&0xffff
10776  0000a048  ac220000	sw	(r1),r2
10777  0000a04c  0c00852c	jal	_printf
10778  0000a050  54000000	nop; delay slot nop
10779  0000a054  23bd0008	addi	r29,r29,#8
10780  0000a058  001d1020	add	r2,r0,r29
10781  0000a05c  0c008504	jal	_exitsim
10782  0000a060  54000000	nop; delay slot nop
10783  0000a064          	L19_LF4:
10784  0000a064  23bdfff8	addi	r29,r29,#-8
10785  0000a068  001d0820	add	r1,r0,r29
10786  0000a06c  3c020001	lhi	r2,((_debugstr)>>16)&0xffff
10787  0000a070  244261cb	addui	r2,r2,(_debugstr)&0xffff
10788  0000a074  ac220000	sw	(r1),r2
10789  0000a078  20020071	addi	r2,r0,#113
10790  0000a07c  ac220004	sw	4(r1),r2
10791  0000a080  0fffa3d0	jal	_dindex
10792  0000a084  54000000	nop; delay slot nop
10793  0000a088  23bd0008	addi	r29,r29,#8
10794  0000a08c  64220000	snei	r2,r1,#0
10795  0000a090  1040002c	beqz	r2,L20_LF4
10796  0000a094  54000000	nop; delay slot nop
10797  0000a098  23bdfff8	addi	r29,r29,#-8
10798  0000a09c  001d0820	add	r1,r0,r29
10799  0000a0a0  3c020001	lhi	r2,((LC3_LF4)>>16)&0xffff
10800  0000a0a4  2442f030	addui	r2,r2,(LC3_LF4)&0xffff
10801  0000a0a8  ac220000	sw	(r1),r2
10802  0000a0ac  20020190	addi	r2,r0,#400
10803  0000a0b0  ac220004	sw	4(r1),r2
10804  0000a0b4  0c0084c4	jal	_printf
10805  0000a0b8  54000000	nop; delay slot nop
10806  0000a0bc  23bd0008	addi	r29,r29,#8
10807  0000a0c0          	L20_LF4:
10808  0000a0c0  23bdfff8	addi	r29,r29,#-8
10809  0000a0c4  001d0820	add	r1,r0,r29
10810  0000a0c8  3c020001	lhi	r2,((_debugstr)>>16)&0xffff
10811  0000a0cc  244261cb	addui	r2,r2,(_debugstr)&0xffff
10812  0000a0d0  ac220000	sw	(r1),r2
10813  0000a0d4  2002002b	addi	r2,r0,#43
10814  0000a0d8  ac220004	sw	4(r1),r2
10815  0000a0dc  0fffa374	jal	_dindex
10816  0000a0e0  54000000	nop; delay slot nop
10817  0000a0e4  23bd0008	addi	r29,r29,#8
10818  0000a0e8  64220000	snei	r2,r1,#0
10819  0000a0ec  1040002c	beqz	r2,L21_LF4
10820  0000a0f0  54000000	nop; delay slot nop
10821  0000a0f4  23bdfff8	addi	r29,r29,#-8
10822  0000a0f8  001d0820	add	r1,r0,r29
10823  0000a0fc  3c020001	lhi	r2,((LC3_LF4)>>16)&0xffff
10824  0000a100  2442f030	addui	r2,r2,(LC3_LF4)&0xffff
10825  0000a104  ac220000	sw	(r1),r2
10826  0000a108  20020190	addi	r2,r0,#400
10827  0000a10c  ac220004	sw	4(r1),r2
10828  0000a110  0c008468	jal	_printf
10829  0000a114  54000000	nop; delay slot nop
10830  0000a118  23bd0008	addi	r29,r29,#8
10831  0000a11c          	L21_LF4:
10832  0000a11c  54000000	nop
10833  0000a120  20010000	addi	r1,r0,#0
10834  0000a124  afc1fff4	sw	-12(r30),r1
10835  0000a128          	L22_LF4:
10836  0000a128  8fc1fff4	lw	r1,-12(r30)
10837  0000a12c  7022018f	slei	r2,r1,#399
10838  0000a130  1440000c	bnez	r2,L25_LF4
10839  0000a134  54000000	nop; delay slot nop
10840  0000a138  080000f0	j	L23_LF4
10841  0000a13c  54000000	nop; delay slot nop
10842  0000a140          	L25_LF4:
10843  0000a140  3c010001	lhi	r1,((_linkpool_LF4)>>16)&0xffff
10844  0000a144  2421f138	addui	r1,r1,(_linkpool_LF4)&0xffff
10845  0000a148  8fc2fff4	lw	r2,-12(r30)
10846  0000a14c  00021820	add	r3,r0,r2
10847  0000a150  50620004	slli	r2,r3,#0x4
10848  0000a154  00220820	add	r1,r1,r2
10849  0000a158  20020000	addi	r2,r0,#0
10850  0000a15c  ac220000	sw	(r1),r2
10851  0000a160  3c010001	lhi	r1,((_linkpool_LF4)>>16)&0xffff
10852  0000a164  2421f138	addui	r1,r1,(_linkpool_LF4)&0xffff
10853  0000a168  8fc2fff4	lw	r2,-12(r30)
10854  0000a16c  00021820	add	r3,r0,r2
10855  0000a170  50620004	slli	r2,r3,#0x4
10856  0000a174  00220820	add	r1,r1,r2
10857  0000a178  20020000	addi	r2,r0,#0
10858  0000a17c  ac220004	sw	4(r1),r2
10859  0000a180  3c010001	lhi	r1,((_linkpool_LF4)>>16)&0xffff
10860  0000a184  2421f138	addui	r1,r1,(_linkpool_LF4)&0xffff
10861  0000a188  8fc2fff4	lw	r2,-12(r30)
10862  0000a18c  00021820	add	r3,r0,r2
10863  0000a190  50620004	slli	r2,r3,#0x4
10864  0000a194  00220820	add	r1,r1,r2
10865  0000a198  20020000	addi	r2,r0,#0
10866  0000a19c  ac22000c	sw	12(r1),r2
10867  0000a1a0  23bdfff8	addi	r29,r29,#-8
10868  0000a1a4  001d0820	add	r1,r0,r29
10869  0000a1a8  3c020001	lhi	r2,((_freeLinks)>>16)&0xffff
10870  0000a1ac  2442f12c	addui	r2,r2,(_freeLinks)&0xffff
10871  0000a1b0  ac220000	sw	(r1),r2
10872  0000a1b4  8fc2fff4	lw	r2,-12(r30)
10873  0000a1b8  00021820	add	r3,r0,r2
10874  0000a1bc  50620004	slli	r2,r3,#0x4
10875  0000a1c0  3c030001	lhi	r3,((_linkpool_LF4)>>16)&0xffff
10876  0000a1c4  2463f138	addui	r3,r3,(_linkpool_LF4)&0xffff
10877  0000a1c8  00621020	add	r2,r3,r2
10878  0000a1cc  ac220004	sw	4(r1),r2
10879  0000a1d0  0c000f24	jal	_AQueueInsertLast
10880  0000a1d4  54000000	nop; delay slot nop
10881  0000a1d8  23bd0008	addi	r29,r29,#8
10882  0000a1dc  64220001	snei	r2,r1,#1
10883  0000a1e0  10400030	beqz	r2,L24_LF4
10884  0000a1e4  54000000	nop; delay slot nop
10885  0000a1e8  23bdfff8	addi	r29,r29,#-8
10886  0000a1ec  001d0820	add	r1,r0,r29
10887  0000a1f0  3c020001	lhi	r2,((LC4_LF4)>>16)&0xffff
10888  0000a1f4  2442f048	addui	r2,r2,(LC4_LF4)&0xffff
10889  0000a1f8  ac220000	sw	(r1),r2
10890  0000a1fc  0c00837c	jal	_printf
10891  0000a200  54000000	nop; delay slot nop
10892  0000a204  23bd0008	addi	r29,r29,#8
10893  0000a208  001d1020	add	r2,r0,r29
10894  0000a20c  0c008354	jal	_exitsim
10895  0000a210  54000000	nop; delay slot nop
10896  0000a214          	L26_LF4:
10897  0000a214          	L24_LF4:
10898  0000a214  8fc2fff4	lw	r2,-12(r30)
10899  0000a218  20410001	addi	r1,r2,#1
10900  0000a21c  00011020	add	r2,r0,r1
10901  0000a220  afc2fff4	sw	-12(r30),r2
10902  0000a224  0bffff00	j	L22_LF4
10903  0000a228  54000000	nop; delay slot nop
10904  0000a22c          	L23_LF4:
10905  0000a22c  20010001	addi	r1,r0,#1
10906  0000a230  08000004	j	L18_LF4
10907  0000a234  54000000	nop; delay slot nop
10908  0000a238          	L18_LF4:
10909  0000a238  8fa20000	lw	r2,0(r29)
10910  0000a23c  8fa30004	lw	r3,4(r29)
10911  0000a240  8fdffff8	lw	r31,-8(r30)
10912  0000a244  001ee820	add	r29,r0,r30
10913  0000a248  8fdefffc	lw	r30,-4(r30)
10914  0000a24c  4be00000	jr	r31
10915  0000a250  54000000	nop
10916  0000a254          	.endproc _AQueueModuleInit
10917  0000a254          	.align 2
10918  0000a254          	.proc _AQueueInit
10919  0000a254          	.global _AQueueInit
10920  0000a254          	_AQueueInit:
10921                      ;  Function 'AQueueInit'; 0 bytes of locals, 1 regs to save.
10922  0000a254  afbefffc	sw	-4(r29),r30; push fp
10923  0000a258  001df020	add	r30,r0,r29; fp = sp
10924  0000a25c  afbffff8	sw	-8(r29),r31; push ret addr
10925  0000a260  2fbd0010	subui	r29,r29,#16; alloc local storage
10926  0000a264  afa20000	sw	0(r29),r2
10927  0000a268  8fc10000	lw	r1,(r30)
10928  0000a26c  64220000	snei	r2,r1,#0
10929  0000a270  14400010	bnez	r2,L28_LF4
10930  0000a274  54000000	nop; delay slot nop
10931  0000a278  20010000	addi	r1,r0,#0
10932  0000a27c  08000034	j	L27_LF4
10933  0000a280  54000000	nop; delay slot nop
10934  0000a284          	L28_LF4:
10935  0000a284  8fc10000	lw	r1,(r30)
10936  0000a288  20020000	addi	r2,r0,#0
10937  0000a28c  ac220000	sw	(r1),r2
10938  0000a290  8fc10000	lw	r1,(r30)
10939  0000a294  20020000	addi	r2,r0,#0
10940  0000a298  ac220004	sw	4(r1),r2
10941  0000a29c  8fc10000	lw	r1,(r30)
10942  0000a2a0  20020000	addi	r2,r0,#0
10943  0000a2a4  ac220008	sw	8(r1),r2
10944  0000a2a8  20010001	addi	r1,r0,#1
10945  0000a2ac  08000004	j	L27_LF4
10946  0000a2b0  54000000	nop; delay slot nop
10947  0000a2b4          	L27_LF4:
10948  0000a2b4  8fa20000	lw	r2,0(r29)
10949  0000a2b8  8fdffff8	lw	r31,-8(r30)
10950  0000a2bc  001ee820	add	r29,r0,r30
10951  0000a2c0  8fdefffc	lw	r30,-4(r30)
10952  0000a2c4  4be00000	jr	r31
10953  0000a2c8  54000000	nop
10954  0000a2cc          	.endproc _AQueueInit
10955  0000a2cc          	.data
10956  0001f090          	.align 2
10957  0001f090          	LC5_LF4:
10958  0001f090  41517565	.ascii "AQueueAllocLink: allocating link\n\000"
10958  0001f094  7565416c	
10958  0001f098  6c6f634c	
10958  0001f09c  696e6b3a	
10958  0001f0a0  20616c6c	
10958  0001f0a4  6f636174	
10958  0001f0a8  696e6720	
10958  0001f0ac  6c696e6b	
10958  0001f0b0  0a00    	
10959  0001f0b2          	.align 2
10960  0001f0b4          	LC6_LF4:
10961  0001f0b4  41517565	.ascii "AQueueAllocLink: no free links!\n\000"
10961  0001f0b8  7565416c	
10961  0001f0bc  6c6f634c	
10961  0001f0c0  696e6b3a	
10961  0001f0c4  206e6f20	
10961  0001f0c8  66726565	
10961  0001f0cc  206c696e	
10961  0001f0d0  6b73210a	
10961  0001f0d4  00      	
10962  0001f0d5          	.align 2
10963  0001f0d8          	LC7_LF4:
10964  0001f0d8  41517565	.ascii "AQueueAllocLink: first link in freeLinks is NULL!\n\000"
10964  0001f0dc  7565416c	
10964  0001f0e0  6c6f634c	
10964  0001f0e4  696e6b3a	
10964  0001f0e8  20666972	
10964  0001f0ec  7374206c	
10964  0001f0f0  696e6b20	
10964  0001f0f4  696e2066	
10964  0001f0f8  7265654c	
10964  0001f0fc  696e6b73	
10964  0001f100  20697320	
10964  0001f104  4e554c4c	
10964  0001f108  210a00  	
10965  0001f10b          	.text
10966  0000a2cc          	.align 2
10967  0000a2cc          	.proc _AQueueAllocLink
10968  0000a2cc          	.global _AQueueAllocLink
10969  0000a2cc          	_AQueueAllocLink:
10970                      ;  Function 'AQueueAllocLink'; 8 bytes of locals, 2 regs to save.
10971  0000a2cc  afbefffc	sw	-4(r29),r30; push fp
10972  0000a2d0  001df020	add	r30,r0,r29; fp = sp
10973  0000a2d4  afbffff8	sw	-8(r29),r31; push ret addr
10974  0000a2d8  2fbd0018	subui	r29,r29,#24; alloc local storage
10975  0000a2dc  afa20000	sw	0(r29),r2
10976  0000a2e0  afa30004	sw	4(r29),r3
10977  0000a2e4  20010000	addi	r1,r0,#0
10978  0000a2e8  afc1fff4	sw	-12(r30),r1
10979  0000a2ec  23bdfff8	addi	r29,r29,#-8
10980  0000a2f0  001d0820	add	r1,r0,r29
10981  0000a2f4  3c020001	lhi	r2,((_debugstr)>>16)&0xffff
10982  0000a2f8  244261cb	addui	r2,r2,(_debugstr)&0xffff
10983  0000a2fc  ac220000	sw	(r1),r2
10984  0000a300  20020071	addi	r2,r0,#113
10985  0000a304  ac220004	sw	4(r1),r2
10986  0000a308  0fffa148	jal	_dindex
10987  0000a30c  54000000	nop; delay slot nop
10988  0000a310  23bd0008	addi	r29,r29,#8
10989  0000a314  64220000	snei	r2,r1,#0
10990  0000a318  10400024	beqz	r2,L30_LF4
10991  0000a31c  54000000	nop; delay slot nop
10992  0000a320  23bdfff8	addi	r29,r29,#-8
10993  0000a324  001d0820	add	r1,r0,r29
10994  0000a328  3c020001	lhi	r2,((LC5_LF4)>>16)&0xffff
10995  0000a32c  2442f090	addui	r2,r2,(LC5_LF4)&0xffff
10996  0000a330  ac220000	sw	(r1),r2
10997  0000a334  0c008244	jal	_printf
10998  0000a338  54000000	nop; delay slot nop
10999  0000a33c  23bd0008	addi	r29,r29,#8
11000  0000a340          	L30_LF4:
11001  0000a340  23bdfff8	addi	r29,r29,#-8
11002  0000a344  001d0820	add	r1,r0,r29
11003  0000a348  3c020001	lhi	r2,((_debugstr)>>16)&0xffff
11004  0000a34c  244261cb	addui	r2,r2,(_debugstr)&0xffff
11005  0000a350  ac220000	sw	(r1),r2
11006  0000a354  2002002b	addi	r2,r0,#43
11007  0000a358  ac220004	sw	4(r1),r2
11008  0000a35c  0fffa0f4	jal	_dindex
11009  0000a360  54000000	nop; delay slot nop
11010  0000a364  23bd0008	addi	r29,r29,#8
11011  0000a368  64220000	snei	r2,r1,#0
11012  0000a36c  10400024	beqz	r2,L31_LF4
11013  0000a370  54000000	nop; delay slot nop
11014  0000a374  23bdfff8	addi	r29,r29,#-8
11015  0000a378  001d0820	add	r1,r0,r29
11016  0000a37c  3c020001	lhi	r2,((LC5_LF4)>>16)&0xffff
11017  0000a380  2442f090	addui	r2,r2,(LC5_LF4)&0xffff
11018  0000a384  ac220000	sw	(r1),r2
11019  0000a388  0c0081f0	jal	_printf
11020  0000a38c  54000000	nop; delay slot nop
11021  0000a390  23bd0008	addi	r29,r29,#8
11022  0000a394          	L31_LF4:
11023  0000a394  23bdfff8	addi	r29,r29,#-8
11024  0000a398  001d0820	add	r1,r0,r29
11025  0000a39c  3c020001	lhi	r2,((_freeLinks)>>16)&0xffff
11026  0000a3a0  2442f12c	addui	r2,r2,(_freeLinks)&0xffff
11027  0000a3a4  ac220000	sw	(r1),r2
11028  0000a3a8  0c000f74	jal	_AQueueEmpty
11029  0000a3ac  54000000	nop; delay slot nop
11030  0000a3b0  23bd0008	addi	r29,r29,#8
11031  0000a3b4  64220000	snei	r2,r1,#0
11032  0000a3b8  104000b8	beqz	r2,L32_LF4
11033  0000a3bc  54000000	nop; delay slot nop
11034  0000a3c0  23bdfff8	addi	r29,r29,#-8
11035  0000a3c4  001d0820	add	r1,r0,r29
11036  0000a3c8  3c020001	lhi	r2,((_debugstr)>>16)&0xffff
11037  0000a3cc  244261cb	addui	r2,r2,(_debugstr)&0xffff
11038  0000a3d0  ac220000	sw	(r1),r2
11039  0000a3d4  20020071	addi	r2,r0,#113
11040  0000a3d8  ac220004	sw	4(r1),r2
11041  0000a3dc  0fffa074	jal	_dindex
11042  0000a3e0  54000000	nop; delay slot nop
11043  0000a3e4  23bd0008	addi	r29,r29,#8
11044  0000a3e8  64220000	snei	r2,r1,#0
11045  0000a3ec  10400024	beqz	r2,L33_LF4
11046  0000a3f0  54000000	nop; delay slot nop
11047  0000a3f4  23bdfff8	addi	r29,r29,#-8
11048  0000a3f8  001d0820	add	r1,r0,r29
11049  0000a3fc  3c020001	lhi	r2,((LC6_LF4)>>16)&0xffff
11050  0000a400  2442f0b4	addui	r2,r2,(LC6_LF4)&0xffff
11051  0000a404  ac220000	sw	(r1),r2
11052  0000a408  0c008170	jal	_printf
11053  0000a40c  54000000	nop; delay slot nop
11054  0000a410  23bd0008	addi	r29,r29,#8
11055  0000a414          	L33_LF4:
11056  0000a414  23bdfff8	addi	r29,r29,#-8
11057  0000a418  001d0820	add	r1,r0,r29
11058  0000a41c  3c020001	lhi	r2,((_debugstr)>>16)&0xffff
11059  0000a420  244261cb	addui	r2,r2,(_debugstr)&0xffff
11060  0000a424  ac220000	sw	(r1),r2
11061  0000a428  2002002b	addi	r2,r0,#43
11062  0000a42c  ac220004	sw	4(r1),r2
11063  0000a430  0fffa020	jal	_dindex
11064  0000a434  54000000	nop; delay slot nop
11065  0000a438  23bd0008	addi	r29,r29,#8
11066  0000a43c  64220000	snei	r2,r1,#0
11067  0000a440  10400024	beqz	r2,L34_LF4
11068  0000a444  54000000	nop; delay slot nop
11069  0000a448  23bdfff8	addi	r29,r29,#-8
11070  0000a44c  001d0820	add	r1,r0,r29
11071  0000a450  3c020001	lhi	r2,((LC6_LF4)>>16)&0xffff
11072  0000a454  2442f0b4	addui	r2,r2,(LC6_LF4)&0xffff
11073  0000a458  ac220000	sw	(r1),r2
11074  0000a45c  0c00811c	jal	_printf
11075  0000a460  54000000	nop; delay slot nop
11076  0000a464  23bd0008	addi	r29,r29,#8
11077  0000a468          	L34_LF4:
11078  0000a468  20010000	addi	r1,r0,#0
11079  0000a46c  08000200	j	L29_LF4
11080  0000a470  54000000	nop; delay slot nop
11081  0000a474          	L32_LF4:
11082  0000a474  23bdfff8	addi	r29,r29,#-8
11083  0000a478  001d0820	add	r1,r0,r29
11084  0000a47c  3c020001	lhi	r2,((_freeLinks)>>16)&0xffff
11085  0000a480  2442f12c	addui	r2,r2,(_freeLinks)&0xffff
11086  0000a484  ac220000	sw	(r1),r2
11087  0000a488  0c000da4	jal	_AQueueFirst
11088  0000a48c  54000000	nop; delay slot nop
11089  0000a490  23bd0008	addi	r29,r29,#8
11090  0000a494  afc1fff4	sw	-12(r30),r1
11091  0000a498  8fc1fff4	lw	r1,-12(r30)
11092  0000a49c  64220000	snei	r2,r1,#0
11093  0000a4a0  144000b8	bnez	r2,L35_LF4
11094  0000a4a4  54000000	nop; delay slot nop
11095  0000a4a8  23bdfff8	addi	r29,r29,#-8
11096  0000a4ac  001d0820	add	r1,r0,r29
11097  0000a4b0  3c020001	lhi	r2,((_debugstr)>>16)&0xffff
11098  0000a4b4  244261cb	addui	r2,r2,(_debugstr)&0xffff
11099  0000a4b8  ac220000	sw	(r1),r2
11100  0000a4bc  20020071	addi	r2,r0,#113
11101  0000a4c0  ac220004	sw	4(r1),r2
11102  0000a4c4  0fff9f8c	jal	_dindex
11103  0000a4c8  54000000	nop; delay slot nop
11104  0000a4cc  23bd0008	addi	r29,r29,#8
11105  0000a4d0  64220000	snei	r2,r1,#0
11106  0000a4d4  10400024	beqz	r2,L36_LF4
11107  0000a4d8  54000000	nop; delay slot nop
11108  0000a4dc  23bdfff8	addi	r29,r29,#-8
11109  0000a4e0  001d0820	add	r1,r0,r29
11110  0000a4e4  3c020001	lhi	r2,((LC7_LF4)>>16)&0xffff
11111  0000a4e8  2442f0d8	addui	r2,r2,(LC7_LF4)&0xffff
11112  0000a4ec  ac220000	sw	(r1),r2
11113  0000a4f0  0c008088	jal	_printf
11114  0000a4f4  54000000	nop; delay slot nop
11115  0000a4f8  23bd0008	addi	r29,r29,#8
11116  0000a4fc          	L36_LF4:
11117  0000a4fc  23bdfff8	addi	r29,r29,#-8
11118  0000a500  001d0820	add	r1,r0,r29
11119  0000a504  3c020001	lhi	r2,((_debugstr)>>16)&0xffff
11120  0000a508  244261cb	addui	r2,r2,(_debugstr)&0xffff
11121  0000a50c  ac220000	sw	(r1),r2
11122  0000a510  2002002b	addi	r2,r0,#43
11123  0000a514  ac220004	sw	4(r1),r2
11124  0000a518  0fff9f38	jal	_dindex
11125  0000a51c  54000000	nop; delay slot nop
11126  0000a520  23bd0008	addi	r29,r29,#8
11127  0000a524  64220000	snei	r2,r1,#0
11128  0000a528  10400024	beqz	r2,L37_LF4
11129  0000a52c  54000000	nop; delay slot nop
11130  0000a530  23bdfff8	addi	r29,r29,#-8
11131  0000a534  001d0820	add	r1,r0,r29
11132  0000a538  3c020001	lhi	r2,((LC7_LF4)>>16)&0xffff
11133  0000a53c  2442f0d8	addui	r2,r2,(LC7_LF4)&0xffff
11134  0000a540  ac220000	sw	(r1),r2
11135  0000a544  0c008034	jal	_printf
11136  0000a548  54000000	nop; delay slot nop
11137  0000a54c  23bd0008	addi	r29,r29,#8
11138  0000a550          	L37_LF4:
11139  0000a550  20010000	addi	r1,r0,#0
11140  0000a554  08000118	j	L29_LF4
11141  0000a558  54000000	nop; delay slot nop
11142  0000a55c          	L35_LF4:
11143  0000a55c  3c010001	lhi	r1,((_freeLinks)>>16)&0xffff
11144  0000a560  2421f12c	addui	r1,r1,(_freeLinks)&0xffff
11145  0000a564  8c220000	lw	r2,(r1)
11146  0000a568  8fc1fff4	lw	r1,-12(r30)
11147  0000a56c  00411028	seq	r2,r2,r1
11148  0000a570  10400018	beqz	r2,L38_LF4
11149  0000a574  54000000	nop; delay slot nop
11150  0000a578  3c010001	lhi	r1,((_freeLinks)>>16)&0xffff
11151  0000a57c  2421f12c	addui	r1,r1,(_freeLinks)&0xffff
11152  0000a580  8fc2fff4	lw	r2,-12(r30)
11153  0000a584  8c430000	lw	r3,(r2)
11154  0000a588  ac230000	sw	(r1),r3
11155  0000a58c          	L38_LF4:
11156  0000a58c  3c010001	lhi	r1,((_freeLinks+4)>>16)&0xffff
11157  0000a590  2421f130	addui	r1,r1,(_freeLinks+4)&0xffff
11158  0000a594  8c220000	lw	r2,(r1)
11159  0000a598  8fc1fff4	lw	r1,-12(r30)
11160  0000a59c  00411028	seq	r2,r2,r1
11161  0000a5a0  10400018	beqz	r2,L39_LF4
11162  0000a5a4  54000000	nop; delay slot nop
11163  0000a5a8  3c010001	lhi	r1,((_freeLinks)>>16)&0xffff
11164  0000a5ac  2421f12c	addui	r1,r1,(_freeLinks)&0xffff
11165  0000a5b0  8fc2fff4	lw	r2,-12(r30)
11166  0000a5b4  8c430004	lw	r3,4(r2)
11167  0000a5b8  ac230004	sw	4(r1),r3
11168  0000a5bc          	L39_LF4:
11169  0000a5bc  3c020001	lhi	r2,((_freeLinks+8)>>16)&0xffff
11170  0000a5c0  2442f134	addui	r2,r2,(_freeLinks+8)&0xffff
11171  0000a5c4  3c010001	lhi	r1,((_freeLinks)>>16)&0xffff
11172  0000a5c8  2421f12c	addui	r1,r1,(_freeLinks)&0xffff
11173  0000a5cc  3c020001	lhi	r2,((_freeLinks+8)>>16)&0xffff
11174  0000a5d0  2442f134	addui	r2,r2,(_freeLinks+8)&0xffff
11175  0000a5d4  8c430000	lw	r3,(r2)
11176  0000a5d8  2062ffff	addi	r2,r3,#-1
11177  0000a5dc  00021820	add	r3,r0,r2
11178  0000a5e0  ac230008	sw	8(r1),r3
11179  0000a5e4  8fc1fff4	lw	r1,-12(r30)
11180  0000a5e8  8c220004	lw	r2,4(r1)
11181  0000a5ec  64410000	snei	r1,r2,#0
11182  0000a5f0  10200018	beqz	r1,L40_LF4
11183  0000a5f4  54000000	nop; delay slot nop
11184  0000a5f8  8fc2fff4	lw	r2,-12(r30)
11185  0000a5fc  8c410004	lw	r1,4(r2)
11186  0000a600  8fc2fff4	lw	r2,-12(r30)
11187  0000a604  8c430000	lw	r3,(r2)
11188  0000a608  ac230000	sw	(r1),r3
11189  0000a60c          	L40_LF4:
11190  0000a60c  8fc1fff4	lw	r1,-12(r30)
11191  0000a610  8c220000	lw	r2,(r1)
11192  0000a614  64410000	snei	r1,r2,#0
11193  0000a618  10200018	beqz	r1,L41_LF4
11194  0000a61c  54000000	nop; delay slot nop
11195  0000a620  8fc2fff4	lw	r2,-12(r30)
11196  0000a624  8c410000	lw	r1,(r2)
11197  0000a628  8fc2fff4	lw	r2,-12(r30)
11198  0000a62c  8c430004	lw	r3,4(r2)
11199  0000a630  ac230004	sw	4(r1),r3
11200  0000a634          	L41_LF4:
11201  0000a634  8fc1fff4	lw	r1,-12(r30)
11202  0000a638  20020000	addi	r2,r0,#0
11203  0000a63c  ac220000	sw	(r1),r2
11204  0000a640  8fc1fff4	lw	r1,-12(r30)
11205  0000a644  20020000	addi	r2,r0,#0
11206  0000a648  ac220004	sw	4(r1),r2
11207  0000a64c  8fc1fff4	lw	r1,-12(r30)
11208  0000a650  20020000	addi	r2,r0,#0
11209  0000a654  ac220008	sw	8(r1),r2
11210  0000a658  8fc1fff4	lw	r1,-12(r30)
11211  0000a65c  8fc20000	lw	r2,(r30)
11212  0000a660  ac22000c	sw	12(r1),r2
11213  0000a664  8fc1fff4	lw	r1,-12(r30)
11214  0000a668  08000004	j	L29_LF4
11215  0000a66c  54000000	nop; delay slot nop
11216  0000a670          	L29_LF4:
11217  0000a670  8fa20000	lw	r2,0(r29)
11218  0000a674  8fa30004	lw	r3,4(r29)
11219  0000a678  8fdffff8	lw	r31,-8(r30)
11220  0000a67c  001ee820	add	r29,r0,r30
11221  0000a680  8fdefffc	lw	r30,-4(r30)
11222  0000a684  4be00000	jr	r31
11223  0000a688  54000000	nop
11224  0000a68c          	.endproc _AQueueAllocLink
11225  0000a68c          	.data
11226  0001f10b          	.align 2
11227  0001f10c          	LC8_LF4:
11228  0001f10c  41517565	.ascii "AQueueRemove: removing link\n\000"
11228  0001f110  75655265	
11228  0001f114  6d6f7665	
11228  0001f118  3a207265	
11228  0001f11c  6d6f7669	
11228  0001f120  6e67206c	
11228  0001f124  696e6b0a	
11228  0001f128  00      	
11229  0001f129          	.text
11230  0000a68c          	.align 2
11231  0000a68c          	.proc _AQueueRemove
11232  0000a68c          	.global _AQueueRemove
11233  0000a68c          	_AQueueRemove:
11234                      ;  Function 'AQueueRemove'; 8 bytes of locals, 3 regs to save.
11235  0000a68c  afbefffc	sw	-4(r29),r30; push fp
11236  0000a690  001df020	add	r30,r0,r29; fp = sp
11237  0000a694  afbffff8	sw	-8(r29),r31; push ret addr
11238  0000a698  2fbd0020	subui	r29,r29,#32; alloc local storage
11239  0000a69c  afa20000	sw	0(r29),r2
11240  0000a6a0  afa30004	sw	4(r29),r3
11241  0000a6a4  afa40008	sw	8(r29),r4
11242  0000a6a8  20010000	addi	r1,r0,#0
11243  0000a6ac  afc1fff4	sw	-12(r30),r1
11244  0000a6b0  23bdfff8	addi	r29,r29,#-8
11245  0000a6b4  001d0820	add	r1,r0,r29
11246  0000a6b8  3c020001	lhi	r2,((_debugstr)>>16)&0xffff
11247  0000a6bc  244261cb	addui	r2,r2,(_debugstr)&0xffff
11248  0000a6c0  ac220000	sw	(r1),r2
11249  0000a6c4  20020071	addi	r2,r0,#113
11250  0000a6c8  ac220004	sw	4(r1),r2
11251  0000a6cc  0fff9d84	jal	_dindex
11252  0000a6d0  54000000	nop; delay slot nop
11253  0000a6d4  23bd0008	addi	r29,r29,#8
11254  0000a6d8  64220000	snei	r2,r1,#0
11255  0000a6dc  10400024	beqz	r2,L43_LF4
11256  0000a6e0  54000000	nop; delay slot nop
11257  0000a6e4  23bdfff8	addi	r29,r29,#-8
11258  0000a6e8  001d0820	add	r1,r0,r29
11259  0000a6ec  3c020001	lhi	r2,((LC8_LF4)>>16)&0xffff
11260  0000a6f0  2442f10c	addui	r2,r2,(LC8_LF4)&0xffff
11261  0000a6f4  ac220000	sw	(r1),r2
11262  0000a6f8  0c007e80	jal	_printf
11263  0000a6fc  54000000	nop; delay slot nop
11264  0000a700  23bd0008	addi	r29,r29,#8
11265  0000a704          	L43_LF4:
11266  0000a704  23bdfff8	addi	r29,r29,#-8
11267  0000a708  001d0820	add	r1,r0,r29
11268  0000a70c  3c020001	lhi	r2,((_debugstr)>>16)&0xffff
11269  0000a710  244261cb	addui	r2,r2,(_debugstr)&0xffff
11270  0000a714  ac220000	sw	(r1),r2
11271  0000a718  2002002b	addi	r2,r0,#43
11272  0000a71c  ac220004	sw	4(r1),r2
11273  0000a720  0fff9d30	jal	_dindex
11274  0000a724  54000000	nop; delay slot nop
11275  0000a728  23bd0008	addi	r29,r29,#8
11276  0000a72c  64220000	snei	r2,r1,#0
11277  0000a730  10400024	beqz	r2,L44_LF4
11278  0000a734  54000000	nop; delay slot nop
11279  0000a738  23bdfff8	addi	r29,r29,#-8
11280  0000a73c  001d0820	add	r1,r0,r29
11281  0000a740  3c020001	lhi	r2,((LC8_LF4)>>16)&0xffff
11282  0000a744  2442f10c	addui	r2,r2,(LC8_LF4)&0xffff
11283  0000a748  ac220000	sw	(r1),r2
11284  0000a74c  0c007e2c	jal	_printf
11285  0000a750  54000000	nop; delay slot nop
11286  0000a754  23bd0008	addi	r29,r29,#8
11287  0000a758          	L44_LF4:
11288  0000a758  8fc10000	lw	r1,(r30)
11289  0000a75c  64220000	snei	r2,r1,#0
11290  0000a760  14400010	bnez	r2,L45_LF4
11291  0000a764  54000000	nop; delay slot nop
11292  0000a768  20010000	addi	r1,r0,#0
11293  0000a76c  08000190	j	L42_LF4
11294  0000a770  54000000	nop; delay slot nop
11295  0000a774          	L45_LF4:
11296  0000a774  8fc10000	lw	r1,(r30)
11297  0000a778  8c220000	lw	r2,(r1)
11298  0000a77c  64410000	snei	r1,r2,#0
11299  0000a780  14200010	bnez	r1,L46_LF4
11300  0000a784  54000000	nop; delay slot nop
11301  0000a788  20010000	addi	r1,r0,#0
11302  0000a78c  08000170	j	L42_LF4
11303  0000a790  54000000	nop; delay slot nop
11304  0000a794          	L46_LF4:
11305  0000a794  8fc10000	lw	r1,(r30)
11306  0000a798  8c220000	lw	r2,(r1)
11307  0000a79c  afc2fff4	sw	-12(r30),r2
11308  0000a7a0  8fc1fff4	lw	r1,-12(r30)
11309  0000a7a4  8c220008	lw	r2,8(r1)
11310  0000a7a8  64410000	snei	r1,r2,#0
11311  0000a7ac  14200010	bnez	r1,L47_LF4
11312  0000a7b0  54000000	nop; delay slot nop
11313  0000a7b4  20010000	addi	r1,r0,#0
11314  0000a7b8  08000144	j	L42_LF4
11315  0000a7bc  54000000	nop; delay slot nop
11316  0000a7c0          	L47_LF4:
11317  0000a7c0  23bdfff8	addi	r29,r29,#-8
11318  0000a7c4  001d0820	add	r1,r0,r29
11319  0000a7c8  8fc2fff4	lw	r2,-12(r30)
11320  0000a7cc  8c430008	lw	r3,8(r2)
11321  0000a7d0  ac230000	sw	(r1),r3
11322  0000a7d4  0c000a58	jal	_AQueueFirst
11323  0000a7d8  54000000	nop; delay slot nop
11324  0000a7dc  23bd0008	addi	r29,r29,#8
11325  0000a7e0  8fc2fff4	lw	r2,-12(r30)
11326  0000a7e4  00220828	seq	r1,r1,r2
11327  0000a7e8  10200018	beqz	r1,L48_LF4
11328  0000a7ec  54000000	nop; delay slot nop
11329  0000a7f0  8fc2fff4	lw	r2,-12(r30)
11330  0000a7f4  8c410008	lw	r1,8(r2)
11331  0000a7f8  8fc2fff4	lw	r2,-12(r30)
11332  0000a7fc  8c430000	lw	r3,(r2)
11333  0000a800  ac230000	sw	(r1),r3
11334  0000a804          	L48_LF4:
11335  0000a804  23bdfff8	addi	r29,r29,#-8
11336  0000a808  001d0820	add	r1,r0,r29
11337  0000a80c  8fc2fff4	lw	r2,-12(r30)
11338  0000a810  8c430008	lw	r3,8(r2)
11339  0000a814  ac230000	sw	(r1),r3
11340  0000a818  0c000a50	jal	_AQueueLast
11341  0000a81c  54000000	nop; delay slot nop
11342  0000a820  23bd0008	addi	r29,r29,#8
11343  0000a824  8fc2fff4	lw	r2,-12(r30)
11344  0000a828  00220828	seq	r1,r1,r2
11345  0000a82c  10200018	beqz	r1,L49_LF4
11346  0000a830  54000000	nop; delay slot nop
11347  0000a834  8fc2fff4	lw	r2,-12(r30)
11348  0000a838  8c410008	lw	r1,8(r2)
11349  0000a83c  8fc2fff4	lw	r2,-12(r30)
11350  0000a840  8c430004	lw	r3,4(r2)
11351  0000a844  ac230004	sw	4(r1),r3
11352  0000a848          	L49_LF4:
11353  0000a848  8fc1fff4	lw	r1,-12(r30)
11354  0000a84c  8c220004	lw	r2,4(r1)
11355  0000a850  64410000	snei	r1,r2,#0
11356  0000a854  10200018	beqz	r1,L50_LF4
11357  0000a858  54000000	nop; delay slot nop
11358  0000a85c  8fc2fff4	lw	r2,-12(r30)
11359  0000a860  8c410004	lw	r1,4(r2)
11360  0000a864  8fc2fff4	lw	r2,-12(r30)
11361  0000a868  8c430000	lw	r3,(r2)
11362  0000a86c  ac230000	sw	(r1),r3
11363  0000a870          	L50_LF4:
11364  0000a870  8fc1fff4	lw	r1,-12(r30)
11365  0000a874  8c220000	lw	r2,(r1)
11366  0000a878  64410000	snei	r1,r2,#0
11367  0000a87c  10200018	beqz	r1,L51_LF4
11368  0000a880  54000000	nop; delay slot nop
11369  0000a884  8fc2fff4	lw	r2,-12(r30)
11370  0000a888  8c410000	lw	r1,(r2)
11371  0000a88c  8fc2fff4	lw	r2,-12(r30)
11372  0000a890  8c430004	lw	r3,4(r2)
11373  0000a894  ac230004	sw	4(r1),r3
11374  0000a898          	L51_LF4:
11375  0000a898  8fc2fff4	lw	r2,-12(r30)
11376  0000a89c  8c410008	lw	r1,8(r2)
11377  0000a8a0  8fc2fff4	lw	r2,-12(r30)
11378  0000a8a4  8c410008	lw	r1,8(r2)
11379  0000a8a8  8fc2fff4	lw	r2,-12(r30)
11380  0000a8ac  8c430008	lw	r3,8(r2)
11381  0000a8b0  8c640008	lw	r4,8(r3)
11382  0000a8b4  2082ffff	addi	r2,r4,#-1
11383  0000a8b8  00021820	add	r3,r0,r2
11384  0000a8bc  ac230008	sw	8(r1),r3
11385  0000a8c0  23bdfff8	addi	r29,r29,#-8
11386  0000a8c4  001d0820	add	r1,r0,r29
11387  0000a8c8  3c020001	lhi	r2,((_freeLinks)>>16)&0xffff
11388  0000a8cc  2442f12c	addui	r2,r2,(_freeLinks)&0xffff
11389  0000a8d0  ac220000	sw	(r1),r2
11390  0000a8d4  8fc2fff4	lw	r2,-12(r30)
11391  0000a8d8  ac220004	sw	4(r1),r2
11392  0000a8dc  0c000818	jal	_AQueueInsertLast
11393  0000a8e0  54000000	nop; delay slot nop
11394  0000a8e4  23bd0008	addi	r29,r29,#8
11395  0000a8e8  8fc10000	lw	r1,(r30)
11396  0000a8ec  20020000	addi	r2,r0,#0
11397  0000a8f0  ac220000	sw	(r1),r2
11398  0000a8f4  20010001	addi	r1,r0,#1
11399  0000a8f8  08000004	j	L42_LF4
11400  0000a8fc  54000000	nop; delay slot nop
11401  0000a900          	L42_LF4:
11402  0000a900  8fa20000	lw	r2,0(r29)
11403  0000a904  8fa30004	lw	r3,4(r29)
11404  0000a908  8fa40008	lw	r4,8(r29)
11405  0000a90c  8fdffff8	lw	r31,-8(r30)
11406  0000a910  001ee820	add	r29,r0,r30
11407  0000a914  8fdefffc	lw	r30,-4(r30)
11408  0000a918  4be00000	jr	r31
11409  0000a91c  54000000	nop
11410  0000a920          	.endproc _AQueueRemove
11411  0000a920          	.align 2
11412  0000a920          	.proc _AQueueInsertAfter
11413  0000a920          	.global _AQueueInsertAfter
11414  0000a920          	_AQueueInsertAfter:
11415                      ;  Function 'AQueueInsertAfter'; 0 bytes of locals, 2 regs to save.
11416  0000a920  afbefffc	sw	-4(r29),r30; push fp
11417  0000a924  001df020	add	r30,r0,r29; fp = sp
11418  0000a928  afbffff8	sw	-8(r29),r31; push ret addr
11419  0000a92c  2fbd0010	subui	r29,r29,#16; alloc local storage
11420  0000a930  afa20000	sw	0(r29),r2
11421  0000a934  afa30004	sw	4(r29),r3
11422  0000a938  8fc10008	lw	r1,8(r30)
11423  0000a93c  64220000	snei	r2,r1,#0
11424  0000a940  14400010	bnez	r2,L53_LF4
11425  0000a944  54000000	nop; delay slot nop
11426  0000a948  20010000	addi	r1,r0,#0
11427  0000a94c  080001e4	j	L52_LF4
11428  0000a950  54000000	nop; delay slot nop
11429  0000a954          	L53_LF4:
11430  0000a954  8fc10000	lw	r1,(r30)
11431  0000a958  64220000	snei	r2,r1,#0
11432  0000a95c  14400010	bnez	r2,L54_LF4
11433  0000a960  54000000	nop; delay slot nop
11434  0000a964  20010000	addi	r1,r0,#0
11435  0000a968  080001c8	j	L52_LF4
11436  0000a96c  54000000	nop; delay slot nop
11437  0000a970          	L54_LF4:
11438  0000a970  8fc10004	lw	r1,4(r30)
11439  0000a974  64220000	snei	r2,r1,#0
11440  0000a978  10400030	beqz	r2,L55_LF4
11441  0000a97c  54000000	nop; delay slot nop
11442  0000a980  8fc10004	lw	r1,4(r30)
11443  0000a984  8c220008	lw	r2,8(r1)
11444  0000a988  8fc10000	lw	r1,(r30)
11445  0000a98c  00411029	sne	r2,r2,r1
11446  0000a990  10400010	beqz	r2,L56_LF4
11447  0000a994  54000000	nop; delay slot nop
11448  0000a998  20010000	addi	r1,r0,#0
11449  0000a99c  08000194	j	L52_LF4
11450  0000a9a0  54000000	nop; delay slot nop
11451  0000a9a4          	L56_LF4:
11452  0000a9a4  08000078	j	L57_LF4
11453  0000a9a8  54000000	nop; delay slot nop
11454  0000a9ac          	L55_LF4:
11455  0000a9ac  8fc10000	lw	r1,(r30)
11456  0000a9b0  8c220000	lw	r2,(r1)
11457  0000a9b4  64410000	snei	r1,r2,#0
11458  0000a9b8  10200010	beqz	r1,L58_LF4
11459  0000a9bc  54000000	nop; delay slot nop
11460  0000a9c0  20010000	addi	r1,r0,#0
11461  0000a9c4  0800016c	j	L52_LF4
11462  0000a9c8  54000000	nop; delay slot nop
11463  0000a9cc          	L58_LF4:
11464  0000a9cc  8fc10000	lw	r1,(r30)
11465  0000a9d0  8c220004	lw	r2,4(r1)
11466  0000a9d4  64410000	snei	r1,r2,#0
11467  0000a9d8  10200010	beqz	r1,L59_LF4
11468  0000a9dc  54000000	nop; delay slot nop
11469  0000a9e0  20010000	addi	r1,r0,#0
11470  0000a9e4  0800014c	j	L52_LF4
11471  0000a9e8  54000000	nop; delay slot nop
11472  0000a9ec          	L59_LF4:
11473  0000a9ec  23bdfff8	addi	r29,r29,#-8
11474  0000a9f0  001d0820	add	r1,r0,r29
11475  0000a9f4  8fc20000	lw	r2,(r30)
11476  0000a9f8  ac220000	sw	(r1),r2
11477  0000a9fc  0c000920	jal	_AQueueEmpty
11478  0000aa00  54000000	nop; delay slot nop
11479  0000aa04  23bd0008	addi	r29,r29,#8
11480  0000aa08  64220000	snei	r2,r1,#0
11481  0000aa0c  14400010	bnez	r2,L57_LF4
11482  0000aa10  54000000	nop; delay slot nop
11483  0000aa14  20010000	addi	r1,r0,#0
11484  0000aa18  08000118	j	L52_LF4
11485  0000aa1c  54000000	nop; delay slot nop
11486  0000aa20          	L60_LF4:
11487  0000aa20          	L57_LF4:
11488  0000aa20  8fc10008	lw	r1,8(r30)
11489  0000aa24  8fc20000	lw	r2,(r30)
11490  0000aa28  ac220008	sw	8(r1),r2
11491  0000aa2c  8fc10008	lw	r1,8(r30)
11492  0000aa30  8fc20004	lw	r2,4(r30)
11493  0000aa34  ac220004	sw	4(r1),r2
11494  0000aa38  8fc10004	lw	r1,4(r30)
11495  0000aa3c  64220000	snei	r2,r1,#0
11496  0000aa40  1040001c	beqz	r2,L61_LF4
11497  0000aa44  54000000	nop; delay slot nop
11498  0000aa48  8fc10008	lw	r1,8(r30)
11499  0000aa4c  8fc20004	lw	r2,4(r30)
11500  0000aa50  8c430000	lw	r3,(r2)
11501  0000aa54  ac230000	sw	(r1),r3
11502  0000aa58  08000010	j	L62_LF4
11503  0000aa5c  54000000	nop; delay slot nop
11504  0000aa60          	L61_LF4:
11505  0000aa60  8fc10008	lw	r1,8(r30)
11506  0000aa64  20020000	addi	r2,r0,#0
11507  0000aa68  ac220000	sw	(r1),r2
11508  0000aa6c          	L62_LF4:
11509  0000aa6c  8fc10004	lw	r1,4(r30)
11510  0000aa70  64220000	snei	r2,r1,#0
11511  0000aa74  10400010	beqz	r2,L63_LF4
11512  0000aa78  54000000	nop; delay slot nop
11513  0000aa7c  8fc10004	lw	r1,4(r30)
11514  0000aa80  8fc20008	lw	r2,8(r30)
11515  0000aa84  ac220000	sw	(r1),r2
11516  0000aa88          	L63_LF4:
11517  0000aa88  8fc10008	lw	r1,8(r30)
11518  0000aa8c  8c220000	lw	r2,(r1)
11519  0000aa90  64410000	snei	r1,r2,#0
11520  0000aa94  10200014	beqz	r1,L64_LF4
11521  0000aa98  54000000	nop; delay slot nop
11522  0000aa9c  8fc10008	lw	r1,8(r30)
11523  0000aaa0  8c220000	lw	r2,(r1)
11524  0000aaa4  8fc10008	lw	r1,8(r30)
11525  0000aaa8  ac410004	sw	4(r2),r1
11526  0000aaac          	L64_LF4:
11527  0000aaac  8fc10004	lw	r1,4(r30)
11528  0000aab0  64220000	snei	r2,r1,#0
11529  0000aab4  14400030	bnez	r2,L65_LF4
11530  0000aab8  54000000	nop; delay slot nop
11531  0000aabc  8fc10000	lw	r1,(r30)
11532  0000aac0  8fc20008	lw	r2,8(r30)
11533  0000aac4  ac220000	sw	(r1),r2
11534  0000aac8  8fc10000	lw	r1,(r30)
11535  0000aacc  8fc20008	lw	r2,8(r30)
11536  0000aad0  ac220004	sw	4(r1),r2
11537  0000aad4  8fc10000	lw	r1,(r30)
11538  0000aad8  20020001	addi	r2,r0,#1
11539  0000aadc  ac220008	sw	8(r1),r2
11540  0000aae0  08000044	j	L66_LF4
11541  0000aae4  54000000	nop; delay slot nop
11542  0000aae8          	L65_LF4:
11543  0000aae8  8fc10000	lw	r1,(r30)
11544  0000aaec  8c220004	lw	r2,4(r1)
11545  0000aaf0  8fc10004	lw	r1,4(r30)
11546  0000aaf4  00411028	seq	r2,r2,r1
11547  0000aaf8  10400010	beqz	r2,L67_LF4
11548  0000aafc  54000000	nop; delay slot nop
11549  0000ab00  8fc10000	lw	r1,(r30)
11550  0000ab04  8fc20008	lw	r2,8(r30)
11551  0000ab08  ac220004	sw	4(r1),r2
11552  0000ab0c          	L67_LF4:
11553  0000ab0c  8fc20000	lw	r2,(r30)
11554  0000ab10  8fc10000	lw	r1,(r30)
11555  0000ab14  8fc20000	lw	r2,(r30)
11556  0000ab18  8c430008	lw	r3,8(r2)
11557  0000ab1c  20620001	addi	r2,r3,#1
11558  0000ab20  00021820	add	r3,r0,r2
11559  0000ab24  ac230008	sw	8(r1),r3
11560  0000ab28          	L66_LF4:
11561  0000ab28  20010001	addi	r1,r0,#1
11562  0000ab2c  08000004	j	L52_LF4
11563  0000ab30  54000000	nop; delay slot nop
11564  0000ab34          	L52_LF4:
11565  0000ab34  8fa20000	lw	r2,0(r29)
11566  0000ab38  8fa30004	lw	r3,4(r29)
11567  0000ab3c  8fdffff8	lw	r31,-8(r30)
11568  0000ab40  001ee820	add	r29,r0,r30
11569  0000ab44  8fdefffc	lw	r30,-4(r30)
11570  0000ab48  4be00000	jr	r31
11571  0000ab4c  54000000	nop
11572  0000ab50          	.endproc _AQueueInsertAfter
11573  0000ab50          	.align 2
11574  0000ab50          	.proc _AQueueInsertBefore
11575  0000ab50          	.global _AQueueInsertBefore
11576  0000ab50          	_AQueueInsertBefore:
11577                      ;  Function 'AQueueInsertBefore'; 0 bytes of locals, 2 regs to save.
11578  0000ab50  afbefffc	sw	-4(r29),r30; push fp
11579  0000ab54  001df020	add	r30,r0,r29; fp = sp
11580  0000ab58  afbffff8	sw	-8(r29),r31; push ret addr
11581  0000ab5c  2fbd0010	subui	r29,r29,#16; alloc local storage
11582  0000ab60  afa20000	sw	0(r29),r2
11583  0000ab64  afa30004	sw	4(r29),r3
11584  0000ab68  8fc10008	lw	r1,8(r30)
11585  0000ab6c  64220000	snei	r2,r1,#0
11586  0000ab70  14400010	bnez	r2,L69_LF4
11587  0000ab74  54000000	nop; delay slot nop
11588  0000ab78  20010000	addi	r1,r0,#0
11589  0000ab7c  0800020c	j	L68_LF4
11590  0000ab80  54000000	nop; delay slot nop
11591  0000ab84          	L69_LF4:
11592  0000ab84  8fc10000	lw	r1,(r30)
11593  0000ab88  64220000	snei	r2,r1,#0
11594  0000ab8c  14400010	bnez	r2,L70_LF4
11595  0000ab90  54000000	nop; delay slot nop
11596  0000ab94  20010000	addi	r1,r0,#0
11597  0000ab98  080001f0	j	L68_LF4
11598  0000ab9c  54000000	nop; delay slot nop
11599  0000aba0          	L70_LF4:
11600  0000aba0  8fc10004	lw	r1,4(r30)
11601  0000aba4  64220000	snei	r2,r1,#0
11602  0000aba8  10400030	beqz	r2,L71_LF4
11603  0000abac  54000000	nop; delay slot nop
11604  0000abb0  8fc10004	lw	r1,4(r30)
11605  0000abb4  8c220008	lw	r2,8(r1)
11606  0000abb8  8fc10000	lw	r1,(r30)
11607  0000abbc  00411029	sne	r2,r2,r1
11608  0000abc0  10400010	beqz	r2,L72_LF4
11609  0000abc4  54000000	nop; delay slot nop
11610  0000abc8  20010000	addi	r1,r0,#0
11611  0000abcc  080001bc	j	L68_LF4
11612  0000abd0  54000000	nop; delay slot nop
11613  0000abd4          	L72_LF4:
11614  0000abd4  080000a0	j	L73_LF4
11615  0000abd8  54000000	nop; delay slot nop
11616  0000abdc          	L71_LF4:
11617  0000abdc  23bdfff8	addi	r29,r29,#-8
11618  0000abe0  001d0820	add	r1,r0,r29
11619  0000abe4  8fc20000	lw	r2,(r30)
11620  0000abe8  ac220000	sw	(r1),r2
11621  0000abec  0c000640	jal	_AQueueFirst
11622  0000abf0  54000000	nop; delay slot nop
11623  0000abf4  23bd0008	addi	r29,r29,#8
11624  0000abf8  64220000	snei	r2,r1,#0
11625  0000abfc  10400010	beqz	r2,L74_LF4
11626  0000ac00  54000000	nop; delay slot nop
11627  0000ac04  20010000	addi	r1,r0,#0
11628  0000ac08  08000180	j	L68_LF4
11629  0000ac0c  54000000	nop; delay slot nop
11630  0000ac10          	L74_LF4:
11631  0000ac10  23bdfff8	addi	r29,r29,#-8
11632  0000ac14  001d0820	add	r1,r0,r29
11633  0000ac18  8fc20000	lw	r2,(r30)
11634  0000ac1c  ac220000	sw	(r1),r2
11635  0000ac20  0c000648	jal	_AQueueLast
11636  0000ac24  54000000	nop; delay slot nop
11637  0000ac28  23bd0008	addi	r29,r29,#8
11638  0000ac2c  64220000	snei	r2,r1,#0
11639  0000ac30  10400010	beqz	r2,L75_LF4
11640  0000ac34  54000000	nop; delay slot nop
11641  0000ac38  20010000	addi	r1,r0,#0
11642  0000ac3c  0800014c	j	L68_LF4
11643  0000ac40  54000000	nop; delay slot nop
11644  0000ac44          	L75_LF4:
11645  0000ac44  23bdfff8	addi	r29,r29,#-8
11646  0000ac48  001d0820	add	r1,r0,r29
11647  0000ac4c  8fc20000	lw	r2,(r30)
11648  0000ac50  ac220000	sw	(r1),r2
11649  0000ac54  0c0006c8	jal	_AQueueEmpty
11650  0000ac58  54000000	nop; delay slot nop
11651  0000ac5c  23bd0008	addi	r29,r29,#8
11652  0000ac60  64220000	snei	r2,r1,#0
11653  0000ac64  14400010	bnez	r2,L73_LF4
11654  0000ac68  54000000	nop; delay slot nop
11655  0000ac6c  20010000	addi	r1,r0,#0
11656  0000ac70  08000118	j	L68_LF4
11657  0000ac74  54000000	nop; delay slot nop
11658  0000ac78          	L76_LF4:
11659  0000ac78          	L73_LF4:
11660  0000ac78  8fc10008	lw	r1,8(r30)
11661  0000ac7c  8fc20000	lw	r2,(r30)
11662  0000ac80  ac220008	sw	8(r1),r2
11663  0000ac84  8fc10008	lw	r1,8(r30)
11664  0000ac88  8fc20004	lw	r2,4(r30)
11665  0000ac8c  ac220000	sw	(r1),r2
11666  0000ac90  8fc10004	lw	r1,4(r30)
11667  0000ac94  64220000	snei	r2,r1,#0
11668  0000ac98  1040001c	beqz	r2,L77_LF4
11669  0000ac9c  54000000	nop; delay slot nop
11670  0000aca0  8fc10008	lw	r1,8(r30)
11671  0000aca4  8fc20004	lw	r2,4(r30)
11672  0000aca8  8c430004	lw	r3,4(r2)
11673  0000acac  ac230004	sw	4(r1),r3
11674  0000acb0  08000010	j	L78_LF4
11675  0000acb4  54000000	nop; delay slot nop
11676  0000acb8          	L77_LF4:
11677  0000acb8  8fc10008	lw	r1,8(r30)
11678  0000acbc  20020000	addi	r2,r0,#0
11679  0000acc0  ac220004	sw	4(r1),r2
11680  0000acc4          	L78_LF4:
11681  0000acc4  8fc10004	lw	r1,4(r30)
11682  0000acc8  64220000	snei	r2,r1,#0
11683  0000accc  10400010	beqz	r2,L79_LF4
11684  0000acd0  54000000	nop; delay slot nop
11685  0000acd4  8fc10004	lw	r1,4(r30)
11686  0000acd8  8fc20008	lw	r2,8(r30)
11687  0000acdc  ac220004	sw	4(r1),r2
11688  0000ace0          	L79_LF4:
11689  0000ace0  8fc10008	lw	r1,8(r30)
11690  0000ace4  8c220004	lw	r2,4(r1)
11691  0000ace8  64410000	snei	r1,r2,#0
11692  0000acec  10200014	beqz	r1,L80_LF4
11693  0000acf0  54000000	nop; delay slot nop
11694  0000acf4  8fc10008	lw	r1,8(r30)
11695  0000acf8  8c220004	lw	r2,4(r1)
11696  0000acfc  8fc10008	lw	r1,8(r30)
11697  0000ad00  ac410000	sw	(r2),r1
11698  0000ad04          	L80_LF4:
11699  0000ad04  8fc10004	lw	r1,4(r30)
11700  0000ad08  64220000	snei	r2,r1,#0
11701  0000ad0c  14400030	bnez	r2,L81_LF4
11702  0000ad10  54000000	nop; delay slot nop
11703  0000ad14  8fc10000	lw	r1,(r30)
11704  0000ad18  8fc20008	lw	r2,8(r30)
11705  0000ad1c  ac220000	sw	(r1),r2
11706  0000ad20  8fc10000	lw	r1,(r30)
11707  0000ad24  8fc20008	lw	r2,8(r30)
11708  0000ad28  ac220004	sw	4(r1),r2
11709  0000ad2c  8fc10000	lw	r1,(r30)
11710  0000ad30  20020001	addi	r2,r0,#1
11711  0000ad34  ac220008	sw	8(r1),r2
11712  0000ad38  08000044	j	L82_LF4
11713  0000ad3c  54000000	nop; delay slot nop
11714  0000ad40          	L81_LF4:
11715  0000ad40  8fc10000	lw	r1,(r30)
11716  0000ad44  8c220000	lw	r2,(r1)
11717  0000ad48  8fc10004	lw	r1,4(r30)
11718  0000ad4c  00411028	seq	r2,r2,r1
11719  0000ad50  10400010	beqz	r2,L83_LF4
11720  0000ad54  54000000	nop; delay slot nop
11721  0000ad58  8fc10000	lw	r1,(r30)
11722  0000ad5c  8fc20008	lw	r2,8(r30)
11723  0000ad60  ac220000	sw	(r1),r2
11724  0000ad64          	L83_LF4:
11725  0000ad64  8fc20000	lw	r2,(r30)
11726  0000ad68  8fc10000	lw	r1,(r30)
11727  0000ad6c  8fc20000	lw	r2,(r30)
11728  0000ad70  8c430008	lw	r3,8(r2)
11729  0000ad74  20620001	addi	r2,r3,#1
11730  0000ad78  00021820	add	r3,r0,r2
11731  0000ad7c  ac230008	sw	8(r1),r3
11732  0000ad80          	L82_LF4:
11733  0000ad80  20010001	addi	r1,r0,#1
11734  0000ad84  08000004	j	L68_LF4
11735  0000ad88  54000000	nop; delay slot nop
11736  0000ad8c          	L68_LF4:
11737  0000ad8c  8fa20000	lw	r2,0(r29)
11738  0000ad90  8fa30004	lw	r3,4(r29)
11739  0000ad94  8fdffff8	lw	r31,-8(r30)
11740  0000ad98  001ee820	add	r29,r0,r30
11741  0000ad9c  8fdefffc	lw	r30,-4(r30)
11742  0000ada0  4be00000	jr	r31
11743  0000ada4  54000000	nop
11744  0000ada8          	.endproc _AQueueInsertBefore
11745  0000ada8          	.align 2
11746  0000ada8          	.proc _AQueueMoveAfter
11747  0000ada8          	.global _AQueueMoveAfter
11748  0000ada8          	_AQueueMoveAfter:
11749                      ;  Function 'AQueueMoveAfter'; 0 bytes of locals, 2 regs to save.
11750  0000ada8  afbefffc	sw	-4(r29),r30; push fp
11751  0000adac  001df020	add	r30,r0,r29; fp = sp
11752  0000adb0  afbffff8	sw	-8(r29),r31; push ret addr
11753  0000adb4  2fbd0010	subui	r29,r29,#16; alloc local storage
11754  0000adb8  afa20000	sw	0(r29),r2
11755  0000adbc  afa30004	sw	4(r29),r3
11756  0000adc0  8fc10000	lw	r1,(r30)
11757  0000adc4  64220000	snei	r2,r1,#0
11758  0000adc8  14400010	bnez	r2,L85_LF4
11759  0000adcc  54000000	nop; delay slot nop
11760  0000add0  20010000	addi	r1,r0,#0
11761  0000add4  08000244	j	L84_LF4
11762  0000add8  54000000	nop; delay slot nop
11763  0000addc          	L85_LF4:
11764  0000addc  8fc10008	lw	r1,8(r30)
11765  0000ade0  64220000	snei	r2,r1,#0
11766  0000ade4  14400010	bnez	r2,L86_LF4
11767  0000ade8  54000000	nop; delay slot nop
11768  0000adec  20010000	addi	r1,r0,#0
11769  0000adf0  08000228	j	L84_LF4
11770  0000adf4  54000000	nop; delay slot nop
11771  0000adf8          	L86_LF4:
11772  0000adf8  8fc10008	lw	r1,8(r30)
11773  0000adfc  8c220008	lw	r2,8(r1)
11774  0000ae00  8fc10000	lw	r1,(r30)
11775  0000ae04  00411029	sne	r2,r2,r1
11776  0000ae08  10400010	beqz	r2,L87_LF4
11777  0000ae0c  54000000	nop; delay slot nop
11778  0000ae10  20010000	addi	r1,r0,#0
11779  0000ae14  08000204	j	L84_LF4
11780  0000ae18  54000000	nop; delay slot nop
11781  0000ae1c          	L87_LF4:
11782  0000ae1c  8fc10004	lw	r1,4(r30)
11783  0000ae20  64220000	snei	r2,r1,#0
11784  0000ae24  14400098	bnez	r2,L88_LF4
11785  0000ae28  54000000	nop; delay slot nop
11786  0000ae2c  23bdfff8	addi	r29,r29,#-8
11787  0000ae30  001d0820	add	r1,r0,r29
11788  0000ae34  8fc20000	lw	r2,(r30)
11789  0000ae38  ac220000	sw	(r1),r2
11790  0000ae3c  0c0004a4	jal	_AQueueLength
11791  0000ae40  54000000	nop; delay slot nop
11792  0000ae44  23bd0008	addi	r29,r29,#8
11793  0000ae48  64220001	snei	r2,r1,#1
11794  0000ae4c  10400010	beqz	r2,L89_LF4
11795  0000ae50  54000000	nop; delay slot nop
11796  0000ae54  20010000	addi	r1,r0,#0
11797  0000ae58  080001c0	j	L84_LF4
11798  0000ae5c  54000000	nop; delay slot nop
11799  0000ae60          	L89_LF4:
11800  0000ae60  23bdfff8	addi	r29,r29,#-8
11801  0000ae64  001d0820	add	r1,r0,r29
11802  0000ae68  8fc20000	lw	r2,(r30)
11803  0000ae6c  ac220000	sw	(r1),r2
11804  0000ae70  0c0003bc	jal	_AQueueFirst
11805  0000ae74  54000000	nop; delay slot nop
11806  0000ae78  23bd0008	addi	r29,r29,#8
11807  0000ae7c  00011020	add	r2,r0,r1
11808  0000ae80  23bdfff8	addi	r29,r29,#-8
11809  0000ae84  001d0820	add	r1,r0,r29
11810  0000ae88  8fc30000	lw	r3,(r30)
11811  0000ae8c  ac230000	sw	(r1),r3
11812  0000ae90  0c0003d8	jal	_AQueueLast
11813  0000ae94  54000000	nop; delay slot nop
11814  0000ae98  23bd0008	addi	r29,r29,#8
11815  0000ae9c  00411029	sne	r2,r2,r1
11816  0000aea0  10400010	beqz	r2,L90_LF4
11817  0000aea4  54000000	nop; delay slot nop
11818  0000aea8  20010000	addi	r1,r0,#0
11819  0000aeac  0800016c	j	L84_LF4
11820  0000aeb0  54000000	nop; delay slot nop
11821  0000aeb4          	L90_LF4:
11822  0000aeb4  20010001	addi	r1,r0,#1
11823  0000aeb8  08000160	j	L84_LF4
11824  0000aebc  54000000	nop; delay slot nop
11825  0000aec0          	L88_LF4:
11826  0000aec0  8fc10004	lw	r1,4(r30)
11827  0000aec4  8c220008	lw	r2,8(r1)
11828  0000aec8  8fc10000	lw	r1,(r30)
11829  0000aecc  00411029	sne	r2,r2,r1
11830  0000aed0  10400010	beqz	r2,L91_LF4
11831  0000aed4  54000000	nop; delay slot nop
11832  0000aed8  20010000	addi	r1,r0,#0
11833  0000aedc  0800013c	j	L84_LF4
11834  0000aee0  54000000	nop; delay slot nop
11835  0000aee4          	L91_LF4:
11836  0000aee4  8fc10004	lw	r1,4(r30)
11837  0000aee8  8fc20008	lw	r2,8(r30)
11838  0000aeec  00220828	seq	r1,r1,r2
11839  0000aef0  10200010	beqz	r1,L92_LF4
11840  0000aef4  54000000	nop; delay slot nop
11841  0000aef8  20010001	addi	r1,r0,#1
11842  0000aefc  0800011c	j	L84_LF4
11843  0000af00  54000000	nop; delay slot nop
11844  0000af04          	L92_LF4:
11845  0000af04  8fc10000	lw	r1,(r30)
11846  0000af08  8c220004	lw	r2,4(r1)
11847  0000af0c  8fc10008	lw	r1,8(r30)
11848  0000af10  00411028	seq	r2,r2,r1
11849  0000af14  10400010	beqz	r2,L93_LF4
11850  0000af18  54000000	nop; delay slot nop
11851  0000af1c  20010000	addi	r1,r0,#0
11852  0000af20  080000f8	j	L84_LF4
11853  0000af24  54000000	nop; delay slot nop
11854  0000af28          	L93_LF4:
11855  0000af28  8fc10000	lw	r1,(r30)
11856  0000af2c  8c220000	lw	r2,(r1)
11857  0000af30  8fc10008	lw	r1,8(r30)
11858  0000af34  00411028	seq	r2,r2,r1
11859  0000af38  10400014	beqz	r2,L94_LF4
11860  0000af3c  54000000	nop; delay slot nop
11861  0000af40  8fc10000	lw	r1,(r30)
11862  0000af44  8fc20008	lw	r2,8(r30)
11863  0000af48  8c430000	lw	r3,(r2)
11864  0000af4c  ac230000	sw	(r1),r3
11865  0000af50          	L94_LF4:
11866  0000af50  8fc10000	lw	r1,(r30)
11867  0000af54  8c220004	lw	r2,4(r1)
11868  0000af58  8fc10004	lw	r1,4(r30)
11869  0000af5c  00411028	seq	r2,r2,r1
11870  0000af60  10400010	beqz	r2,L95_LF4
11871  0000af64  54000000	nop; delay slot nop
11872  0000af68  8fc10000	lw	r1,(r30)
11873  0000af6c  8fc20008	lw	r2,8(r30)
11874  0000af70  ac220004	sw	4(r1),r2
11875  0000af74          	L95_LF4:
11876  0000af74  8fc10008	lw	r1,8(r30)
11877  0000af78  8c220000	lw	r2,(r1)
11878  0000af7c  64410000	snei	r1,r2,#0
11879  0000af80  10200018	beqz	r1,L96_LF4
11880  0000af84  54000000	nop; delay slot nop
11881  0000af88  8fc20008	lw	r2,8(r30)
11882  0000af8c  8c410000	lw	r1,(r2)
11883  0000af90  8fc20008	lw	r2,8(r30)
11884  0000af94  8c430004	lw	r3,4(r2)
11885  0000af98  ac230004	sw	4(r1),r3
11886  0000af9c          	L96_LF4:
11887  0000af9c  8fc10008	lw	r1,8(r30)
11888  0000afa0  8c220004	lw	r2,4(r1)
11889  0000afa4  64410000	snei	r1,r2,#0
11890  0000afa8  10200018	beqz	r1,L97_LF4
11891  0000afac  54000000	nop; delay slot nop
11892  0000afb0  8fc20008	lw	r2,8(r30)
11893  0000afb4  8c410004	lw	r1,4(r2)
11894  0000afb8  8fc20008	lw	r2,8(r30)
11895  0000afbc  8c430000	lw	r3,(r2)
11896  0000afc0  ac230000	sw	(r1),r3
11897  0000afc4          	L97_LF4:
11898  0000afc4  8fc10008	lw	r1,8(r30)
11899  0000afc8  8fc20004	lw	r2,4(r30)
11900  0000afcc  ac220004	sw	4(r1),r2
11901  0000afd0  8fc10008	lw	r1,8(r30)
11902  0000afd4  8fc20004	lw	r2,4(r30)
11903  0000afd8  8c430000	lw	r3,(r2)
11904  0000afdc  ac230000	sw	(r1),r3
11905  0000afe0  8fc10004	lw	r1,4(r30)
11906  0000afe4  8fc20008	lw	r2,8(r30)
11907  0000afe8  ac220000	sw	(r1),r2
11908  0000afec  8fc10008	lw	r1,8(r30)
11909  0000aff0  8c220000	lw	r2,(r1)
11910  0000aff4  64410000	snei	r1,r2,#0
11911  0000aff8  10200014	beqz	r1,L98_LF4
11912  0000affc  54000000	nop; delay slot nop
11913  0000b000  8fc10008	lw	r1,8(r30)
11914  0000b004  8c220000	lw	r2,(r1)
11915  0000b008  8fc10008	lw	r1,8(r30)
11916  0000b00c  ac410004	sw	4(r2),r1
11917  0000b010          	L98_LF4:
11918  0000b010  20010001	addi	r1,r0,#1
11919  0000b014  08000004	j	L84_LF4
11920  0000b018  54000000	nop; delay slot nop
11921  0000b01c          	L84_LF4:
11922  0000b01c  8fa20000	lw	r2,0(r29)
11923  0000b020  8fa30004	lw	r3,4(r29)
11924  0000b024  8fdffff8	lw	r31,-8(r30)
11925  0000b028  001ee820	add	r29,r0,r30
11926  0000b02c  8fdefffc	lw	r30,-4(r30)
11927  0000b030  4be00000	jr	r31
11928  0000b034  54000000	nop
11929  0000b038          	.endproc _AQueueMoveAfter
11930  0000b038          	.align 2
11931  0000b038          	.proc _AQueueInsertFirst
11932  0000b038          	.global _AQueueInsertFirst
11933  0000b038          	_AQueueInsertFirst:
11934                      ;  Function 'AQueueInsertFirst'; 0 bytes of locals, 2 regs to save.
11935  0000b038  afbefffc	sw	-4(r29),r30; push fp
11936  0000b03c  001df020	add	r30,r0,r29; fp = sp
11937  0000b040  afbffff8	sw	-8(r29),r31; push ret addr
11938  0000b044  2fbd0010	subui	r29,r29,#16; alloc local storage
11939  0000b048  afa20000	sw	0(r29),r2
11940  0000b04c  afa30004	sw	4(r29),r3
11941  0000b050  8fc10004	lw	r1,4(r30)
11942  0000b054  64220000	snei	r2,r1,#0
11943  0000b058  14400010	bnez	r2,L100_LF4
11944  0000b05c  54000000	nop; delay slot nop
11945  0000b060  20010000	addi	r1,r0,#0
11946  0000b064  08000074	j	L99_LF4
11947  0000b068  54000000	nop; delay slot nop
11948  0000b06c          	L100_LF4:
11949  0000b06c  8fc10000	lw	r1,(r30)
11950  0000b070  64220000	snei	r2,r1,#0
11951  0000b074  14400010	bnez	r2,L101_LF4
11952  0000b078  54000000	nop; delay slot nop
11953  0000b07c  20010000	addi	r1,r0,#0
11954  0000b080  08000058	j	L99_LF4
11955  0000b084  54000000	nop; delay slot nop
11956  0000b088          	L101_LF4:
11957  0000b088  23bdfff8	addi	r29,r29,#-8
11958  0000b08c  001d0820	add	r1,r0,r29
11959  0000b090  8fc20000	lw	r2,(r30)
11960  0000b094  ac220000	sw	(r1),r2
11961  0000b098  0c000194	jal	_AQueueFirst
11962  0000b09c  54000000	nop; delay slot nop
11963  0000b0a0  23bd0008	addi	r29,r29,#8
11964  0000b0a4  23bdfff0	addi	r29,r29,#-16
11965  0000b0a8  001d1020	add	r2,r0,r29
11966  0000b0ac  8fc30000	lw	r3,(r30)
11967  0000b0b0  ac430000	sw	(r2),r3
11968  0000b0b4  ac410004	sw	4(r2),r1
11969  0000b0b8  8fc10004	lw	r1,4(r30)
11970  0000b0bc  ac410008	sw	8(r2),r1
11971  0000b0c0  0ffffa8c	jal	_AQueueInsertBefore
11972  0000b0c4  54000000	nop; delay slot nop
11973  0000b0c8  23bd0010	addi	r29,r29,#16
11974  0000b0cc  00011020	add	r2,r0,r1
11975  0000b0d0  00020820	add	r1,r0,r2
11976  0000b0d4  08000004	j	L99_LF4
11977  0000b0d8  54000000	nop; delay slot nop
11978  0000b0dc          	L99_LF4:
11979  0000b0dc  8fa20000	lw	r2,0(r29)
11980  0000b0e0  8fa30004	lw	r3,4(r29)
11981  0000b0e4  8fdffff8	lw	r31,-8(r30)
11982  0000b0e8  001ee820	add	r29,r0,r30
11983  0000b0ec  8fdefffc	lw	r30,-4(r30)
11984  0000b0f0  4be00000	jr	r31
11985  0000b0f4  54000000	nop
11986  0000b0f8          	.endproc _AQueueInsertFirst
11987  0000b0f8          	.align 2
11988  0000b0f8          	.proc _AQueueInsertLast
11989  0000b0f8          	.global _AQueueInsertLast
11990  0000b0f8          	_AQueueInsertLast:
11991                      ;  Function 'AQueueInsertLast'; 0 bytes of locals, 2 regs to save.
11992  0000b0f8  afbefffc	sw	-4(r29),r30; push fp
11993  0000b0fc  001df020	add	r30,r0,r29; fp = sp
11994  0000b100  afbffff8	sw	-8(r29),r31; push ret addr
11995  0000b104  2fbd0010	subui	r29,r29,#16; alloc local storage
11996  0000b108  afa20000	sw	0(r29),r2
11997  0000b10c  afa30004	sw	4(r29),r3
11998  0000b110  8fc10004	lw	r1,4(r30)
11999  0000b114  64220000	snei	r2,r1,#0
12000  0000b118  14400010	bnez	r2,L103_LF4
12001  0000b11c  54000000	nop; delay slot nop
12002  0000b120  20010000	addi	r1,r0,#0
12003  0000b124  08000074	j	L102_LF4
12004  0000b128  54000000	nop; delay slot nop
12005  0000b12c          	L103_LF4:
12006  0000b12c  8fc10000	lw	r1,(r30)
12007  0000b130  64220000	snei	r2,r1,#0
12008  0000b134  14400010	bnez	r2,L104_LF4
12009  0000b138  54000000	nop; delay slot nop
12010  0000b13c  20010000	addi	r1,r0,#0
12011  0000b140  08000058	j	L102_LF4
12012  0000b144  54000000	nop; delay slot nop
12013  0000b148          	L104_LF4:
12014  0000b148  23bdfff8	addi	r29,r29,#-8
12015  0000b14c  001d0820	add	r1,r0,r29
12016  0000b150  8fc20000	lw	r2,(r30)
12017  0000b154  ac220000	sw	(r1),r2
12018  0000b158  0c000110	jal	_AQueueLast
12019  0000b15c  54000000	nop; delay slot nop
12020  0000b160  23bd0008	addi	r29,r29,#8
12021  0000b164  23bdfff0	addi	r29,r29,#-16
12022  0000b168  001d1020	add	r2,r0,r29
12023  0000b16c  8fc30000	lw	r3,(r30)
12024  0000b170  ac430000	sw	(r2),r3
12025  0000b174  ac410004	sw	4(r2),r1
12026  0000b178  8fc10004	lw	r1,4(r30)
12027  0000b17c  ac410008	sw	8(r2),r1
12028  0000b180  0ffff79c	jal	_AQueueInsertAfter
12029  0000b184  54000000	nop; delay slot nop
12030  0000b188  23bd0010	addi	r29,r29,#16
12031  0000b18c  00011020	add	r2,r0,r1
12032  0000b190  00020820	add	r1,r0,r2
12033  0000b194  08000004	j	L102_LF4
12034  0000b198  54000000	nop; delay slot nop
12035  0000b19c          	L102_LF4:
12036  0000b19c  8fa20000	lw	r2,0(r29)
12037  0000b1a0  8fa30004	lw	r3,4(r29)
12038  0000b1a4  8fdffff8	lw	r31,-8(r30)
12039  0000b1a8  001ee820	add	r29,r0,r30
12040  0000b1ac  8fdefffc	lw	r30,-4(r30)
12041  0000b1b0  4be00000	jr	r31
12042  0000b1b4  54000000	nop
12043  0000b1b8          	.endproc _AQueueInsertLast
12044  0000b1b8          	.align 2
12045  0000b1b8          	.proc _AQueueNext
12046  0000b1b8          	.global _AQueueNext
12047  0000b1b8          	_AQueueNext:
12048                      ;  Function 'AQueueNext'; 0 bytes of locals, 1 regs to save.
12049  0000b1b8  afbefffc	sw	-4(r29),r30; push fp
12050  0000b1bc  001df020	add	r30,r0,r29; fp = sp
12051  0000b1c0  afbffff8	sw	-8(r29),r31; push ret addr
12052  0000b1c4  2fbd0010	subui	r29,r29,#16; alloc local storage
12053  0000b1c8  afa20000	sw	0(r29),r2
12054  0000b1cc  8fc20000	lw	r2,(r30)
12055  0000b1d0  8c410000	lw	r1,(r2)
12056  0000b1d4  08000004	j	L105_LF4
12057  0000b1d8  54000000	nop; delay slot nop
12058  0000b1dc          	L105_LF4:
12059  0000b1dc  8fa20000	lw	r2,0(r29)
12060  0000b1e0  8fdffff8	lw	r31,-8(r30)
12061  0000b1e4  001ee820	add	r29,r0,r30
12062  0000b1e8  8fdefffc	lw	r30,-4(r30)
12063  0000b1ec  4be00000	jr	r31
12064  0000b1f0  54000000	nop
12065  0000b1f4          	.endproc _AQueueNext
12066  0000b1f4          	.align 2
12067  0000b1f4          	.proc _AQueuePrev
12068  0000b1f4          	.global _AQueuePrev
12069  0000b1f4          	_AQueuePrev:
12070                      ;  Function 'AQueuePrev'; 0 bytes of locals, 1 regs to save.
12071  0000b1f4  afbefffc	sw	-4(r29),r30; push fp
12072  0000b1f8  001df020	add	r30,r0,r29; fp = sp
12073  0000b1fc  afbffff8	sw	-8(r29),r31; push ret addr
12074  0000b200  2fbd0010	subui	r29,r29,#16; alloc local storage
12075  0000b204  afa20000	sw	0(r29),r2
12076  0000b208  8fc20000	lw	r2,(r30)
12077  0000b20c  8c410004	lw	r1,4(r2)
12078  0000b210  08000004	j	L106_LF4
12079  0000b214  54000000	nop; delay slot nop
12080  0000b218          	L106_LF4:
12081  0000b218  8fa20000	lw	r2,0(r29)
12082  0000b21c  8fdffff8	lw	r31,-8(r30)
12083  0000b220  001ee820	add	r29,r0,r30
12084  0000b224  8fdefffc	lw	r30,-4(r30)
12085  0000b228  4be00000	jr	r31
12086  0000b22c  54000000	nop
12087  0000b230          	.endproc _AQueuePrev
12088  0000b230          	.align 2
12089  0000b230          	.proc _AQueueFirst
12090  0000b230          	.global _AQueueFirst
12091  0000b230          	_AQueueFirst:
12092                      ;  Function 'AQueueFirst'; 0 bytes of locals, 1 regs to save.
12093  0000b230  afbefffc	sw	-4(r29),r30; push fp
12094  0000b234  001df020	add	r30,r0,r29; fp = sp
12095  0000b238  afbffff8	sw	-8(r29),r31; push ret addr
12096  0000b23c  2fbd0010	subui	r29,r29,#16; alloc local storage
12097  0000b240  afa20000	sw	0(r29),r2
12098  0000b244  8fc20000	lw	r2,(r30)
12099  0000b248  8c410000	lw	r1,(r2)
12100  0000b24c  08000004	j	L107_LF4
12101  0000b250  54000000	nop; delay slot nop
12102  0000b254          	L107_LF4:
12103  0000b254  8fa20000	lw	r2,0(r29)
12104  0000b258  8fdffff8	lw	r31,-8(r30)
12105  0000b25c  001ee820	add	r29,r0,r30
12106  0000b260  8fdefffc	lw	r30,-4(r30)
12107  0000b264  4be00000	jr	r31
12108  0000b268  54000000	nop
12109  0000b26c          	.endproc _AQueueFirst
12110  0000b26c          	.align 2
12111  0000b26c          	.proc _AQueueLast
12112  0000b26c          	.global _AQueueLast
12113  0000b26c          	_AQueueLast:
12114                      ;  Function 'AQueueLast'; 0 bytes of locals, 1 regs to save.
12115  0000b26c  afbefffc	sw	-4(r29),r30; push fp
12116  0000b270  001df020	add	r30,r0,r29; fp = sp
12117  0000b274  afbffff8	sw	-8(r29),r31; push ret addr
12118  0000b278  2fbd0010	subui	r29,r29,#16; alloc local storage
12119  0000b27c  afa20000	sw	0(r29),r2
12120  0000b280  8fc20000	lw	r2,(r30)
12121  0000b284  8c410004	lw	r1,4(r2)
12122  0000b288  08000004	j	L108_LF4
12123  0000b28c  54000000	nop; delay slot nop
12124  0000b290          	L108_LF4:
12125  0000b290  8fa20000	lw	r2,0(r29)
12126  0000b294  8fdffff8	lw	r31,-8(r30)
12127  0000b298  001ee820	add	r29,r0,r30
12128  0000b29c  8fdefffc	lw	r30,-4(r30)
12129  0000b2a0  4be00000	jr	r31
12130  0000b2a4  54000000	nop
12131  0000b2a8          	.endproc _AQueueLast
12132  0000b2a8          	.align 2
12133  0000b2a8          	.proc _AQueueObject
12134  0000b2a8          	.global _AQueueObject
12135  0000b2a8          	_AQueueObject:
12136                      ;  Function 'AQueueObject'; 0 bytes of locals, 1 regs to save.
12137  0000b2a8  afbefffc	sw	-4(r29),r30; push fp
12138  0000b2ac  001df020	add	r30,r0,r29; fp = sp
12139  0000b2b0  afbffff8	sw	-8(r29),r31; push ret addr
12140  0000b2b4  2fbd0010	subui	r29,r29,#16; alloc local storage
12141  0000b2b8  afa20000	sw	0(r29),r2
12142  0000b2bc  8fc20000	lw	r2,(r30)
12143  0000b2c0  8c41000c	lw	r1,12(r2)
12144  0000b2c4  08000004	j	L109_LF4
12145  0000b2c8  54000000	nop; delay slot nop
12146  0000b2cc          	L109_LF4:
12147  0000b2cc  8fa20000	lw	r2,0(r29)
12148  0000b2d0  8fdffff8	lw	r31,-8(r30)
12149  0000b2d4  001ee820	add	r29,r0,r30
12150  0000b2d8  8fdefffc	lw	r30,-4(r30)
12151  0000b2dc  4be00000	jr	r31
12152  0000b2e0  54000000	nop
12153  0000b2e4          	.endproc _AQueueObject
12154  0000b2e4          	.align 2
12155  0000b2e4          	.proc _AQueueLength
12156  0000b2e4          	.global _AQueueLength
12157  0000b2e4          	_AQueueLength:
12158                      ;  Function 'AQueueLength'; 0 bytes of locals, 1 regs to save.
12159  0000b2e4  afbefffc	sw	-4(r29),r30; push fp
12160  0000b2e8  001df020	add	r30,r0,r29; fp = sp
12161  0000b2ec  afbffff8	sw	-8(r29),r31; push ret addr
12162  0000b2f0  2fbd0010	subui	r29,r29,#16; alloc local storage
12163  0000b2f4  afa20000	sw	0(r29),r2
12164  0000b2f8  8fc20000	lw	r2,(r30)
12165  0000b2fc  8c410008	lw	r1,8(r2)
12166  0000b300  08000004	j	L110_LF4
12167  0000b304  54000000	nop; delay slot nop
12168  0000b308          	L110_LF4:
12169  0000b308  8fa20000	lw	r2,0(r29)
12170  0000b30c  8fdffff8	lw	r31,-8(r30)
12171  0000b310  001ee820	add	r29,r0,r30
12172  0000b314  8fdefffc	lw	r30,-4(r30)
12173  0000b318  4be00000	jr	r31
12174  0000b31c  54000000	nop
12175  0000b320          	.endproc _AQueueLength
12176  0000b320          	.align 2
12177  0000b320          	.proc _AQueueEmpty
12178  0000b320          	.global _AQueueEmpty
12179  0000b320          	_AQueueEmpty:
12180                      ;  Function 'AQueueEmpty'; 0 bytes of locals, 1 regs to save.
12181  0000b320  afbefffc	sw	-4(r29),r30; push fp
12182  0000b324  001df020	add	r30,r0,r29; fp = sp
12183  0000b328  afbffff8	sw	-8(r29),r31; push ret addr
12184  0000b32c  2fbd0010	subui	r29,r29,#16; alloc local storage
12185  0000b330  afa20000	sw	0(r29),r2
12186  0000b334  23bdfff8	addi	r29,r29,#-8
12187  0000b338  001d0820	add	r1,r0,r29
12188  0000b33c  8fc20000	lw	r2,(r30)
12189  0000b340  ac220000	sw	(r1),r2
12190  0000b344  0fffff9c	jal	_AQueueLength
12191  0000b348  54000000	nop; delay slot nop
12192  0000b34c  23bd0008	addi	r29,r29,#8
12193  0000b350  60220000	seqi	r2,r1,#0
12194  0000b354  00020820	add	r1,r0,r2
12195  0000b358  08000004	j	L111_LF4
12196  0000b35c  54000000	nop; delay slot nop
12197  0000b360          	L111_LF4:
12198  0000b360  8fa20000	lw	r2,0(r29)
12199  0000b364  8fdffff8	lw	r31,-8(r30)
12200  0000b368  001ee820	add	r29,r0,r30
12201  0000b36c  8fdefffc	lw	r30,-4(r30)
12202  0000b370  4be00000	jr	r31
12203  0000b374  54000000	nop
12204  0000b378          	.endproc _AQueueEmpty
12205  0000b378          	.data
12206  0001f129          	.align 2
12207  0001f12c          	.global _freeLinks
12208  0001f12c          	_freeLinks:
12209  0001f12c          	.space 12
12210  0001f138          	.align 2
12211  0001f138          	_linkpool_LF4:
12212  0001f138          	.space 6400
12213                      ; Compiled by GCC
12214  00020a38          	.text
12215  0000b378          	.align 2
12216  0000b378          	.proc _isspace
12217  0000b378          	.global _isspace
12218  0000b378          	_isspace:
12219                      ;  Function 'isspace'; 0 bytes of locals, 3 regs to save.
12220  0000b378  afbefffc	sw	-4(r29),r30; push fp
12221  0000b37c  001df020	add	r30,r0,r29; fp = sp
12222  0000b380  afbffff8	sw	-8(r29),r31; push ret addr
12223  0000b384  2fbd0018	subui	r29,r29,#24; alloc local storage
12224  0000b388  afa20000	sw	0(r29),r2
12225  0000b38c  afa30004	sw	4(r29),r3
12226  0000b390  afa40008	sw	8(r29),r4
12227  0000b394  83c20003	lb	r2,3(r30)
12228  0000b398  20010000	addi	r1,r0,#0
12229  0000b39c  304300ff	andi	r3,r2,#0x00ff
12230  0000b3a0  60640020	seqi	r4,r3,#32
12231  0000b3a4  1480002c	bnez	r4,L3_LF5
12232  0000b3a8  54000000	nop; delay slot nop
12233  0000b3ac  304300ff	andi	r3,r2,#0x00ff
12234  0000b3b0  60640009	seqi	r4,r3,#9
12235  0000b3b4  1480001c	bnez	r4,L3_LF5
12236  0000b3b8  54000000	nop; delay slot nop
12237  0000b3bc  304300ff	andi	r3,r2,#0x00ff
12238  0000b3c0  6064000a	seqi	r4,r3,#10
12239  0000b3c4  1480000c	bnez	r4,L3_LF5
12240  0000b3c8  54000000	nop; delay slot nop
12241  0000b3cc  08000008	j	L2_LF5
12242  0000b3d0  54000000	nop; delay slot nop
12243  0000b3d4          	L3_LF5:
12244  0000b3d4  20010001	addi	r1,r0,#1
12245  0000b3d8          	L2_LF5:
12246  0000b3d8  08000004	j	L1_LF5
12247  0000b3dc  54000000	nop; delay slot nop
12248  0000b3e0          	L1_LF5:
12249  0000b3e0  8fa20000	lw	r2,0(r29)
12250  0000b3e4  8fa30004	lw	r3,4(r29)
12251  0000b3e8  8fa40008	lw	r4,8(r29)
12252  0000b3ec  8fdffff8	lw	r31,-8(r30)
12253  0000b3f0  001ee820	add	r29,r0,r30
12254  0000b3f4  8fdefffc	lw	r30,-4(r30)
12255  0000b3f8  4be00000	jr	r31
12256  0000b3fc  54000000	nop
12257  0000b400          	.endproc _isspace
12258  0000b400          	.align 2
12259  0000b400          	.proc _isxdigit
12260  0000b400          	.global _isxdigit
12261  0000b400          	_isxdigit:
12262                      ;  Function 'isxdigit'; 0 bytes of locals, 3 regs to save.
12263  0000b400  afbefffc	sw	-4(r29),r30; push fp
12264  0000b404  001df020	add	r30,r0,r29; fp = sp
12265  0000b408  afbffff8	sw	-8(r29),r31; push ret addr
12266  0000b40c  2fbd0018	subui	r29,r29,#24; alloc local storage
12267  0000b410  afa20000	sw	0(r29),r2
12268  0000b414  afa30004	sw	4(r29),r3
12269  0000b418  afa40008	sw	8(r29),r4
12270  0000b41c  83c20003	lb	r2,3(r30)
12271  0000b420  20010000	addi	r1,r0,#0
12272  0000b424  304300ff	andi	r3,r2,#0x00ff
12273  0000b428  6c64002f	sgtui	r4,r3,#47
12274  0000b42c  1080001c	beqz	r4,L7_LF5
12275  0000b430  54000000	nop; delay slot nop
12276  0000b434  304300ff	andi	r3,r2,#0x00ff
12277  0000b438  70640039	sleui	r4,r3,#57
12278  0000b43c  1480005c	bnez	r4,L6_LF5
12279  0000b440  54000000	nop; delay slot nop
12280  0000b444  08000004	j	L7_LF5
12281  0000b448  54000000	nop; delay slot nop
12282  0000b44c          	L7_LF5:
12283  0000b44c  304300ff	andi	r3,r2,#0x00ff
12284  0000b450  6c640060	sgtui	r4,r3,#96
12285  0000b454  1080001c	beqz	r4,L8_LF5
12286  0000b458  54000000	nop; delay slot nop
12287  0000b45c  304300ff	andi	r3,r2,#0x00ff
12288  0000b460  70640066	sleui	r4,r3,#102
12289  0000b464  14800034	bnez	r4,L6_LF5
12290  0000b468  54000000	nop; delay slot nop
12291  0000b46c  08000004	j	L8_LF5
12292  0000b470  54000000	nop; delay slot nop
12293  0000b474          	L8_LF5:
12294  0000b474  304300ff	andi	r3,r2,#0x00ff
12295  0000b478  6c640040	sgtui	r4,r3,#64
12296  0000b47c  10800020	beqz	r4,L5_LF5
12297  0000b480  54000000	nop; delay slot nop
12298  0000b484  304300ff	andi	r3,r2,#0x00ff
12299  0000b488  70640041	sleui	r4,r3,#65
12300  0000b48c  1480000c	bnez	r4,L6_LF5
12301  0000b490  54000000	nop; delay slot nop
12302  0000b494  08000008	j	L5_LF5
12303  0000b498  54000000	nop; delay slot nop
12304  0000b49c          	L6_LF5:
12305  0000b49c  20010001	addi	r1,r0,#1
12306  0000b4a0          	L5_LF5:
12307  0000b4a0  08000004	j	L4_LF5
12308  0000b4a4  54000000	nop; delay slot nop
12309  0000b4a8          	L4_LF5:
12310  0000b4a8  8fa20000	lw	r2,0(r29)
12311  0000b4ac  8fa30004	lw	r3,4(r29)
12312  0000b4b0  8fa40008	lw	r4,8(r29)
12313  0000b4b4  8fdffff8	lw	r31,-8(r30)
12314  0000b4b8  001ee820	add	r29,r0,r30
12315  0000b4bc  8fdefffc	lw	r30,-4(r30)
12316  0000b4c0  4be00000	jr	r31
12317  0000b4c4  54000000	nop
12318  0000b4c8          	.endproc _isxdigit
12319  0000b4c8          	.align 2
12320  0000b4c8          	.proc _DisableIntrs
12321  0000b4c8          	.global _DisableIntrs
12322  0000b4c8          	_DisableIntrs:
12323                      ;  Function 'DisableIntrs'; 0 bytes of locals, 1 regs to save.
12324  0000b4c8  afbefffc	sw	-4(r29),r30; push fp
12325  0000b4cc  001df020	add	r30,r0,r29; fp = sp
12326  0000b4d0  afbffff8	sw	-8(r29),r31; push ret addr
12327  0000b4d4  2fbd0010	subui	r29,r29,#16; alloc local storage
12328  0000b4d8  afa20000	sw	0(r29),r2
12329  0000b4dc  23bdfff8	addi	r29,r29,#-8
12330  0000b4e0  001d0820	add	r1,r0,r29
12331  0000b4e4  2002000f	addi	r2,r0,#15
12332  0000b4e8  ac220000	sw	(r1),r2
12333  0000b4ec  0c006f8c	jal	_SetIntrs
12334  0000b4f0  54000000	nop; delay slot nop
12335  0000b4f4  23bd0008	addi	r29,r29,#8
12336  0000b4f8  00011020	add	r2,r0,r1
12337  0000b4fc  00020820	add	r1,r0,r2
12338  0000b500  08000004	j	L9_LF5
12339  0000b504  54000000	nop; delay slot nop
12340  0000b508          	L9_LF5:
12341  0000b508  8fa20000	lw	r2,0(r29)
12342  0000b50c  8fdffff8	lw	r31,-8(r30)
12343  0000b510  001ee820	add	r29,r0,r30
12344  0000b514  8fdefffc	lw	r30,-4(r30)
12345  0000b518  4be00000	jr	r31
12346  0000b51c  54000000	nop
12347  0000b520          	.endproc _DisableIntrs
12348  0000b520          	.align 2
12349  0000b520          	.proc _EnableIntrs
12350  0000b520          	.global _EnableIntrs
12351  0000b520          	_EnableIntrs:
12352                      ;  Function 'EnableIntrs'; 0 bytes of locals, 1 regs to save.
12353  0000b520  afbefffc	sw	-4(r29),r30; push fp
12354  0000b524  001df020	add	r30,r0,r29; fp = sp
12355  0000b528  afbffff8	sw	-8(r29),r31; push ret addr
12356  0000b52c  2fbd0010	subui	r29,r29,#16; alloc local storage
12357  0000b530  afa20000	sw	0(r29),r2
12358  0000b534  23bdfff8	addi	r29,r29,#-8
12359  0000b538  001d0820	add	r1,r0,r29
12360  0000b53c  20020000	addi	r2,r0,#0
12361  0000b540  ac220000	sw	(r1),r2
12362  0000b544  0c006f34	jal	_SetIntrs
12363  0000b548  54000000	nop; delay slot nop
12364  0000b54c  23bd0008	addi	r29,r29,#8
12365  0000b550  00011020	add	r2,r0,r1
12366  0000b554  00020820	add	r1,r0,r2
12367  0000b558  08000004	j	L10_LF5
12368  0000b55c  54000000	nop; delay slot nop
12369  0000b560          	L10_LF5:
12370  0000b560  8fa20000	lw	r2,0(r29)
12371  0000b564  8fdffff8	lw	r31,-8(r30)
12372  0000b568  001ee820	add	r29,r0,r30
12373  0000b56c  8fdefffc	lw	r30,-4(r30)
12374  0000b570  4be00000	jr	r31
12375  0000b574  54000000	nop
12376  0000b578          	.endproc _EnableIntrs
12377  0000b578          	.align 2
12378  0000b578          	.proc _RestoreIntrs
12379  0000b578          	.global _RestoreIntrs
12380  0000b578          	_RestoreIntrs:
12381                      ;  Function 'RestoreIntrs'; 0 bytes of locals, 2 regs to save.
12382  0000b578  afbefffc	sw	-4(r29),r30; push fp
12383  0000b57c  001df020	add	r30,r0,r29; fp = sp
12384  0000b580  afbffff8	sw	-8(r29),r31; push ret addr
12385  0000b584  2fbd0010	subui	r29,r29,#16; alloc local storage
12386  0000b588  afa20000	sw	0(r29),r2
12387  0000b58c  afa30004	sw	4(r29),r3
12388  0000b590  8fc20000	lw	r2,(r30)
12389  0000b594  23bdfff8	addi	r29,r29,#-8
12390  0000b598  001d0820	add	r1,r0,r29
12391  0000b59c  ac220000	sw	(r1),r2
12392  0000b5a0  0c006ed8	jal	_SetIntrs
12393  0000b5a4  54000000	nop; delay slot nop
12394  0000b5a8  23bd0008	addi	r29,r29,#8
12395  0000b5ac  00011820	add	r3,r0,r1
12396  0000b5b0  00030820	add	r1,r0,r3
12397  0000b5b4  08000004	j	L11_LF5
12398  0000b5b8  54000000	nop; delay slot nop
12399  0000b5bc          	L11_LF5:
12400  0000b5bc  8fa20000	lw	r2,0(r29)
12401  0000b5c0  8fa30004	lw	r3,4(r29)
12402  0000b5c4  8fdffff8	lw	r31,-8(r30)
12403  0000b5c8  001ee820	add	r29,r0,r30
12404  0000b5cc  8fdefffc	lw	r30,-4(r30)
12405  0000b5d0  4be00000	jr	r31
12406  0000b5d4  54000000	nop
12407  0000b5d8          	.endproc _RestoreIntrs
12408  0000b5d8          	.data
12409  00020a38          	.align 2
12410  00020a38          	LC0_LF5:
12411  00020a38  53796e63	.ascii "SynchModuleInit: Entering SynchModuleInit\n\000"
12411  00020a3c  684d6f64	
12411  00020a40  756c6549	
12411  00020a44  6e69743a	
12411  00020a48  20456e74	
12411  00020a4c  6572696e	
12411  00020a50  67205379	
12411  00020a54  6e63684d	
12411  00020a58  6f64756c	
12411  00020a5c  65496e69	
12411  00020a60  740a00  	
12412  00020a63          	.align 2
12413  00020a64          	LC1_LF5:
12414  00020a64  53796e63	.ascii "SynchModuleInit: Leaving SynchModuleInit\n\000"
12414  00020a68  684d6f64	
12414  00020a6c  756c6549	
12414  00020a70  6e69743a	
12414  00020a74  204c6561	
12414  00020a78  76696e67	
12414  00020a7c  2053796e	
12414  00020a80  63684d6f	
12414  00020a84  64756c65	
12414  00020a88  496e6974	
12414  00020a8c  0a00    	
12415  00020a8e          	.text
12416  0000b5d8          	.align 2
12417  0000b5d8          	.proc _SynchModuleInit
12418  0000b5d8          	.global _SynchModuleInit
12419  0000b5d8          	_SynchModuleInit:
12420                      ;  Function 'SynchModuleInit'; 8 bytes of locals, 3 regs to save.
12421  0000b5d8  afbefffc	sw	-4(r29),r30; push fp
12422  0000b5dc  001df020	add	r30,r0,r29; fp = sp
12423  0000b5e0  afbffff8	sw	-8(r29),r31; push ret addr
12424  0000b5e4  2fbd0020	subui	r29,r29,#32; alloc local storage
12425  0000b5e8  afa20000	sw	0(r29),r2
12426  0000b5ec  afa30004	sw	4(r29),r3
12427  0000b5f0  afa40008	sw	8(r29),r4
12428  0000b5f4  23bdfff8	addi	r29,r29,#-8
12429  0000b5f8  001d0820	add	r1,r0,r29
12430  0000b5fc  3c020001	lhi	r2,((_debugstr)>>16)&0xffff
12431  0000b600  244261cb	addui	r2,r2,(_debugstr)&0xffff
12432  0000b604  ac220000	sw	(r1),r2
12433  0000b608  20020070	addi	r2,r0,#112
12434  0000b60c  ac220004	sw	4(r1),r2
12435  0000b610  0fff8e40	jal	_dindex
12436  0000b614  54000000	nop; delay slot nop
12437  0000b618  23bd0008	addi	r29,r29,#8
12438  0000b61c  64220000	snei	r2,r1,#0
12439  0000b620  10400024	beqz	r2,L13_LF5
12440  0000b624  54000000	nop; delay slot nop
12441  0000b628  23bdfff8	addi	r29,r29,#-8
12442  0000b62c  001d0820	add	r1,r0,r29
12443  0000b630  3c020002	lhi	r2,((LC0_LF5)>>16)&0xffff
12444  0000b634  24420a38	addui	r2,r2,(LC0_LF5)&0xffff
12445  0000b638  ac220000	sw	(r1),r2
12446  0000b63c  0c006f3c	jal	_printf
12447  0000b640  54000000	nop; delay slot nop
12448  0000b644  23bd0008	addi	r29,r29,#8
12449  0000b648          	L13_LF5:
12450  0000b648  23bdfff8	addi	r29,r29,#-8
12451  0000b64c  001d0820	add	r1,r0,r29
12452  0000b650  3c020001	lhi	r2,((_debugstr)>>16)&0xffff
12453  0000b654  244261cb	addui	r2,r2,(_debugstr)&0xffff
12454  0000b658  ac220000	sw	(r1),r2
12455  0000b65c  2002002b	addi	r2,r0,#43
12456  0000b660  ac220004	sw	4(r1),r2
12457  0000b664  0fff8dec	jal	_dindex
12458  0000b668  54000000	nop; delay slot nop
12459  0000b66c  23bd0008	addi	r29,r29,#8
12460  0000b670  64220000	snei	r2,r1,#0
12461  0000b674  10400024	beqz	r2,L14_LF5
12462  0000b678  54000000	nop; delay slot nop
12463  0000b67c  23bdfff8	addi	r29,r29,#-8
12464  0000b680  001d0820	add	r1,r0,r29
12465  0000b684  3c020002	lhi	r2,((LC0_LF5)>>16)&0xffff
12466  0000b688  24420a38	addui	r2,r2,(LC0_LF5)&0xffff
12467  0000b68c  ac220000	sw	(r1),r2
12468  0000b690  0c006ee8	jal	_printf
12469  0000b694  54000000	nop; delay slot nop
12470  0000b698  23bd0008	addi	r29,r29,#8
12471  0000b69c          	L14_LF5:
12472  0000b69c  54000000	nop
12473  0000b6a0  20010000	addi	r1,r0,#0
12474  0000b6a4  afc1fff4	sw	-12(r30),r1
12475  0000b6a8          	L15_LF5:
12476  0000b6a8  8fc1fff4	lw	r1,-12(r30)
12477  0000b6ac  7022001f	slei	r2,r1,#31
12478  0000b6b0  1440000c	bnez	r2,L18_LF5
12479  0000b6b4  54000000	nop; delay slot nop
12480  0000b6b8  08000044	j	L16_LF5
12481  0000b6bc  54000000	nop; delay slot nop
12482  0000b6c0          	L18_LF5:
12483  0000b6c0  3c010002	lhi	r1,((_sems_LF5)>>16)&0xffff
12484  0000b6c4  242112bc	addui	r1,r1,(_sems_LF5)&0xffff
12485  0000b6c8  8fc2fff4	lw	r2,-12(r30)
12486  0000b6cc  00022020	add	r4,r0,r2
12487  0000b6d0  50830002	slli	r3,r4,#0x2
12488  0000b6d4  00621820	add	r3,r3,r2
12489  0000b6d8  50620002	slli	r2,r3,#0x2
12490  0000b6dc  00220820	add	r1,r1,r2
12491  0000b6e0  20020000	addi	r2,r0,#0
12492  0000b6e4  ac220010	sw	16(r1),r2
12493  0000b6e8          	L17_LF5:
12494  0000b6e8  8fc2fff4	lw	r2,-12(r30)
12495  0000b6ec  20410001	addi	r1,r2,#1
12496  0000b6f0  00011020	add	r2,r0,r1
12497  0000b6f4  afc2fff4	sw	-12(r30),r2
12498  0000b6f8  0bffffac	j	L15_LF5
12499  0000b6fc  54000000	nop; delay slot nop
12500  0000b700          	L16_LF5:
12501  0000b700  54000000	nop
12502  0000b704  20010000	addi	r1,r0,#0
12503  0000b708  afc1fff4	sw	-12(r30),r1
12504  0000b70c          	L19_LF5:
12505  0000b70c  8fc1fff4	lw	r1,-12(r30)
12506  0000b710  7022003f	slei	r2,r1,#63
12507  0000b714  1440000c	bnez	r2,L22_LF5
12508  0000b718  54000000	nop; delay slot nop
12509  0000b71c  0800006c	j	L20_LF5
12510  0000b720  54000000	nop; delay slot nop
12511  0000b724          	L22_LF5:
12512  0000b724  3c010002	lhi	r1,((_locks_LF5)>>16)&0xffff
12513  0000b728  2421153c	addui	r1,r1,(_locks_LF5)&0xffff
12514  0000b72c  8fc2fff4	lw	r2,-12(r30)
12515  0000b730  00022020	add	r4,r0,r2
12516  0000b734  50830002	slli	r3,r4,#0x2
12517  0000b738  00621820	add	r3,r3,r2
12518  0000b73c  50620002	slli	r2,r3,#0x2
12519  0000b740  00220820	add	r1,r1,r2
12520  0000b744  20020000	addi	r2,r0,#0
12521  0000b748  ac220010	sw	16(r1),r2
12522  0000b74c  3c010002	lhi	r1,((_locks_LF5)>>16)&0xffff
12523  0000b750  2421153c	addui	r1,r1,(_locks_LF5)&0xffff
12524  0000b754  8fc2fff4	lw	r2,-12(r30)
12525  0000b758  00022020	add	r4,r0,r2
12526  0000b75c  50830002	slli	r3,r4,#0x2
12527  0000b760  00621820	add	r3,r3,r2
12528  0000b764  50620002	slli	r2,r3,#0x2
12529  0000b768  00220820	add	r1,r1,r2
12530  0000b76c  20020000	addi	r2,r0,#0
12531  0000b770  ac220000	sw	(r1),r2
12532  0000b774          	L21_LF5:
12533  0000b774  8fc2fff4	lw	r2,-12(r30)
12534  0000b778  20410001	addi	r1,r2,#1
12535  0000b77c  00011020	add	r2,r0,r1
12536  0000b780  afc2fff4	sw	-12(r30),r2
12537  0000b784  0bffff84	j	L19_LF5
12538  0000b788  54000000	nop; delay slot nop
12539  0000b78c          	L20_LF5:
12540  0000b78c  54000000	nop
12541  0000b790  20010000	addi	r1,r0,#0
12542  0000b794  afc1fff4	sw	-12(r30),r1
12543  0000b798          	L23_LF5:
12544  0000b798  8fc1fff4	lw	r1,-12(r30)
12545  0000b79c  7022001f	slei	r2,r1,#31
12546  0000b7a0  1440000c	bnez	r2,L26_LF5
12547  0000b7a4  54000000	nop; delay slot nop
12548  0000b7a8  08000044	j	L24_LF5
12549  0000b7ac  54000000	nop; delay slot nop
12550  0000b7b0          	L26_LF5:
12551  0000b7b0  3c010002	lhi	r1,((_conds_LF5)>>16)&0xffff
12552  0000b7b4  24211a3c	addui	r1,r1,(_conds_LF5)&0xffff
12553  0000b7b8  8fc2fff4	lw	r2,-12(r30)
12554  0000b7bc  00022020	add	r4,r0,r2
12555  0000b7c0  50830002	slli	r3,r4,#0x2
12556  0000b7c4  00621820	add	r3,r3,r2
12557  0000b7c8  50620002	slli	r2,r3,#0x2
12558  0000b7cc  00220820	add	r1,r1,r2
12559  0000b7d0  20020000	addi	r2,r0,#0
12560  0000b7d4  ac220010	sw	16(r1),r2
12561  0000b7d8          	L25_LF5:
12562  0000b7d8  8fc2fff4	lw	r2,-12(r30)
12563  0000b7dc  20410001	addi	r1,r2,#1
12564  0000b7e0  00011020	add	r2,r0,r1
12565  0000b7e4  afc2fff4	sw	-12(r30),r2
12566  0000b7e8  0bffffac	j	L23_LF5
12567  0000b7ec  54000000	nop; delay slot nop
12568  0000b7f0          	L24_LF5:
12569  0000b7f0  23bdfff8	addi	r29,r29,#-8
12570  0000b7f4  001d0820	add	r1,r0,r29
12571  0000b7f8  3c020001	lhi	r2,((_debugstr)>>16)&0xffff
12572  0000b7fc  244261cb	addui	r2,r2,(_debugstr)&0xffff
12573  0000b800  ac220000	sw	(r1),r2
12574  0000b804  20020070	addi	r2,r0,#112
12575  0000b808  ac220004	sw	4(r1),r2
12576  0000b80c  0fff8c44	jal	_dindex
12577  0000b810  54000000	nop; delay slot nop
12578  0000b814  23bd0008	addi	r29,r29,#8
12579  0000b818  64220000	snei	r2,r1,#0
12580  0000b81c  10400024	beqz	r2,L27_LF5
12581  0000b820  54000000	nop; delay slot nop
12582  0000b824  23bdfff8	addi	r29,r29,#-8
12583  0000b828  001d0820	add	r1,r0,r29
12584  0000b82c  3c020002	lhi	r2,((LC1_LF5)>>16)&0xffff
12585  0000b830  24420a64	addui	r2,r2,(LC1_LF5)&0xffff
12586  0000b834  ac220000	sw	(r1),r2
12587  0000b838  0c006d40	jal	_printf
12588  0000b83c  54000000	nop; delay slot nop
12589  0000b840  23bd0008	addi	r29,r29,#8
12590  0000b844          	L27_LF5:
12591  0000b844  23bdfff8	addi	r29,r29,#-8
12592  0000b848  001d0820	add	r1,r0,r29
12593  0000b84c  3c020001	lhi	r2,((_debugstr)>>16)&0xffff
12594  0000b850  244261cb	addui	r2,r2,(_debugstr)&0xffff
12595  0000b854  ac220000	sw	(r1),r2
12596  0000b858  2002002b	addi	r2,r0,#43
12597  0000b85c  ac220004	sw	4(r1),r2
12598  0000b860  0fff8bf0	jal	_dindex
12599  0000b864  54000000	nop; delay slot nop
12600  0000b868  23bd0008	addi	r29,r29,#8
12601  0000b86c  64220000	snei	r2,r1,#0
12602  0000b870  10400024	beqz	r2,L28_LF5
12603  0000b874  54000000	nop; delay slot nop
12604  0000b878  23bdfff8	addi	r29,r29,#-8
12605  0000b87c  001d0820	add	r1,r0,r29
12606  0000b880  3c020002	lhi	r2,((LC1_LF5)>>16)&0xffff
12607  0000b884  24420a64	addui	r2,r2,(LC1_LF5)&0xffff
12608  0000b888  ac220000	sw	(r1),r2
12609  0000b88c  0c006cec	jal	_printf
12610  0000b890  54000000	nop; delay slot nop
12611  0000b894  23bd0008	addi	r29,r29,#8
12612  0000b898          	L28_LF5:
12613  0000b898  20010001	addi	r1,r0,#1
12614  0000b89c  08000004	j	L12_LF5
12615  0000b8a0  54000000	nop; delay slot nop
12616  0000b8a4          	L12_LF5:
12617  0000b8a4  8fa20000	lw	r2,0(r29)
12618  0000b8a8  8fa30004	lw	r3,4(r29)
12619  0000b8ac  8fa40008	lw	r4,8(r29)
12620  0000b8b0  8fdffff8	lw	r31,-8(r30)
12621  0000b8b4  001ee820	add	r29,r0,r30
12622  0000b8b8  8fdefffc	lw	r30,-4(r30)
12623  0000b8bc  4be00000	jr	r31
12624  0000b8c0  54000000	nop
12625  0000b8c4          	.endproc _SynchModuleInit
12626  0000b8c4          	.data
12627  00020a8e          	.align 2
12628  00020a90          	LC2_LF5:
12629  00020a90  46415441	.ascii "FATAL ERROR: could not initialize semaphore waiting queue in SemInit!\n"
12629  00020a94  4c204552	
12629  00020a98  524f523a	
12629  00020a9c  20636f75	
12629  00020aa0  6c64206e	
12629  00020aa4  6f742069	
12629  00020aa8  6e697469	
12629  00020aac  616c697a	
12629  00020ab0  65207365	
12629  00020ab4  6d617068	
12629  00020ab8  6f726520	
12629  00020abc  77616974	
12629  00020ac0  696e6720	
12629  00020ac4  71756575	
12629  00020ac8  6520696e	
12629  00020acc  2053656d	
12629  00020ad0  496e6974	
12629  00020ad4  210a    	
12630  00020ad6  00      	.ascii "\000"
12631  00020ad7          	.text
12632  0000b8c4          	.align 2
12633  0000b8c4          	.proc _SemInit
12634  0000b8c4          	.global _SemInit
12635  0000b8c4          	_SemInit:
12636                      ;  Function 'SemInit'; 0 bytes of locals, 1 regs to save.
12637  0000b8c4  afbefffc	sw	-4(r29),r30; push fp
12638  0000b8c8  001df020	add	r30,r0,r29; fp = sp
12639  0000b8cc  afbffff8	sw	-8(r29),r31; push ret addr
12640  0000b8d0  2fbd0010	subui	r29,r29,#16; alloc local storage
12641  0000b8d4  afa20000	sw	0(r29),r2
12642  0000b8d8  8fc10000	lw	r1,(r30)
12643  0000b8dc  64220000	snei	r2,r1,#0
12644  0000b8e0  14400010	bnez	r2,L30_LF5
12645  0000b8e4  54000000	nop; delay slot nop
12646  0000b8e8  2001ffff	addi	r1,r0,#-1
12647  0000b8ec  08000070	j	L29_LF5
12648  0000b8f0  54000000	nop; delay slot nop
12649  0000b8f4          	L30_LF5:
12650  0000b8f4  23bdfff8	addi	r29,r29,#-8
12651  0000b8f8  001d0820	add	r1,r0,r29
12652  0000b8fc  8fc20000	lw	r2,(r30)
12653  0000b900  ac220000	sw	(r1),r2
12654  0000b904  0fffe94c	jal	_AQueueInit
12655  0000b908  54000000	nop; delay slot nop
12656  0000b90c  23bd0008	addi	r29,r29,#8
12657  0000b910  64220001	snei	r2,r1,#1
12658  0000b914  10400030	beqz	r2,L31_LF5
12659  0000b918  54000000	nop; delay slot nop
12660  0000b91c  23bdfff8	addi	r29,r29,#-8
12661  0000b920  001d0820	add	r1,r0,r29
12662  0000b924  3c020002	lhi	r2,((LC2_LF5)>>16)&0xffff
12663  0000b928  24420a90	addui	r2,r2,(LC2_LF5)&0xffff
12664  0000b92c  ac220000	sw	(r1),r2
12665  0000b930  0c006c48	jal	_printf
12666  0000b934  54000000	nop; delay slot nop
12667  0000b938  23bd0008	addi	r29,r29,#8
12668  0000b93c  001d1020	add	r2,r0,r29
12669  0000b940  0c006c20	jal	_exitsim
12670  0000b944  54000000	nop; delay slot nop
12671  0000b948          	L31_LF5:
12672  0000b948  8fc10000	lw	r1,(r30)
12673  0000b94c  8fc20004	lw	r2,4(r30)
12674  0000b950  ac22000c	sw	12(r1),r2
12675  0000b954  20010001	addi	r1,r0,#1
12676  0000b958  08000004	j	L29_LF5
12677  0000b95c  54000000	nop; delay slot nop
12678  0000b960          	L29_LF5:
12679  0000b960  8fa20000	lw	r2,0(r29)
12680  0000b964  8fdffff8	lw	r31,-8(r30)
12681  0000b968  001ee820	add	r29,r0,r30
12682  0000b96c  8fdefffc	lw	r30,-4(r30)
12683  0000b970  4be00000	jr	r31
12684  0000b974  54000000	nop
12685  0000b978          	.endproc _SemInit
12686  0000b978          	.align 2
12687  0000b978          	.proc _SemCreate
12688  0000b978          	.global _SemCreate
12689  0000b978          	_SemCreate:
12690                      ;  Function 'SemCreate'; 8 bytes of locals, 4 regs to save.
12691  0000b978  afbefffc	sw	-4(r29),r30; push fp
12692  0000b97c  001df020	add	r30,r0,r29; fp = sp
12693  0000b980  afbffff8	sw	-8(r29),r31; push ret addr
12694  0000b984  2fbd0020	subui	r29,r29,#32; alloc local storage
12695  0000b988  afa20000	sw	0(r29),r2
12696  0000b98c  afa30004	sw	4(r29),r3
12697  0000b990  afa40008	sw	8(r29),r4
12698  0000b994  afa5000c	sw	12(r29),r5
12699  0000b998  001d1020	add	r2,r0,r29
12700  0000b99c  0c00626c	jal	_DisableIntrs
12701  0000b9a0  54000000	nop; delay slot nop
12702  0000b9a4  afc1fff0	sw	-16(r30),r1
12703  0000b9a8  20010000	addi	r1,r0,#0
12704  0000b9ac  afc1fff4	sw	-12(r30),r1
12705  0000b9b0          	L33_LF5:
12706  0000b9b0  8fc1fff4	lw	r1,-12(r30)
12707  0000b9b4  7022001f	slei	r2,r1,#31
12708  0000b9b8  1440000c	bnez	r2,L36_LF5
12709  0000b9bc  54000000	nop; delay slot nop
12710  0000b9c0  0800007c	j	L34_LF5
12711  0000b9c4  54000000	nop; delay slot nop
12712  0000b9c8          	L36_LF5:
12713  0000b9c8  8fc1fff4	lw	r1,-12(r30)
12714  0000b9cc  00011820	add	r3,r0,r1
12715  0000b9d0  50620002	slli	r2,r3,#0x2
12716  0000b9d4  00411020	add	r2,r2,r1
12717  0000b9d8  50410002	slli	r1,r2,#0x2
12718  0000b9dc  3c050002	lhi	r5,((_sems_LF5)>>16)&0xffff
12719  0000b9e0  24a512bc	addui	r5,r5,(_sems_LF5)&0xffff
12720  0000b9e4  00251020	add	r2,r1,r5
12721  0000b9e8  8c410010	lw	r1,16(r2)
12722  0000b9ec  64220000	snei	r2,r1,#0
12723  0000b9f0  14400034	bnez	r2,L35_LF5
12724  0000b9f4  54000000	nop; delay slot nop
12725  0000b9f8  3c010002	lhi	r1,((_sems_LF5)>>16)&0xffff
12726  0000b9fc  242112bc	addui	r1,r1,(_sems_LF5)&0xffff
12727  0000ba00  8fc2fff4	lw	r2,-12(r30)
12728  0000ba04  00022020	add	r4,r0,r2
12729  0000ba08  50830002	slli	r3,r4,#0x2
12730  0000ba0c  00621820	add	r3,r3,r2
12731  0000ba10  50620002	slli	r2,r3,#0x2
12732  0000ba14  00220820	add	r1,r1,r2
12733  0000ba18  20020001	addi	r2,r0,#1
12734  0000ba1c  ac220010	sw	16(r1),r2
12735  0000ba20  0800001c	j	L34_LF5
12736  0000ba24  54000000	nop; delay slot nop
12737  0000ba28          	L37_LF5:
12738  0000ba28          	L35_LF5:
12739  0000ba28  8fc2fff4	lw	r2,-12(r30)
12740  0000ba2c  20410001	addi	r1,r2,#1
12741  0000ba30  00011020	add	r2,r0,r1
12742  0000ba34  afc2fff4	sw	-12(r30),r2
12743  0000ba38  0bffff74	j	L33_LF5
12744  0000ba3c  54000000	nop; delay slot nop
12745  0000ba40          	L34_LF5:
12746  0000ba40  23bdfff8	addi	r29,r29,#-8
12747  0000ba44  001d0820	add	r1,r0,r29
12748  0000ba48  8fc2fff0	lw	r2,-16(r30)
12749  0000ba4c  ac220000	sw	(r1),r2
12750  0000ba50  0c006268	jal	_RestoreIntrs
12751  0000ba54  54000000	nop; delay slot nop
12752  0000ba58  23bd0008	addi	r29,r29,#8
12753  0000ba5c  8fc1fff4	lw	r1,-12(r30)
12754  0000ba60  60220020	seqi	r2,r1,#32
12755  0000ba64  10400010	beqz	r2,L38_LF5
12756  0000ba68  54000000	nop; delay slot nop
12757  0000ba6c  2001ffff	addi	r1,r0,#-1
12758  0000ba70  08000068	j	L32_LF5
12759  0000ba74  54000000	nop; delay slot nop
12760  0000ba78          	L38_LF5:
12761  0000ba78  23bdfff8	addi	r29,r29,#-8
12762  0000ba7c  001d0820	add	r1,r0,r29
12763  0000ba80  8fc2fff4	lw	r2,-12(r30)
12764  0000ba84  00022020	add	r4,r0,r2
12765  0000ba88  50830002	slli	r3,r4,#0x2
12766  0000ba8c  00621820	add	r3,r3,r2
12767  0000ba90  50620002	slli	r2,r3,#0x2
12768  0000ba94  3c030002	lhi	r3,((_sems_LF5)>>16)&0xffff
12769  0000ba98  246312bc	addui	r3,r3,(_sems_LF5)&0xffff
12770  0000ba9c  00621020	add	r2,r3,r2
12771  0000baa0  ac220000	sw	(r1),r2
12772  0000baa4  8fc20000	lw	r2,(r30)
12773  0000baa8  ac220004	sw	4(r1),r2
12774  0000baac  0ffffe14	jal	_SemInit
12775  0000bab0  54000000	nop; delay slot nop
12776  0000bab4  23bd0008	addi	r29,r29,#8
12777  0000bab8  64220001	snei	r2,r1,#1
12778  0000babc  10400010	beqz	r2,L39_LF5
12779  0000bac0  54000000	nop; delay slot nop
12780  0000bac4  2001ffff	addi	r1,r0,#-1
12781  0000bac8  08000010	j	L32_LF5
12782  0000bacc  54000000	nop; delay slot nop
12783  0000bad0          	L39_LF5:
12784  0000bad0  8fc1fff4	lw	r1,-12(r30)
12785  0000bad4  08000004	j	L32_LF5
12786  0000bad8  54000000	nop; delay slot nop
12787  0000badc          	L32_LF5:
12788  0000badc  8fa20000	lw	r2,0(r29)
12789  0000bae0  8fa30004	lw	r3,4(r29)
12790  0000bae4  8fa40008	lw	r4,8(r29)
12791  0000bae8  8fa5000c	lw	r5,12(r29)
12792  0000baec  8fdffff8	lw	r31,-8(r30)
12793  0000baf0  001ee820	add	r29,r0,r30
12794  0000baf4  8fdefffc	lw	r30,-4(r30)
12795  0000baf8  4be00000	jr	r31
12796  0000bafc  54000000	nop
12797  0000bb00          	.endproc _SemCreate
12798  0000bb00          	.data
12799  00020ad7          	.align 2
12800  00020ad8          	LC3_LF5:
12801  00020ad8  53656d57	.ascii "SemWait: Old interrupt value was 0x%x.\n\000"
12801  00020adc  6169743a	
12801  00020ae0  204f6c64	
12801  00020ae4  20696e74	
12801  00020ae8  65727275	
12801  00020aec  70742076	
12801  00020af0  616c7565	
12801  00020af4  20776173	
12801  00020af8  20307825	
12801  00020afc  782e0a00	
12802  00020b00          	.align 2
12803  00020b00          	LC4_LF5:
12804  00020b00  53656d57	.ascii "SemWait: Proc %d waiting on sem %d, count=%d.\n\000"
12804  00020b04  6169743a	
12804  00020b08  2050726f	
12804  00020b0c  63202564	
12804  00020b10  20776169	
12804  00020b14  74696e67	
12804  00020b18  206f6e20	
12804  00020b1c  73656d20	
12804  00020b20  25642c20	
12804  00020b24  636f756e	
12804  00020b28  743d2564	
12804  00020b2c  2e0a00  	
12805  00020b2f          	.align 2
12806  00020b30          	LC5_LF5:
12807  00020b30  53656d57	.ascii "SemWait: putting process %d to sleep\n\000"
12807  00020b34  6169743a	
12807  00020b38  20707574	
12807  00020b3c  74696e67	
12807  00020b40  2070726f	
12807  00020b44  63657373	
12807  00020b48  20256420	
12807  00020b4c  746f2073	
12807  00020b50  6c656570	
12807  00020b54  0a00    	
12808  00020b56          	.align 2
12809  00020b58          	LC6_LF5:
12810  00020b58  46415441	.ascii "FATAL ERROR: could not allocate link for semaphore queue in SemWait!\n"
12810  00020b5c  4c204552	
12810  00020b60  524f523a	
12810  00020b64  20636f75	
12810  00020b68  6c64206e	
12810  00020b6c  6f742061	
12810  00020b70  6c6c6f63	
12810  00020b74  61746520	
12810  00020b78  6c696e6b	
12810  00020b7c  20666f72	
12810  00020b80  2073656d	
12810  00020b84  6170686f	
12810  00020b88  72652071	
12810  00020b8c  75657565	
12810  00020b90  20696e20	
12810  00020b94  53656d57	
12810  00020b98  61697421	
12810  00020b9c  0a      	
12811  00020b9d  00      	.ascii "\000"
12812  00020b9e          	.align 2
12813  00020ba0          	LC7_LF5:
12814  00020ba0  46415441	.ascii "FATAL ERROR: could not insert new link into semaphore waiting queue in"
12814  00020ba4  4c204552	
12814  00020ba8  524f523a	
12814  00020bac  20636f75	
12814  00020bb0  6c64206e	
12814  00020bb4  6f742069	
12814  00020bb8  6e736572	
12814  00020bbc  74206e65	
12814  00020bc0  77206c69	
12814  00020bc4  6e6b2069	
12814  00020bc8  6e746f20	
12814  00020bcc  73656d61	
12814  00020bd0  70686f72	
12814  00020bd4  65207761	
12814  00020bd8  6974696e	
12814  00020bdc  67207175	
12814  00020be0  65756520	
12814  00020be4  696e    	
12815  00020be6  2053656d	.ascii " SemWait!\n\000"
12815  00020bea  57616974	
12815  00020bee  210a00  	
12816  00020bf1          	.align 2
12817  00020bf4          	LC8_LF5:
12818  00020bf4  53656d57	.ascii "SemWait: Proc %d granted permission to continue by sem %d\n\000"
12818  00020bf8  6169743a	
12818  00020bfc  2050726f	
12818  00020c00  63202564	
12818  00020c04  20677261	
12818  00020c08  6e746564	
12818  00020c0c  20706572	
12818  00020c10  6d697373	
12818  00020c14  696f6e20	
12818  00020c18  746f2063	
12818  00020c1c  6f6e7469	
12818  00020c20  6e756520	
12818  00020c24  62792073	
12818  00020c28  656d2025	
12818  00020c2c  640a00  	
12819  00020c2f          	.text
12820  0000bb00          	.align 2
12821  0000bb00          	.proc _SemWait
12822  0000bb00          	.global _SemWait
12823  0000bb00          	_SemWait:
12824                      ;  Function 'SemWait'; 8 bytes of locals, 3 regs to save.
12825  0000bb00  afbefffc	sw	-4(r29),r30; push fp
12826  0000bb04  001df020	add	r30,r0,r29; fp = sp
12827  0000bb08  afbffff8	sw	-8(r29),r31; push ret addr
12828  0000bb0c  2fbd0020	subui	r29,r29,#32; alloc local storage
12829  0000bb10  afa20000	sw	0(r29),r2
12830  0000bb14  afa30004	sw	4(r29),r3
12831  0000bb18  afa40008	sw	8(r29),r4
12832  0000bb1c  8fc10000	lw	r1,(r30)
12833  0000bb20  64220000	snei	r2,r1,#0
12834  0000bb24  14400010	bnez	r2,L41_LF5
12835  0000bb28  54000000	nop; delay slot nop
12836  0000bb2c  2001ffff	addi	r1,r0,#-1
12837  0000bb30  08000538	j	L40_LF5
12838  0000bb34  54000000	nop; delay slot nop
12839  0000bb38          	L41_LF5:
12840  0000bb38  001d1020	add	r2,r0,r29
12841  0000bb3c  0c0060cc	jal	_DisableIntrs
12842  0000bb40  54000000	nop; delay slot nop
12843  0000bb44  afc1fff0	sw	-16(r30),r1
12844  0000bb48  23bdfff8	addi	r29,r29,#-8
12845  0000bb4c  001d0820	add	r1,r0,r29
12846  0000bb50  3c020001	lhi	r2,((_debugstr)>>16)&0xffff
12847  0000bb54  244261cb	addui	r2,r2,(_debugstr)&0xffff
12848  0000bb58  ac220000	sw	(r1),r2
12849  0000bb5c  20020049	addi	r2,r0,#73
12850  0000bb60  ac220004	sw	4(r1),r2
12851  0000bb64  0fff88ec	jal	_dindex
12852  0000bb68  54000000	nop; delay slot nop
12853  0000bb6c  23bd0008	addi	r29,r29,#8
12854  0000bb70  64220000	snei	r2,r1,#0
12855  0000bb74  1040002c	beqz	r2,L42_LF5
12856  0000bb78  54000000	nop; delay slot nop
12857  0000bb7c  23bdfff8	addi	r29,r29,#-8
12858  0000bb80  001d0820	add	r1,r0,r29
12859  0000bb84  3c020002	lhi	r2,((LC3_LF5)>>16)&0xffff
12860  0000bb88  24420ad8	addui	r2,r2,(LC3_LF5)&0xffff
12861  0000bb8c  ac220000	sw	(r1),r2
12862  0000bb90  8fc2fff0	lw	r2,-16(r30)
12863  0000bb94  ac220004	sw	4(r1),r2
12864  0000bb98  0c0069e0	jal	_printf
12865  0000bb9c  54000000	nop; delay slot nop
12866  0000bba0  23bd0008	addi	r29,r29,#8
12867  0000bba4          	L42_LF5:
12868  0000bba4  23bdfff8	addi	r29,r29,#-8
12869  0000bba8  001d0820	add	r1,r0,r29
12870  0000bbac  3c020001	lhi	r2,((_debugstr)>>16)&0xffff
12871  0000bbb0  244261cb	addui	r2,r2,(_debugstr)&0xffff
12872  0000bbb4  ac220000	sw	(r1),r2
12873  0000bbb8  2002002b	addi	r2,r0,#43
12874  0000bbbc  ac220004	sw	4(r1),r2
12875  0000bbc0  0fff8890	jal	_dindex
12876  0000bbc4  54000000	nop; delay slot nop
12877  0000bbc8  23bd0008	addi	r29,r29,#8
12878  0000bbcc  64220000	snei	r2,r1,#0
12879  0000bbd0  1040002c	beqz	r2,L43_LF5
12880  0000bbd4  54000000	nop; delay slot nop
12881  0000bbd8  23bdfff8	addi	r29,r29,#-8
12882  0000bbdc  001d0820	add	r1,r0,r29
12883  0000bbe0  3c020002	lhi	r2,((LC3_LF5)>>16)&0xffff
12884  0000bbe4  24420ad8	addui	r2,r2,(LC3_LF5)&0xffff
12885  0000bbe8  ac220000	sw	(r1),r2
12886  0000bbec  8fc2fff0	lw	r2,-16(r30)
12887  0000bbf0  ac220004	sw	4(r1),r2
12888  0000bbf4  0c006984	jal	_printf
12889  0000bbf8  54000000	nop; delay slot nop
12890  0000bbfc  23bd0008	addi	r29,r29,#8
12891  0000bc00          	L43_LF5:
12892  0000bc00  23bdfff8	addi	r29,r29,#-8
12893  0000bc04  001d0820	add	r1,r0,r29
12894  0000bc08  3c020001	lhi	r2,((_debugstr)>>16)&0xffff
12895  0000bc0c  244261cb	addui	r2,r2,(_debugstr)&0xffff
12896  0000bc10  ac220000	sw	(r1),r2
12897  0000bc14  20020073	addi	r2,r0,#115
12898  0000bc18  ac220004	sw	4(r1),r2
12899  0000bc1c  0fff8834	jal	_dindex
12900  0000bc20  54000000	nop; delay slot nop
12901  0000bc24  23bd0008	addi	r29,r29,#8
12902  0000bc28  64220000	snei	r2,r1,#0
12903  0000bc2c  10400074	beqz	r2,L44_LF5
12904  0000bc30  54000000	nop; delay slot nop
12905  0000bc34  001d1020	add	r2,r0,r29
12906  0000bc38  0fffdae4	jal	_GetCurrentPid
12907  0000bc3c  54000000	nop; delay slot nop
12908  0000bc40  00011020	add	r2,r0,r1
12909  0000bc44  23bdfff0	addi	r29,r29,#-16
12910  0000bc48  001d0820	add	r1,r0,r29
12911  0000bc4c  3c030002	lhi	r3,((LC4_LF5)>>16)&0xffff
12912  0000bc50  24630b00	addui	r3,r3,(LC4_LF5)&0xffff
12913  0000bc54  ac230000	sw	(r1),r3
12914  0000bc58  ac220004	sw	4(r1),r2
12915  0000bc5c  8fc30000	lw	r3,(r30)
12916  0000bc60  3c040002	lhi	r4,((_sems_LF5)>>16)&0xffff
12917  0000bc64  248412bc	addui	r4,r4,(_sems_LF5)&0xffff
12918  0000bc68  00641022	sub	r2,r3,r4
12919  0000bc6c  3c03cccc	lhi	r3,#-13108
12920  0000bc70  2463cccd	addui	r3,r3,#52429
12921  0000bc74  00400035	movi2fp	f0,r2
12922  0000bc78  00600835	movi2fp	f1,r3
12923  0000bc7c  0401000e	mult	f0,f0,f1
12924  0000bc80  00001034	movfp2i	r2,f0
12925  0000bc84  5c430002	srai	r3,r2,#0x2
12926  0000bc88  ac230008	sw	8(r1),r3
12927  0000bc8c  8fc20000	lw	r2,(r30)
12928  0000bc90  8c43000c	lw	r3,12(r2)
12929  0000bc94  ac23000c	sw	12(r1),r3
12930  0000bc98  0c0068e0	jal	_printf
12931  0000bc9c  54000000	nop; delay slot nop
12932  0000bca0  23bd0010	addi	r29,r29,#16
12933  0000bca4          	L44_LF5:
12934  0000bca4  23bdfff8	addi	r29,r29,#-8
12935  0000bca8  001d0820	add	r1,r0,r29
12936  0000bcac  3c020001	lhi	r2,((_debugstr)>>16)&0xffff
12937  0000bcb0  244261cb	addui	r2,r2,(_debugstr)&0xffff
12938  0000bcb4  ac220000	sw	(r1),r2
12939  0000bcb8  2002002b	addi	r2,r0,#43
12940  0000bcbc  ac220004	sw	4(r1),r2
12941  0000bcc0  0fff8790	jal	_dindex
12942  0000bcc4  54000000	nop; delay slot nop
12943  0000bcc8  23bd0008	addi	r29,r29,#8
12944  0000bccc  64220000	snei	r2,r1,#0
12945  0000bcd0  10400074	beqz	r2,L45_LF5
12946  0000bcd4  54000000	nop; delay slot nop
12947  0000bcd8  001d1020	add	r2,r0,r29
12948  0000bcdc  0fffda40	jal	_GetCurrentPid
12949  0000bce0  54000000	nop; delay slot nop
12950  0000bce4  00011020	add	r2,r0,r1
12951  0000bce8  23bdfff0	addi	r29,r29,#-16
12952  0000bcec  001d0820	add	r1,r0,r29
12953  0000bcf0  3c030002	lhi	r3,((LC4_LF5)>>16)&0xffff
12954  0000bcf4  24630b00	addui	r3,r3,(LC4_LF5)&0xffff
12955  0000bcf8  ac230000	sw	(r1),r3
12956  0000bcfc  ac220004	sw	4(r1),r2
12957  0000bd00  8fc30000	lw	r3,(r30)
12958  0000bd04  3c040002	lhi	r4,((_sems_LF5)>>16)&0xffff
12959  0000bd08  248412bc	addui	r4,r4,(_sems_LF5)&0xffff
12960  0000bd0c  00641022	sub	r2,r3,r4
12961  0000bd10  3c03cccc	lhi	r3,#-13108
12962  0000bd14  2463cccd	addui	r3,r3,#52429
12963  0000bd18  00400035	movi2fp	f0,r2
12964  0000bd1c  00600835	movi2fp	f1,r3
12965  0000bd20  0401000e	mult	f0,f0,f1
12966  0000bd24  00001034	movfp2i	r2,f0
12967  0000bd28  5c430002	srai	r3,r2,#0x2
12968  0000bd2c  ac230008	sw	8(r1),r3
12969  0000bd30  8fc20000	lw	r2,(r30)
12970  0000bd34  8c43000c	lw	r3,12(r2)
12971  0000bd38  ac23000c	sw	12(r1),r3
12972  0000bd3c  0c00683c	jal	_printf
12973  0000bd40  54000000	nop; delay slot nop
12974  0000bd44  23bd0010	addi	r29,r29,#16
12975  0000bd48          	L45_LF5:
12976  0000bd48  8fc10000	lw	r1,(r30)
12977  0000bd4c  8c22000c	lw	r2,12(r1)
12978  0000bd50  70410000	slei	r1,r2,#0
12979  0000bd54  102001a0	beqz	r1,L46_LF5
12980  0000bd58  54000000	nop; delay slot nop
12981  0000bd5c  23bdfff8	addi	r29,r29,#-8
12982  0000bd60  001d0820	add	r1,r0,r29
12983  0000bd64  3c020001	lhi	r2,((_debugstr)>>16)&0xffff
12984  0000bd68  244261cb	addui	r2,r2,(_debugstr)&0xffff
12985  0000bd6c  ac220000	sw	(r1),r2
12986  0000bd70  20020073	addi	r2,r0,#115
12987  0000bd74  ac220004	sw	4(r1),r2
12988  0000bd78  0fff86d8	jal	_dindex
12989  0000bd7c  54000000	nop; delay slot nop
12990  0000bd80  23bd0008	addi	r29,r29,#8
12991  0000bd84  64220000	snei	r2,r1,#0
12992  0000bd88  10400034	beqz	r2,L47_LF5
12993  0000bd8c  54000000	nop; delay slot nop
12994  0000bd90  001d1020	add	r2,r0,r29
12995  0000bd94  0fffd988	jal	_GetCurrentPid
12996  0000bd98  54000000	nop; delay slot nop
12997  0000bd9c  23bdfff8	addi	r29,r29,#-8
12998  0000bda0  001d1020	add	r2,r0,r29
12999  0000bda4  3c030002	lhi	r3,((LC5_LF5)>>16)&0xffff
13000  0000bda8  24630b30	addui	r3,r3,(LC5_LF5)&0xffff
13001  0000bdac  ac430000	sw	(r2),r3
13002  0000bdb0  ac410004	sw	4(r2),r1
13003  0000bdb4  0c0067c4	jal	_printf
13004  0000bdb8  54000000	nop; delay slot nop
13005  0000bdbc  23bd0008	addi	r29,r29,#8
13006  0000bdc0          	L47_LF5:
13007  0000bdc0  23bdfff8	addi	r29,r29,#-8
13008  0000bdc4  001d0820	add	r1,r0,r29
13009  0000bdc8  3c020001	lhi	r2,((_debugstr)>>16)&0xffff
13010  0000bdcc  244261cb	addui	r2,r2,(_debugstr)&0xffff
13011  0000bdd0  ac220000	sw	(r1),r2
13012  0000bdd4  2002002b	addi	r2,r0,#43
13013  0000bdd8  ac220004	sw	4(r1),r2
13014  0000bddc  0fff8674	jal	_dindex
13015  0000bde0  54000000	nop; delay slot nop
13016  0000bde4  23bd0008	addi	r29,r29,#8
13017  0000bde8  64220000	snei	r2,r1,#0
13018  0000bdec  10400034	beqz	r2,L48_LF5
13019  0000bdf0  54000000	nop; delay slot nop
13020  0000bdf4  001d1020	add	r2,r0,r29
13021  0000bdf8  0fffd924	jal	_GetCurrentPid
13022  0000bdfc  54000000	nop; delay slot nop
13023  0000be00  23bdfff8	addi	r29,r29,#-8
13024  0000be04  001d1020	add	r2,r0,r29
13025  0000be08  3c030002	lhi	r3,((LC5_LF5)>>16)&0xffff
13026  0000be0c  24630b30	addui	r3,r3,(LC5_LF5)&0xffff
13027  0000be10  ac430000	sw	(r2),r3
13028  0000be14  ac410004	sw	4(r2),r1
13029  0000be18  0c006760	jal	_printf
13030  0000be1c  54000000	nop; delay slot nop
13031  0000be20  23bd0008	addi	r29,r29,#8
13032  0000be24          	L48_LF5:
13033  0000be24  23bdfff8	addi	r29,r29,#-8
13034  0000be28  001d0820	add	r1,r0,r29
13035  0000be2c  3c020001	lhi	r2,((_currentPCB)>>16)&0xffff
13036  0000be30  24426294	addui	r2,r2,(_currentPCB)&0xffff
13037  0000be34  8c430000	lw	r3,(r2)
13038  0000be38  ac230000	sw	(r1),r3
13039  0000be3c  0fffe48c	jal	_AQueueAllocLink
13040  0000be40  54000000	nop; delay slot nop
13041  0000be44  23bd0008	addi	r29,r29,#8
13042  0000be48  afc1fff4	sw	-12(r30),r1
13043  0000be4c  8fc1fff4	lw	r1,-12(r30)
13044  0000be50  64220000	snei	r2,r1,#0
13045  0000be54  14400030	bnez	r2,L49_LF5
13046  0000be58  54000000	nop; delay slot nop
13047  0000be5c  23bdfff8	addi	r29,r29,#-8
13048  0000be60  001d0820	add	r1,r0,r29
13049  0000be64  3c020002	lhi	r2,((LC6_LF5)>>16)&0xffff
13050  0000be68  24420b58	addui	r2,r2,(LC6_LF5)&0xffff
13051  0000be6c  ac220000	sw	(r1),r2
13052  0000be70  0c006708	jal	_printf
13053  0000be74  54000000	nop; delay slot nop
13054  0000be78  23bd0008	addi	r29,r29,#8
13055  0000be7c  001d1020	add	r2,r0,r29
13056  0000be80  0c0066e0	jal	_exitsim
13057  0000be84  54000000	nop; delay slot nop
13058  0000be88          	L49_LF5:
13059  0000be88  23bdfff8	addi	r29,r29,#-8
13060  0000be8c  001d0820	add	r1,r0,r29
13061  0000be90  8fc20000	lw	r2,(r30)
13062  0000be94  ac220000	sw	(r1),r2
13063  0000be98  8fc2fff4	lw	r2,-12(r30)
13064  0000be9c  ac220004	sw	4(r1),r2
13065  0000bea0  0ffff254	jal	_AQueueInsertLast
13066  0000bea4  54000000	nop; delay slot nop
13067  0000bea8  23bd0008	addi	r29,r29,#8
13068  0000beac  64220001	snei	r2,r1,#1
13069  0000beb0  10400030	beqz	r2,L50_LF5
13070  0000beb4  54000000	nop; delay slot nop
13071  0000beb8  23bdfff8	addi	r29,r29,#-8
13072  0000bebc  001d0820	add	r1,r0,r29
13073  0000bec0  3c020002	lhi	r2,((LC7_LF5)>>16)&0xffff
13074  0000bec4  24420ba0	addui	r2,r2,(LC7_LF5)&0xffff
13075  0000bec8  ac220000	sw	(r1),r2
13076  0000becc  0c0066ac	jal	_printf
13077  0000bed0  54000000	nop; delay slot nop
13078  0000bed4  23bd0008	addi	r29,r29,#8
13079  0000bed8  001d1020	add	r2,r0,r29
13080  0000bedc  0c006684	jal	_exitsim
13081  0000bee0  54000000	nop; delay slot nop
13082  0000bee4          	L50_LF5:
13083  0000bee4  001d1020	add	r2,r0,r29
13084  0000bee8  0c0065dc	jal	_ProcessSleep
13085  0000beec  54000000	nop; delay slot nop
13086  0000bef0  08000150	j	L51_LF5
13087  0000bef4  54000000	nop; delay slot nop
13088  0000bef8          	L46_LF5:
13089  0000bef8  8fc20000	lw	r2,(r30)
13090  0000befc  8fc10000	lw	r1,(r30)
13091  0000bf00  8fc20000	lw	r2,(r30)
13092  0000bf04  8c43000c	lw	r3,12(r2)
13093  0000bf08  2062ffff	addi	r2,r3,#-1
13094  0000bf0c  00021820	add	r3,r0,r2
13095  0000bf10  ac23000c	sw	12(r1),r3
13096  0000bf14  23bdfff8	addi	r29,r29,#-8
13097  0000bf18  001d0820	add	r1,r0,r29
13098  0000bf1c  3c020001	lhi	r2,((_debugstr)>>16)&0xffff
13099  0000bf20  244261cb	addui	r2,r2,(_debugstr)&0xffff
13100  0000bf24  ac220000	sw	(r1),r2
13101  0000bf28  20020073	addi	r2,r0,#115
13102  0000bf2c  ac220004	sw	4(r1),r2
13103  0000bf30  0fff8520	jal	_dindex
13104  0000bf34  54000000	nop; delay slot nop
13105  0000bf38  23bd0008	addi	r29,r29,#8
13106  0000bf3c  64220000	snei	r2,r1,#0
13107  0000bf40  10400068	beqz	r2,L52_LF5
13108  0000bf44  54000000	nop; delay slot nop
13109  0000bf48  001d1020	add	r2,r0,r29
13110  0000bf4c  0fffd7d0	jal	_GetCurrentPid
13111  0000bf50  54000000	nop; delay slot nop
13112  0000bf54  00011020	add	r2,r0,r1
13113  0000bf58  23bdfff0	addi	r29,r29,#-16
13114  0000bf5c  001d0820	add	r1,r0,r29
13115  0000bf60  3c030002	lhi	r3,((LC8_LF5)>>16)&0xffff
13116  0000bf64  24630bf4	addui	r3,r3,(LC8_LF5)&0xffff
13117  0000bf68  ac230000	sw	(r1),r3
13118  0000bf6c  ac220004	sw	4(r1),r2
13119  0000bf70  8fc30000	lw	r3,(r30)
13120  0000bf74  3c040002	lhi	r4,((_sems_LF5)>>16)&0xffff
13121  0000bf78  248412bc	addui	r4,r4,(_sems_LF5)&0xffff
13122  0000bf7c  00641022	sub	r2,r3,r4
13123  0000bf80  3c03cccc	lhi	r3,#-13108
13124  0000bf84  2463cccd	addui	r3,r3,#52429
13125  0000bf88  00400035	movi2fp	f0,r2
13126  0000bf8c  00600835	movi2fp	f1,r3
13127  0000bf90  0401000e	mult	f0,f0,f1
13128  0000bf94  00001034	movfp2i	r2,f0
13129  0000bf98  5c430002	srai	r3,r2,#0x2
13130  0000bf9c  ac230008	sw	8(r1),r3
13131  0000bfa0  0c0065d8	jal	_printf
13132  0000bfa4  54000000	nop; delay slot nop
13133  0000bfa8  23bd0010	addi	r29,r29,#16
13134  0000bfac          	L52_LF5:
13135  0000bfac  23bdfff8	addi	r29,r29,#-8
13136  0000bfb0  001d0820	add	r1,r0,r29
13137  0000bfb4  3c020001	lhi	r2,((_debugstr)>>16)&0xffff
13138  0000bfb8  244261cb	addui	r2,r2,(_debugstr)&0xffff
13139  0000bfbc  ac220000	sw	(r1),r2
13140  0000bfc0  2002002b	addi	r2,r0,#43
13141  0000bfc4  ac220004	sw	4(r1),r2
13142  0000bfc8  0fff8488	jal	_dindex
13143  0000bfcc  54000000	nop; delay slot nop
13144  0000bfd0  23bd0008	addi	r29,r29,#8
13145  0000bfd4  64220000	snei	r2,r1,#0
13146  0000bfd8  10400068	beqz	r2,L51_LF5
13147  0000bfdc  54000000	nop; delay slot nop
13148  0000bfe0  001d1020	add	r2,r0,r29
13149  0000bfe4  0fffd738	jal	_GetCurrentPid
13150  0000bfe8  54000000	nop; delay slot nop
13151  0000bfec  00011020	add	r2,r0,r1
13152  0000bff0  23bdfff0	addi	r29,r29,#-16
13153  0000bff4  001d0820	add	r1,r0,r29
13154  0000bff8  3c030002	lhi	r3,((LC8_LF5)>>16)&0xffff
13155  0000bffc  24630bf4	addui	r3,r3,(LC8_LF5)&0xffff
13156  0000c000  ac230000	sw	(r1),r3
13157  0000c004  ac220004	sw	4(r1),r2
13158  0000c008  8fc30000	lw	r3,(r30)
13159  0000c00c  3c040002	lhi	r4,((_sems_LF5)>>16)&0xffff
13160  0000c010  248412bc	addui	r4,r4,(_sems_LF5)&0xffff
13161  0000c014  00641022	sub	r2,r3,r4
13162  0000c018  3c03cccc	lhi	r3,#-13108
13163  0000c01c  2463cccd	addui	r3,r3,#52429
13164  0000c020  00400035	movi2fp	f0,r2
13165  0000c024  00600835	movi2fp	f1,r3
13166  0000c028  0401000e	mult	f0,f0,f1
13167  0000c02c  00001034	movfp2i	r2,f0
13168  0000c030  5c430002	srai	r3,r2,#0x2
13169  0000c034  ac230008	sw	8(r1),r3
13170  0000c038  0c006540	jal	_printf
13171  0000c03c  54000000	nop; delay slot nop
13172  0000c040  23bd0010	addi	r29,r29,#16
13173  0000c044          	L53_LF5:
13174  0000c044          	L51_LF5:
13175  0000c044  23bdfff8	addi	r29,r29,#-8
13176  0000c048  001d0820	add	r1,r0,r29
13177  0000c04c  8fc2fff0	lw	r2,-16(r30)
13178  0000c050  ac220000	sw	(r1),r2
13179  0000c054  0c005c64	jal	_RestoreIntrs
13180  0000c058  54000000	nop; delay slot nop
13181  0000c05c  23bd0008	addi	r29,r29,#8
13182  0000c060  20010001	addi	r1,r0,#1
13183  0000c064  08000004	j	L40_LF5
13184  0000c068  54000000	nop; delay slot nop
13185  0000c06c          	L40_LF5:
13186  0000c06c  8fa20000	lw	r2,0(r29)
13187  0000c070  8fa30004	lw	r3,4(r29)
13188  0000c074  8fa40008	lw	r4,8(r29)
13189  0000c078  8fdffff8	lw	r31,-8(r30)
13190  0000c07c  001ee820	add	r29,r0,r30
13191  0000c080  8fdefffc	lw	r30,-4(r30)
13192  0000c084  4be00000	jr	r31
13193  0000c088  54000000	nop
13194  0000c08c          	.endproc _SemWait
13195  0000c08c          	.align 2
13196  0000c08c          	.proc _SemHandleWait
13197  0000c08c          	.global _SemHandleWait
13198  0000c08c          	_SemHandleWait:
13199                      ;  Function 'SemHandleWait'; 0 bytes of locals, 4 regs to save.
13200  0000c08c  afbefffc	sw	-4(r29),r30; push fp
13201  0000c090  001df020	add	r30,r0,r29; fp = sp
13202  0000c094  afbffff8	sw	-8(r29),r31; push ret addr
13203  0000c098  2fbd0018	subui	r29,r29,#24; alloc local storage
13204  0000c09c  afa20000	sw	0(r29),r2
13205  0000c0a0  afa30004	sw	4(r29),r3
13206  0000c0a4  afa40008	sw	8(r29),r4
13207  0000c0a8  afa5000c	sw	12(r29),r5
13208  0000c0ac  8fc10000	lw	r1,(r30)
13209  0000c0b0  68220000	slti	r2,r1,#0
13210  0000c0b4  10400010	beqz	r2,L55_LF5
13211  0000c0b8  54000000	nop; delay slot nop
13212  0000c0bc  2001ffff	addi	r1,r0,#-1
13213  0000c0c0  080000a4	j	L54_LF5
13214  0000c0c4  54000000	nop; delay slot nop
13215  0000c0c8          	L55_LF5:
13216  0000c0c8  8fc10000	lw	r1,(r30)
13217  0000c0cc  6c22001f	sgti	r2,r1,#31
13218  0000c0d0  10400010	beqz	r2,L56_LF5
13219  0000c0d4  54000000	nop; delay slot nop
13220  0000c0d8  2001ffff	addi	r1,r0,#-1
13221  0000c0dc  08000088	j	L54_LF5
13222  0000c0e0  54000000	nop; delay slot nop
13223  0000c0e4          	L56_LF5:
13224  0000c0e4  8fc10000	lw	r1,(r30)
13225  0000c0e8  00011820	add	r3,r0,r1
13226  0000c0ec  50620002	slli	r2,r3,#0x2
13227  0000c0f0  00411020	add	r2,r2,r1
13228  0000c0f4  50410002	slli	r1,r2,#0x2
13229  0000c0f8  3c050002	lhi	r5,((_sems_LF5)>>16)&0xffff
13230  0000c0fc  24a512bc	addui	r5,r5,(_sems_LF5)&0xffff
13231  0000c100  00251020	add	r2,r1,r5
13232  0000c104  8c410010	lw	r1,16(r2)
13233  0000c108  64220000	snei	r2,r1,#0
13234  0000c10c  14400010	bnez	r2,L57_LF5
13235  0000c110  54000000	nop; delay slot nop
13236  0000c114  2001ffff	addi	r1,r0,#-1
13237  0000c118  0800004c	j	L54_LF5
13238  0000c11c  54000000	nop; delay slot nop
13239  0000c120          	L57_LF5:
13240  0000c120  23bdfff8	addi	r29,r29,#-8
13241  0000c124  001d0820	add	r1,r0,r29
13242  0000c128  8fc20000	lw	r2,(r30)
13243  0000c12c  00022020	add	r4,r0,r2
13244  0000c130  50830002	slli	r3,r4,#0x2
13245  0000c134  00621820	add	r3,r3,r2
13246  0000c138  50620002	slli	r2,r3,#0x2
13247  0000c13c  3c030002	lhi	r3,((_sems_LF5)>>16)&0xffff
13248  0000c140  246312bc	addui	r3,r3,(_sems_LF5)&0xffff
13249  0000c144  00621020	add	r2,r3,r2
13250  0000c148  ac220000	sw	(r1),r2
13251  0000c14c  0ffff9b0	jal	_SemWait
13252  0000c150  54000000	nop; delay slot nop
13253  0000c154  23bd0008	addi	r29,r29,#8
13254  0000c158  00011020	add	r2,r0,r1
13255  0000c15c  00020820	add	r1,r0,r2
13256  0000c160  08000004	j	L54_LF5
13257  0000c164  54000000	nop; delay slot nop
13258  0000c168          	L54_LF5:
13259  0000c168  8fa20000	lw	r2,0(r29)
13260  0000c16c  8fa30004	lw	r3,4(r29)
13261  0000c170  8fa40008	lw	r4,8(r29)
13262  0000c174  8fa5000c	lw	r5,12(r29)
13263  0000c178  8fdffff8	lw	r31,-8(r30)
13264  0000c17c  001ee820	add	r29,r0,r30
13265  0000c180  8fdefffc	lw	r30,-4(r30)
13266  0000c184  4be00000	jr	r31
13267  0000c188  54000000	nop
13268  0000c18c          	.endproc _SemHandleWait
13269  0000c18c          	.data
13270  00020c2f          	.align 2
13271  00020c30          	LC9_LF5:
13272  00020c30  53656d53	.ascii "SemSignal: Process %d Signalling on sem %d, count=%d.\n\000"
13272  00020c34  69676e61	
13272  00020c38  6c3a2050	
13272  00020c3c  726f6365	
13272  00020c40  73732025	
13272  00020c44  64205369	
13272  00020c48  676e616c	
13272  00020c4c  6c696e67	
13272  00020c50  206f6e20	
13272  00020c54  73656d20	
13272  00020c58  25642c20	
13272  00020c5c  636f756e	
13272  00020c60  743d2564	
13272  00020c64  2e0a00  	
13273  00020c67          	.align 2
13274  00020c68          	LC10_LF5:
13275  00020c68  46415441	.ascii "FATAL ERROR: could not remove link from semaphore queue in SemSignal!\n"
13275  00020c6c  4c204552	
13275  00020c70  524f523a	
13275  00020c74  20636f75	
13275  00020c78  6c64206e	
13275  00020c7c  6f742072	
13275  00020c80  656d6f76	
13275  00020c84  65206c69	
13275  00020c88  6e6b2066	
13275  00020c8c  726f6d20	
13275  00020c90  73656d61	
13275  00020c94  70686f72	
13275  00020c98  65207175	
13275  00020c9c  65756520	
13275  00020ca0  696e2053	
13275  00020ca4  656d5369	
13275  00020ca8  676e616c	
13275  00020cac  210a    	
13276  00020cae  00      	.ascii "\000"
13277  00020caf          	.align 2
13278  00020cb0          	LC11_LF5:
13279  00020cb0  53656d53	.ascii "SemSignal: Waking up PID %d.\n\000"
13279  00020cb4  69676e61	
13279  00020cb8  6c3a2057	
13279  00020cbc  616b696e	
13279  00020cc0  67207570	
13279  00020cc4  20504944	
13279  00020cc8  2025642e	
13279  00020ccc  0a00    	
13280  00020cce          	.text
13281  0000c18c          	.align 2
13282  0000c18c          	.proc _SemSignal
13283  0000c18c          	.global _SemSignal
13284  0000c18c          	_SemSignal:
13285                      ;  Function 'SemSignal'; 16 bytes of locals, 3 regs to save.
13286  0000c18c  afbefffc	sw	-4(r29),r30; push fp
13287  0000c190  001df020	add	r30,r0,r29; fp = sp
13288  0000c194  afbffff8	sw	-8(r29),r31; push ret addr
13289  0000c198  2fbd0028	subui	r29,r29,#40; alloc local storage
13290  0000c19c  afa20000	sw	0(r29),r2
13291  0000c1a0  afa30004	sw	4(r29),r3
13292  0000c1a4  afa40008	sw	8(r29),r4
13293  0000c1a8  8fc10000	lw	r1,(r30)
13294  0000c1ac  64220000	snei	r2,r1,#0
13295  0000c1b0  14400010	bnez	r2,L59_LF5
13296  0000c1b4  54000000	nop; delay slot nop
13297  0000c1b8  2001ffff	addi	r1,r0,#-1
13298  0000c1bc  08000390	j	L58_LF5
13299  0000c1c0  54000000	nop; delay slot nop
13300  0000c1c4          	L59_LF5:
13301  0000c1c4  001d1020	add	r2,r0,r29
13302  0000c1c8  0c005a40	jal	_DisableIntrs
13303  0000c1cc  54000000	nop; delay slot nop
13304  0000c1d0  afc1fff0	sw	-16(r30),r1
13305  0000c1d4  23bdfff8	addi	r29,r29,#-8
13306  0000c1d8  001d0820	add	r1,r0,r29
13307  0000c1dc  3c020001	lhi	r2,((_debugstr)>>16)&0xffff
13308  0000c1e0  244261cb	addui	r2,r2,(_debugstr)&0xffff
13309  0000c1e4  ac220000	sw	(r1),r2
13310  0000c1e8  20020073	addi	r2,r0,#115
13311  0000c1ec  ac220004	sw	4(r1),r2
13312  0000c1f0  0fff8260	jal	_dindex
13313  0000c1f4  54000000	nop; delay slot nop
13314  0000c1f8  23bd0008	addi	r29,r29,#8
13315  0000c1fc  64220000	snei	r2,r1,#0
13316  0000c200  10400074	beqz	r2,L60_LF5
13317  0000c204  54000000	nop; delay slot nop
13318  0000c208  001d1020	add	r2,r0,r29
13319  0000c20c  0fffd510	jal	_GetCurrentPid
13320  0000c210  54000000	nop; delay slot nop
13321  0000c214  00011020	add	r2,r0,r1
13322  0000c218  23bdfff0	addi	r29,r29,#-16
13323  0000c21c  001d0820	add	r1,r0,r29
13324  0000c220  3c030002	lhi	r3,((LC9_LF5)>>16)&0xffff
13325  0000c224  24630c30	addui	r3,r3,(LC9_LF5)&0xffff
13326  0000c228  ac230000	sw	(r1),r3
13327  0000c22c  ac220004	sw	4(r1),r2
13328  0000c230  8fc30000	lw	r3,(r30)
13329  0000c234  3c040002	lhi	r4,((_sems_LF5)>>16)&0xffff
13330  0000c238  248412bc	addui	r4,r4,(_sems_LF5)&0xffff
13331  0000c23c  00641022	sub	r2,r3,r4
13332  0000c240  3c03cccc	lhi	r3,#-13108
13333  0000c244  2463cccd	addui	r3,r3,#52429
13334  0000c248  00400035	movi2fp	f0,r2
13335  0000c24c  00600835	movi2fp	f1,r3
13336  0000c250  0401000e	mult	f0,f0,f1
13337  0000c254  00001034	movfp2i	r2,f0
13338  0000c258  5c430002	srai	r3,r2,#0x2
13339  0000c25c  ac230008	sw	8(r1),r3
13340  0000c260  8fc20000	lw	r2,(r30)
13341  0000c264  8c43000c	lw	r3,12(r2)
13342  0000c268  ac23000c	sw	12(r1),r3
13343  0000c26c  0c00630c	jal	_printf
13344  0000c270  54000000	nop; delay slot nop
13345  0000c274  23bd0010	addi	r29,r29,#16
13346  0000c278          	L60_LF5:
13347  0000c278  23bdfff8	addi	r29,r29,#-8
13348  0000c27c  001d0820	add	r1,r0,r29
13349  0000c280  3c020001	lhi	r2,((_debugstr)>>16)&0xffff
13350  0000c284  244261cb	addui	r2,r2,(_debugstr)&0xffff
13351  0000c288  ac220000	sw	(r1),r2
13352  0000c28c  2002002b	addi	r2,r0,#43
13353  0000c290  ac220004	sw	4(r1),r2
13354  0000c294  0fff81bc	jal	_dindex
13355  0000c298  54000000	nop; delay slot nop
13356  0000c29c  23bd0008	addi	r29,r29,#8
13357  0000c2a0  64220000	snei	r2,r1,#0
13358  0000c2a4  10400074	beqz	r2,L61_LF5
13359  0000c2a8  54000000	nop; delay slot nop
13360  0000c2ac  001d1020	add	r2,r0,r29
13361  0000c2b0  0fffd46c	jal	_GetCurrentPid
13362  0000c2b4  54000000	nop; delay slot nop
13363  0000c2b8  00011020	add	r2,r0,r1
13364  0000c2bc  23bdfff0	addi	r29,r29,#-16
13365  0000c2c0  001d0820	add	r1,r0,r29
13366  0000c2c4  3c030002	lhi	r3,((LC9_LF5)>>16)&0xffff
13367  0000c2c8  24630c30	addui	r3,r3,(LC9_LF5)&0xffff
13368  0000c2cc  ac230000	sw	(r1),r3
13369  0000c2d0  ac220004	sw	4(r1),r2
13370  0000c2d4  8fc30000	lw	r3,(r30)
13371  0000c2d8  3c040002	lhi	r4,((_sems_LF5)>>16)&0xffff
13372  0000c2dc  248412bc	addui	r4,r4,(_sems_LF5)&0xffff
13373  0000c2e0  00641022	sub	r2,r3,r4
13374  0000c2e4  3c03cccc	lhi	r3,#-13108
13375  0000c2e8  2463cccd	addui	r3,r3,#52429
13376  0000c2ec  00400035	movi2fp	f0,r2
13377  0000c2f0  00600835	movi2fp	f1,r3
13378  0000c2f4  0401000e	mult	f0,f0,f1
13379  0000c2f8  00001034	movfp2i	r2,f0
13380  0000c2fc  5c430002	srai	r3,r2,#0x2
13381  0000c300  ac230008	sw	8(r1),r3
13382  0000c304  8fc20000	lw	r2,(r30)
13383  0000c308  8c43000c	lw	r3,12(r2)
13384  0000c30c  ac23000c	sw	12(r1),r3
13385  0000c310  0c006268	jal	_printf
13386  0000c314  54000000	nop; delay slot nop
13387  0000c318  23bd0010	addi	r29,r29,#16
13388  0000c31c          	L61_LF5:
13389  0000c31c  8fc20000	lw	r2,(r30)
13390  0000c320  8fc10000	lw	r1,(r30)
13391  0000c324  8fc20000	lw	r2,(r30)
13392  0000c328  8c43000c	lw	r3,12(r2)
13393  0000c32c  20620001	addi	r2,r3,#1
13394  0000c330  00021820	add	r3,r0,r2
13395  0000c334  ac23000c	sw	12(r1),r3
13396  0000c338  8fc10000	lw	r1,(r30)
13397  0000c33c  8c22000c	lw	r2,12(r1)
13398  0000c340  6c410000	sgti	r1,r2,#0
13399  0000c344  102001e0	beqz	r1,L62_LF5
13400  0000c348  54000000	nop; delay slot nop
13401  0000c34c  23bdfff8	addi	r29,r29,#-8
13402  0000c350  001d0820	add	r1,r0,r29
13403  0000c354  8fc20000	lw	r2,(r30)
13404  0000c358  ac220000	sw	(r1),r2
13405  0000c35c  0fffefc0	jal	_AQueueEmpty
13406  0000c360  54000000	nop; delay slot nop
13407  0000c364  23bd0008	addi	r29,r29,#8
13408  0000c368  64220000	snei	r2,r1,#0
13409  0000c36c  144001b8	bnez	r2,L62_LF5
13410  0000c370  54000000	nop; delay slot nop
13411  0000c374  23bdfff8	addi	r29,r29,#-8
13412  0000c378  001d0820	add	r1,r0,r29
13413  0000c37c  8fc20000	lw	r2,(r30)
13414  0000c380  ac220000	sw	(r1),r2
13415  0000c384  0fffeea8	jal	_AQueueFirst
13416  0000c388  54000000	nop; delay slot nop
13417  0000c38c  23bd0008	addi	r29,r29,#8
13418  0000c390  afc1fff4	sw	-12(r30),r1
13419  0000c394  23bdfff8	addi	r29,r29,#-8
13420  0000c398  001d0820	add	r1,r0,r29
13421  0000c39c  8fc2fff4	lw	r2,-12(r30)
13422  0000c3a0  ac220000	sw	(r1),r2
13423  0000c3a4  0fffef00	jal	_AQueueObject
13424  0000c3a8  54000000	nop; delay slot nop
13425  0000c3ac  23bd0008	addi	r29,r29,#8
13426  0000c3b0  afc1ffec	sw	-20(r30),r1
13427  0000c3b4  23bdfff8	addi	r29,r29,#-8
13428  0000c3b8  001d0820	add	r1,r0,r29
13429  0000c3bc  23c2fff4	addi	r2,r30,#-12
13430  0000c3c0  ac220000	sw	(r1),r2
13431  0000c3c4  0fffe2c4	jal	_AQueueRemove
13432  0000c3c8  54000000	nop; delay slot nop
13433  0000c3cc  23bd0008	addi	r29,r29,#8
13434  0000c3d0  64220001	snei	r2,r1,#1
13435  0000c3d4  10400030	beqz	r2,L64_LF5
13436  0000c3d8  54000000	nop; delay slot nop
13437  0000c3dc  23bdfff8	addi	r29,r29,#-8
13438  0000c3e0  001d0820	add	r1,r0,r29
13439  0000c3e4  3c020002	lhi	r2,((LC10_LF5)>>16)&0xffff
13440  0000c3e8  24420c68	addui	r2,r2,(LC10_LF5)&0xffff
13441  0000c3ec  ac220000	sw	(r1),r2
13442  0000c3f0  0c006188	jal	_printf
13443  0000c3f4  54000000	nop; delay slot nop
13444  0000c3f8  23bd0008	addi	r29,r29,#8
13445  0000c3fc  001d1020	add	r2,r0,r29
13446  0000c400  0c006160	jal	_exitsim
13447  0000c404  54000000	nop; delay slot nop
13448  0000c408          	L64_LF5:
13449  0000c408  23bdfff8	addi	r29,r29,#-8
13450  0000c40c  001d0820	add	r1,r0,r29
13451  0000c410  3c020001	lhi	r2,((_debugstr)>>16)&0xffff
13452  0000c414  244261cb	addui	r2,r2,(_debugstr)&0xffff
13453  0000c418  ac220000	sw	(r1),r2
13454  0000c41c  20020073	addi	r2,r0,#115
13455  0000c420  ac220004	sw	4(r1),r2
13456  0000c424  0fff802c	jal	_dindex
13457  0000c428  54000000	nop; delay slot nop
13458  0000c42c  23bd0008	addi	r29,r29,#8
13459  0000c430  64220000	snei	r2,r1,#0
13460  0000c434  10400044	beqz	r2,L65_LF5
13461  0000c438  54000000	nop; delay slot nop
13462  0000c43c  23bdfff8	addi	r29,r29,#-8
13463  0000c440  001d0820	add	r1,r0,r29
13464  0000c444  8fc2ffec	lw	r2,-20(r30)
13465  0000c448  ac220000	sw	(r1),r2
13466  0000c44c  0fffd52c	jal	_GetPidFromAddress
13467  0000c450  54000000	nop; delay slot nop
13468  0000c454  23bd0008	addi	r29,r29,#8
13469  0000c458  23bdfff8	addi	r29,r29,#-8
13470  0000c45c  001d1020	add	r2,r0,r29
13471  0000c460  3c030002	lhi	r3,((LC11_LF5)>>16)&0xffff
13472  0000c464  24630cb0	addui	r3,r3,(LC11_LF5)&0xffff
13473  0000c468  ac430000	sw	(r2),r3
13474  0000c46c  ac410004	sw	4(r2),r1
13475  0000c470  0c006108	jal	_printf
13476  0000c474  54000000	nop; delay slot nop
13477  0000c478  23bd0008	addi	r29,r29,#8
13478  0000c47c          	L65_LF5:
13479  0000c47c  23bdfff8	addi	r29,r29,#-8
13480  0000c480  001d0820	add	r1,r0,r29
13481  0000c484  3c020001	lhi	r2,((_debugstr)>>16)&0xffff
13482  0000c488  244261cb	addui	r2,r2,(_debugstr)&0xffff
13483  0000c48c  ac220000	sw	(r1),r2
13484  0000c490  2002002b	addi	r2,r0,#43
13485  0000c494  ac220004	sw	4(r1),r2
13486  0000c498  0fff7fb8	jal	_dindex
13487  0000c49c  54000000	nop; delay slot nop
13488  0000c4a0  23bd0008	addi	r29,r29,#8
13489  0000c4a4  64220000	snei	r2,r1,#0
13490  0000c4a8  10400044	beqz	r2,L66_LF5
13491  0000c4ac  54000000	nop; delay slot nop
13492  0000c4b0  23bdfff8	addi	r29,r29,#-8
13493  0000c4b4  001d0820	add	r1,r0,r29
13494  0000c4b8  8fc2ffec	lw	r2,-20(r30)
13495  0000c4bc  ac220000	sw	(r1),r2
13496  0000c4c0  0fffd4b8	jal	_GetPidFromAddress
13497  0000c4c4  54000000	nop; delay slot nop
13498  0000c4c8  23bd0008	addi	r29,r29,#8
13499  0000c4cc  23bdfff8	addi	r29,r29,#-8
13500  0000c4d0  001d1020	add	r2,r0,r29
13501  0000c4d4  3c030002	lhi	r3,((LC11_LF5)>>16)&0xffff
13502  0000c4d8  24630cb0	addui	r3,r3,(LC11_LF5)&0xffff
13503  0000c4dc  ac430000	sw	(r2),r3
13504  0000c4e0  ac410004	sw	4(r2),r1
13505  0000c4e4  0c006094	jal	_printf
13506  0000c4e8  54000000	nop; delay slot nop
13507  0000c4ec  23bd0008	addi	r29,r29,#8
13508  0000c4f0          	L66_LF5:
13509  0000c4f0  23bdfff8	addi	r29,r29,#-8
13510  0000c4f4  001d0820	add	r1,r0,r29
13511  0000c4f8  8fc2ffec	lw	r2,-20(r30)
13512  0000c4fc  ac220000	sw	(r1),r2
13513  0000c500  0fff99a0	jal	_ProcessWakeup
13514  0000c504  54000000	nop; delay slot nop
13515  0000c508  23bd0008	addi	r29,r29,#8
13516  0000c50c  8fc20000	lw	r2,(r30)
13517  0000c510  8fc10000	lw	r1,(r30)
13518  0000c514  8fc20000	lw	r2,(r30)
13519  0000c518  8c43000c	lw	r3,12(r2)
13520  0000c51c  2062ffff	addi	r2,r3,#-1
13521  0000c520  00021820	add	r3,r0,r2
13522  0000c524  ac23000c	sw	12(r1),r3
13523  0000c528          	L63_LF5:
13524  0000c528          	L62_LF5:
13525  0000c528  23bdfff8	addi	r29,r29,#-8
13526  0000c52c  001d0820	add	r1,r0,r29
13527  0000c530  8fc2fff0	lw	r2,-16(r30)
13528  0000c534  ac220000	sw	(r1),r2
13529  0000c538  0c005780	jal	_RestoreIntrs
13530  0000c53c  54000000	nop; delay slot nop
13531  0000c540  23bd0008	addi	r29,r29,#8
13532  0000c544  20010001	addi	r1,r0,#1
13533  0000c548  08000004	j	L58_LF5
13534  0000c54c  54000000	nop; delay slot nop
13535  0000c550          	L58_LF5:
13536  0000c550  8fa20000	lw	r2,0(r29)
13537  0000c554  8fa30004	lw	r3,4(r29)
13538  0000c558  8fa40008	lw	r4,8(r29)
13539  0000c55c  8fdffff8	lw	r31,-8(r30)
13540  0000c560  001ee820	add	r29,r0,r30
13541  0000c564  8fdefffc	lw	r30,-4(r30)
13542  0000c568  4be00000	jr	r31
13543  0000c56c  54000000	nop
13544  0000c570          	.endproc _SemSignal
13545  0000c570          	.align 2
13546  0000c570          	.proc _SemHandleSignal
13547  0000c570          	.global _SemHandleSignal
13548  0000c570          	_SemHandleSignal:
13549                      ;  Function 'SemHandleSignal'; 0 bytes of locals, 4 regs to save.
13550  0000c570  afbefffc	sw	-4(r29),r30; push fp
13551  0000c574  001df020	add	r30,r0,r29; fp = sp
13552  0000c578  afbffff8	sw	-8(r29),r31; push ret addr
13553  0000c57c  2fbd0018	subui	r29,r29,#24; alloc local storage
13554  0000c580  afa20000	sw	0(r29),r2
13555  0000c584  afa30004	sw	4(r29),r3
13556  0000c588  afa40008	sw	8(r29),r4
13557  0000c58c  afa5000c	sw	12(r29),r5
13558  0000c590  8fc10000	lw	r1,(r30)
13559  0000c594  68220000	slti	r2,r1,#0
13560  0000c598  10400010	beqz	r2,L68_LF5
13561  0000c59c  54000000	nop; delay slot nop
13562  0000c5a0  2001ffff	addi	r1,r0,#-1
13563  0000c5a4  080000a4	j	L67_LF5
13564  0000c5a8  54000000	nop; delay slot nop
13565  0000c5ac          	L68_LF5:
13566  0000c5ac  8fc10000	lw	r1,(r30)
13567  0000c5b0  6c22001f	sgti	r2,r1,#31
13568  0000c5b4  10400010	beqz	r2,L69_LF5
13569  0000c5b8  54000000	nop; delay slot nop
13570  0000c5bc  2001ffff	addi	r1,r0,#-1
13571  0000c5c0  08000088	j	L67_LF5
13572  0000c5c4  54000000	nop; delay slot nop
13573  0000c5c8          	L69_LF5:
13574  0000c5c8  8fc10000	lw	r1,(r30)
13575  0000c5cc  00011820	add	r3,r0,r1
13576  0000c5d0  50620002	slli	r2,r3,#0x2
13577  0000c5d4  00411020	add	r2,r2,r1
13578  0000c5d8  50410002	slli	r1,r2,#0x2
13579  0000c5dc  3c050002	lhi	r5,((_sems_LF5)>>16)&0xffff
13580  0000c5e0  24a512bc	addui	r5,r5,(_sems_LF5)&0xffff
13581  0000c5e4  00251020	add	r2,r1,r5
13582  0000c5e8  8c410010	lw	r1,16(r2)
13583  0000c5ec  64220000	snei	r2,r1,#0
13584  0000c5f0  14400010	bnez	r2,L70_LF5
13585  0000c5f4  54000000	nop; delay slot nop
13586  0000c5f8  2001ffff	addi	r1,r0,#-1
13587  0000c5fc  0800004c	j	L67_LF5
13588  0000c600  54000000	nop; delay slot nop
13589  0000c604          	L70_LF5:
13590  0000c604  23bdfff8	addi	r29,r29,#-8
13591  0000c608  001d0820	add	r1,r0,r29
13592  0000c60c  8fc20000	lw	r2,(r30)
13593  0000c610  00022020	add	r4,r0,r2
13594  0000c614  50830002	slli	r3,r4,#0x2
13595  0000c618  00621820	add	r3,r3,r2
13596  0000c61c  50620002	slli	r2,r3,#0x2
13597  0000c620  3c030002	lhi	r3,((_sems_LF5)>>16)&0xffff
13598  0000c624  246312bc	addui	r3,r3,(_sems_LF5)&0xffff
13599  0000c628  00621020	add	r2,r3,r2
13600  0000c62c  ac220000	sw	(r1),r2
13601  0000c630  0ffffb58	jal	_SemSignal
13602  0000c634  54000000	nop; delay slot nop
13603  0000c638  23bd0008	addi	r29,r29,#8
13604  0000c63c  00011020	add	r2,r0,r1
13605  0000c640  00020820	add	r1,r0,r2
13606  0000c644  08000004	j	L67_LF5
13607  0000c648  54000000	nop; delay slot nop
13608  0000c64c          	L67_LF5:
13609  0000c64c  8fa20000	lw	r2,0(r29)
13610  0000c650  8fa30004	lw	r3,4(r29)
13611  0000c654  8fa40008	lw	r4,8(r29)
13612  0000c658  8fa5000c	lw	r5,12(r29)
13613  0000c65c  8fdffff8	lw	r31,-8(r30)
13614  0000c660  001ee820	add	r29,r0,r30
13615  0000c664  8fdefffc	lw	r30,-4(r30)
13616  0000c668  4be00000	jr	r31
13617  0000c66c  54000000	nop
13618  0000c670          	.endproc _SemHandleSignal
13619  0000c670          	.align 2
13620  0000c670          	.proc _LockCreate
13621  0000c670          	.global _LockCreate
13622  0000c670          	_LockCreate:
13623                      ;  Function 'LockCreate'; 8 bytes of locals, 4 regs to save.
13624  0000c670  afbefffc	sw	-4(r29),r30; push fp
13625  0000c674  001df020	add	r30,r0,r29; fp = sp
13626  0000c678  afbffff8	sw	-8(r29),r31; push ret addr
13627  0000c67c  2fbd0020	subui	r29,r29,#32; alloc local storage
13628  0000c680  afa20000	sw	0(r29),r2
13629  0000c684  afa30004	sw	4(r29),r3
13630  0000c688  afa40008	sw	8(r29),r4
13631  0000c68c  afa5000c	sw	12(r29),r5
13632  0000c690  001d1020	add	r2,r0,r29
13633  0000c694  0c005574	jal	_DisableIntrs
13634  0000c698  54000000	nop; delay slot nop
13635  0000c69c  afc1fff0	sw	-16(r30),r1
13636  0000c6a0  20010000	addi	r1,r0,#0
13637  0000c6a4  afc1fff4	sw	-12(r30),r1
13638  0000c6a8          	L72_LF5:
13639  0000c6a8  8fc1fff4	lw	r1,-12(r30)
13640  0000c6ac  7022003f	slei	r2,r1,#63
13641  0000c6b0  1440000c	bnez	r2,L75_LF5
13642  0000c6b4  54000000	nop; delay slot nop
13643  0000c6b8  0800007c	j	L73_LF5
13644  0000c6bc  54000000	nop; delay slot nop
13645  0000c6c0          	L75_LF5:
13646  0000c6c0  8fc1fff4	lw	r1,-12(r30)
13647  0000c6c4  00011820	add	r3,r0,r1
13648  0000c6c8  50620002	slli	r2,r3,#0x2
13649  0000c6cc  00411020	add	r2,r2,r1
13650  0000c6d0  50410002	slli	r1,r2,#0x2
13651  0000c6d4  3c050002	lhi	r5,((_locks_LF5)>>16)&0xffff
13652  0000c6d8  24a5153c	addui	r5,r5,(_locks_LF5)&0xffff
13653  0000c6dc  00251020	add	r2,r1,r5
13654  0000c6e0  8c410010	lw	r1,16(r2)
13655  0000c6e4  64220000	snei	r2,r1,#0
13656  0000c6e8  14400034	bnez	r2,L74_LF5
13657  0000c6ec  54000000	nop; delay slot nop
13658  0000c6f0  3c010002	lhi	r1,((_locks_LF5)>>16)&0xffff
13659  0000c6f4  2421153c	addui	r1,r1,(_locks_LF5)&0xffff
13660  0000c6f8  8fc2fff4	lw	r2,-12(r30)
13661  0000c6fc  00022020	add	r4,r0,r2
13662  0000c700  50830002	slli	r3,r4,#0x2
13663  0000c704  00621820	add	r3,r3,r2
13664  0000c708  50620002	slli	r2,r3,#0x2
13665  0000c70c  00220820	add	r1,r1,r2
13666  0000c710  20020001	addi	r2,r0,#1
13667  0000c714  ac220010	sw	16(r1),r2
13668  0000c718  0800001c	j	L73_LF5
13669  0000c71c  54000000	nop; delay slot nop
13670  0000c720          	L76_LF5:
13671  0000c720          	L74_LF5:
13672  0000c720  8fc2fff4	lw	r2,-12(r30)
13673  0000c724  20410001	addi	r1,r2,#1
13674  0000c728  00011020	add	r2,r0,r1
13675  0000c72c  afc2fff4	sw	-12(r30),r2
13676  0000c730  0bffff74	j	L72_LF5
13677  0000c734  54000000	nop; delay slot nop
13678  0000c738          	L73_LF5:
13679  0000c738  23bdfff8	addi	r29,r29,#-8
13680  0000c73c  001d0820	add	r1,r0,r29
13681  0000c740  8fc2fff0	lw	r2,-16(r30)
13682  0000c744  ac220000	sw	(r1),r2
13683  0000c748  0c005570	jal	_RestoreIntrs
13684  0000c74c  54000000	nop; delay slot nop
13685  0000c750  23bd0008	addi	r29,r29,#8
13686  0000c754  8fc1fff4	lw	r1,-12(r30)
13687  0000c758  60220040	seqi	r2,r1,#64
13688  0000c75c  10400010	beqz	r2,L77_LF5
13689  0000c760  54000000	nop; delay slot nop
13690  0000c764  2001ffff	addi	r1,r0,#-1
13691  0000c768  08000060	j	L71_LF5
13692  0000c76c  54000000	nop; delay slot nop
13693  0000c770          	L77_LF5:
13694  0000c770  23bdfff8	addi	r29,r29,#-8
13695  0000c774  001d0820	add	r1,r0,r29
13696  0000c778  8fc2fff4	lw	r2,-12(r30)
13697  0000c77c  00022020	add	r4,r0,r2
13698  0000c780  50830002	slli	r3,r4,#0x2
13699  0000c784  00621820	add	r3,r3,r2
13700  0000c788  50620002	slli	r2,r3,#0x2
13701  0000c78c  3c030002	lhi	r3,((_locks_LF5)>>16)&0xffff
13702  0000c790  2463153c	addui	r3,r3,(_locks_LF5)&0xffff
13703  0000c794  00621020	add	r2,r3,r2
13704  0000c798  ac220000	sw	(r1),r2
13705  0000c79c  0c000050	jal	_LockInit
13706  0000c7a0  54000000	nop; delay slot nop
13707  0000c7a4  23bd0008	addi	r29,r29,#8
13708  0000c7a8  64220001	snei	r2,r1,#1
13709  0000c7ac  10400010	beqz	r2,L78_LF5
13710  0000c7b0  54000000	nop; delay slot nop
13711  0000c7b4  2001ffff	addi	r1,r0,#-1
13712  0000c7b8  08000010	j	L71_LF5
13713  0000c7bc  54000000	nop; delay slot nop
13714  0000c7c0          	L78_LF5:
13715  0000c7c0  8fc1fff4	lw	r1,-12(r30)
13716  0000c7c4  08000004	j	L71_LF5
13717  0000c7c8  54000000	nop; delay slot nop
13718  0000c7cc          	L71_LF5:
13719  0000c7cc  8fa20000	lw	r2,0(r29)
13720  0000c7d0  8fa30004	lw	r3,4(r29)
13721  0000c7d4  8fa40008	lw	r4,8(r29)
13722  0000c7d8  8fa5000c	lw	r5,12(r29)
13723  0000c7dc  8fdffff8	lw	r31,-8(r30)
13724  0000c7e0  001ee820	add	r29,r0,r30
13725  0000c7e4  8fdefffc	lw	r30,-4(r30)
13726  0000c7e8  4be00000	jr	r31
13727  0000c7ec  54000000	nop
13728  0000c7f0          	.endproc _LockCreate
13729  0000c7f0          	.data
13730  00020cce          	.align 2
13731  00020cd0          	LC12_LF5:
13732  00020cd0  46415441	.ascii "FATAL ERROR: could not initialize lock waiting queue in LockInit!\n\000"
13732  00020cd4  4c204552	
13732  00020cd8  524f523a	
13732  00020cdc  20636f75	
13732  00020ce0  6c64206e	
13732  00020ce4  6f742069	
13732  00020ce8  6e697469	
13732  00020cec  616c697a	
13732  00020cf0  65206c6f	
13732  00020cf4  636b2077	
13732  00020cf8  61697469	
13732  00020cfc  6e672071	
13732  00020d00  75657565	
13732  00020d04  20696e20	
13732  00020d08  4c6f636b	
13732  00020d0c  496e6974	
13732  00020d10  210a00  	
13733  00020d13          	.text
13734  0000c7f0          	.align 2
13735  0000c7f0          	.proc _LockInit
13736  0000c7f0          	.global _LockInit
13737  0000c7f0          	_LockInit:
13738                      ;  Function 'LockInit'; 0 bytes of locals, 2 regs to save.
13739  0000c7f0  afbefffc	sw	-4(r29),r30; push fp
13740  0000c7f4  001df020	add	r30,r0,r29; fp = sp
13741  0000c7f8  afbffff8	sw	-8(r29),r31; push ret addr
13742  0000c7fc  2fbd0010	subui	r29,r29,#16; alloc local storage
13743  0000c800  afa20000	sw	0(r29),r2
13744  0000c804  afa30004	sw	4(r29),r3
13745  0000c808  8fc10000	lw	r1,(r30)
13746  0000c80c  64220000	snei	r2,r1,#0
13747  0000c810  14400010	bnez	r2,L80_LF5
13748  0000c814  54000000	nop; delay slot nop
13749  0000c818  2001ffff	addi	r1,r0,#-1
13750  0000c81c  08000074	j	L79_LF5
13751  0000c820  54000000	nop; delay slot nop
13752  0000c824          	L80_LF5:
13753  0000c824  23bdfff8	addi	r29,r29,#-8
13754  0000c828  001d0820	add	r1,r0,r29
13755  0000c82c  8fc20000	lw	r2,(r30)
13756  0000c830  20430004	addi	r3,r2,#4
13757  0000c834  ac230000	sw	(r1),r3
13758  0000c838  0fffda18	jal	_AQueueInit
13759  0000c83c  54000000	nop; delay slot nop
13760  0000c840  23bd0008	addi	r29,r29,#8
13761  0000c844  64220001	snei	r2,r1,#1
13762  0000c848  10400030	beqz	r2,L81_LF5
13763  0000c84c  54000000	nop; delay slot nop
13764  0000c850  23bdfff8	addi	r29,r29,#-8
13765  0000c854  001d0820	add	r1,r0,r29
13766  0000c858  3c020002	lhi	r2,((LC12_LF5)>>16)&0xffff
13767  0000c85c  24420cd0	addui	r2,r2,(LC12_LF5)&0xffff
13768  0000c860  ac220000	sw	(r1),r2
13769  0000c864  0c005d14	jal	_printf
13770  0000c868  54000000	nop; delay slot nop
13771  0000c86c  23bd0008	addi	r29,r29,#8
13772  0000c870  001d1020	add	r2,r0,r29
13773  0000c874  0c005cec	jal	_exitsim
13774  0000c878  54000000	nop; delay slot nop
13775  0000c87c          	L81_LF5:
13776  0000c87c  8fc10000	lw	r1,(r30)
13777  0000c880  2002ffff	addi	r2,r0,#-1
13778  0000c884  ac220000	sw	(r1),r2
13779  0000c888  20010001	addi	r1,r0,#1
13780  0000c88c  08000004	j	L79_LF5
13781  0000c890  54000000	nop; delay slot nop
13782  0000c894          	L79_LF5:
13783  0000c894  8fa20000	lw	r2,0(r29)
13784  0000c898  8fa30004	lw	r3,4(r29)
13785  0000c89c  8fdffff8	lw	r31,-8(r30)
13786  0000c8a0  001ee820	add	r29,r0,r30
13787  0000c8a4  8fdefffc	lw	r30,-4(r30)
13788  0000c8a8  4be00000	jr	r31
13789  0000c8ac  54000000	nop
13790  0000c8b0          	.endproc _LockInit
13791  0000c8b0          	.data
13792  00020d13          	.align 2
13793  00020d14          	LC13_LF5:
13794  00020d14  4c6f636b	.ascii "LockAcquire: Old interrupt value was 0x%x.\n\000"
13794  00020d18  41637175	
13794  00020d1c  6972653a	
13794  00020d20  204f6c64	
13794  00020d24  20696e74	
13794  00020d28  65727275	
13794  00020d2c  70742076	
13794  00020d30  616c7565	
13794  00020d34  20776173	
13794  00020d38  20307825	
13794  00020d3c  782e0a00	
13795  00020d40          	.align 2
13796  00020d40          	LC14_LF5:
13797  00020d40  4c6f636b	.ascii "LockAcquire: Proc %d already owns lock %d\n\000"
13797  00020d44  41637175	
13797  00020d48  6972653a	
13797  00020d4c  2050726f	
13797  00020d50  63202564	
13797  00020d54  20616c72	
13797  00020d58  65616479	
13797  00020d5c  206f776e	
13797  00020d60  73206c6f	
13797  00020d64  636b2025	
13797  00020d68  640a00  	
13798  00020d6b          	.align 2
13799  00020d6c          	LC15_LF5:
13800  00020d6c  4c6f636b	.ascii "LockAcquire: Proc %d asking for lock %d.\n\000"
13800  00020d70  41637175	
13800  00020d74  6972653a	
13800  00020d78  2050726f	
13800  00020d7c  63202564	
13800  00020d80  2061736b	
13800  00020d84  696e6720	
13800  00020d88  666f7220	
13800  00020d8c  6c6f636b	
13800  00020d90  2025642e	
13800  00020d94  0a00    	
13801  00020d96          	.align 2
13802  00020d98          	LC16_LF5:
13803  00020d98  4c6f636b	.ascii "LockAcquire: putting process %d to sleep\n\000"
13803  00020d9c  41637175	
13803  00020da0  6972653a	
13803  00020da4  20707574	
13803  00020da8  74696e67	
13803  00020dac  2070726f	
13803  00020db0  63657373	
13803  00020db4  20256420	
13803  00020db8  746f2073	
13803  00020dbc  6c656570	
13803  00020dc0  0a00    	
13804  00020dc2          	.align 2
13805  00020dc4          	LC17_LF5:
13806  00020dc4  46415441	.ascii "FATAL ERROR: could not allocate link for lock queue in LockAcquire!\n\000"
13806  00020dc8  4c204552	
13806  00020dcc  524f523a	
13806  00020dd0  20636f75	
13806  00020dd4  6c64206e	
13806  00020dd8  6f742061	
13806  00020ddc  6c6c6f63	
13806  00020de0  61746520	
13806  00020de4  6c696e6b	
13806  00020de8  20666f72	
13806  00020dec  206c6f63	
13806  00020df0  6b207175	
13806  00020df4  65756520	
13806  00020df8  696e204c	
13806  00020dfc  6f636b41	
13806  00020e00  63717569	
13806  00020e04  7265210a	
13806  00020e08  00      	
13807  00020e09          	.align 2
13808  00020e0c          	LC18_LF5:
13809  00020e0c  46415441	.ascii "FATAL ERROR: could not insert new link into lock waiting queue in Lock"
13809  00020e10  4c204552	
13809  00020e14  524f523a	
13809  00020e18  20636f75	
13809  00020e1c  6c64206e	
13809  00020e20  6f742069	
13809  00020e24  6e736572	
13809  00020e28  74206e65	
13809  00020e2c  77206c69	
13809  00020e30  6e6b2069	
13809  00020e34  6e746f20	
13809  00020e38  6c6f636b	
13809  00020e3c  20776169	
13809  00020e40  74696e67	
13809  00020e44  20717565	
13809  00020e48  75652069	
13809  00020e4c  6e204c6f	
13809  00020e50  636b    	
13810  00020e52  41637175	.ascii "Acquire!\n\000"
13810  00020e56  69726521	
13810  00020e5a  0a00    	
13811  00020e5c          	.align 2
13812  00020e5c          	LC19_LF5:
13813  00020e5c  4c6f636b	.ascii "LockAcquire: lock is available, assigning to proc %d\n\000"
13813  00020e60  41637175	
13813  00020e64  6972653a	
13813  00020e68  206c6f63	
13813  00020e6c  6b206973	
13813  00020e70  20617661	
13813  00020e74  696c6162	
13813  00020e78  6c652c20	
13813  00020e7c  61737369	
13813  00020e80  676e696e	
13813  00020e84  6720746f	
13813  00020e88  2070726f	
13813  00020e8c  63202564	
13813  00020e90  0a00    	
13814  00020e92          	.text
13815  0000c8b0          	.align 2
13816  0000c8b0          	.proc _LockAcquire
13817  0000c8b0          	.global _LockAcquire
13818  0000c8b0          	_LockAcquire:
13819                      ;  Function 'LockAcquire'; 8 bytes of locals, 3 regs to save.
13820  0000c8b0  afbefffc	sw	-4(r29),r30; push fp
13821  0000c8b4  001df020	add	r30,r0,r29; fp = sp
13822  0000c8b8  afbffff8	sw	-8(r29),r31; push ret addr
13823  0000c8bc  2fbd0020	subui	r29,r29,#32; alloc local storage
13824  0000c8c0  afa20000	sw	0(r29),r2
13825  0000c8c4  afa30004	sw	4(r29),r3
13826  0000c8c8  afa40008	sw	8(r29),r4
13827  0000c8cc  8fc10000	lw	r1,(r30)
13828  0000c8d0  64220000	snei	r2,r1,#0
13829  0000c8d4  14400010	bnez	r2,L83_LF5
13830  0000c8d8  54000000	nop; delay slot nop
13831  0000c8dc  2001ffff	addi	r1,r0,#-1
13832  0000c8e0  0800062c	j	L82_LF5
13833  0000c8e4  54000000	nop; delay slot nop
13834  0000c8e8          	L83_LF5:
13835  0000c8e8  001d1020	add	r2,r0,r29
13836  0000c8ec  0c00531c	jal	_DisableIntrs
13837  0000c8f0  54000000	nop; delay slot nop
13838  0000c8f4  afc1fff0	sw	-16(r30),r1
13839  0000c8f8  23bdfff8	addi	r29,r29,#-8
13840  0000c8fc  001d0820	add	r1,r0,r29
13841  0000c900  3c020001	lhi	r2,((_debugstr)>>16)&0xffff
13842  0000c904  244261cb	addui	r2,r2,(_debugstr)&0xffff
13843  0000c908  ac220000	sw	(r1),r2
13844  0000c90c  20020049	addi	r2,r0,#73
13845  0000c910  ac220004	sw	4(r1),r2
13846  0000c914  0fff7b3c	jal	_dindex
13847  0000c918  54000000	nop; delay slot nop
13848  0000c91c  23bd0008	addi	r29,r29,#8
13849  0000c920  64220000	snei	r2,r1,#0
13850  0000c924  1040002c	beqz	r2,L84_LF5
13851  0000c928  54000000	nop; delay slot nop
13852  0000c92c  23bdfff8	addi	r29,r29,#-8
13853  0000c930  001d0820	add	r1,r0,r29
13854  0000c934  3c020002	lhi	r2,((LC13_LF5)>>16)&0xffff
13855  0000c938  24420d14	addui	r2,r2,(LC13_LF5)&0xffff
13856  0000c93c  ac220000	sw	(r1),r2
13857  0000c940  8fc2fff0	lw	r2,-16(r30)
13858  0000c944  ac220004	sw	4(r1),r2
13859  0000c948  0c005c30	jal	_printf
13860  0000c94c  54000000	nop; delay slot nop
13861  0000c950  23bd0008	addi	r29,r29,#8
13862  0000c954          	L84_LF5:
13863  0000c954  23bdfff8	addi	r29,r29,#-8
13864  0000c958  001d0820	add	r1,r0,r29
13865  0000c95c  3c020001	lhi	r2,((_debugstr)>>16)&0xffff
13866  0000c960  244261cb	addui	r2,r2,(_debugstr)&0xffff
13867  0000c964  ac220000	sw	(r1),r2
13868  0000c968  2002002b	addi	r2,r0,#43
13869  0000c96c  ac220004	sw	4(r1),r2
13870  0000c970  0fff7ae0	jal	_dindex
13871  0000c974  54000000	nop; delay slot nop
13872  0000c978  23bd0008	addi	r29,r29,#8
13873  0000c97c  64220000	snei	r2,r1,#0
13874  0000c980  1040002c	beqz	r2,L85_LF5
13875  0000c984  54000000	nop; delay slot nop
13876  0000c988  23bdfff8	addi	r29,r29,#-8
13877  0000c98c  001d0820	add	r1,r0,r29
13878  0000c990  3c020002	lhi	r2,((LC13_LF5)>>16)&0xffff
13879  0000c994  24420d14	addui	r2,r2,(LC13_LF5)&0xffff
13880  0000c998  ac220000	sw	(r1),r2
13881  0000c99c  8fc2fff0	lw	r2,-16(r30)
13882  0000c9a0  ac220004	sw	4(r1),r2
13883  0000c9a4  0c005bd4	jal	_printf
13884  0000c9a8  54000000	nop; delay slot nop
13885  0000c9ac  23bd0008	addi	r29,r29,#8
13886  0000c9b0          	L85_LF5:
13887  0000c9b0  8fc20000	lw	r2,(r30)
13888  0000c9b4  001d1820	add	r3,r0,r29
13889  0000c9b8  0fffcd64	jal	_GetCurrentPid
13890  0000c9bc  54000000	nop; delay slot nop
13891  0000c9c0  8c420000	lw	r2,(r2)
13892  0000c9c4  00410828	seq	r1,r2,r1
13893  0000c9c8  1020015c	beqz	r1,L86_LF5
13894  0000c9cc  54000000	nop; delay slot nop
13895  0000c9d0  23bdfff8	addi	r29,r29,#-8
13896  0000c9d4  001d0820	add	r1,r0,r29
13897  0000c9d8  3c020001	lhi	r2,((_debugstr)>>16)&0xffff
13898  0000c9dc  244261cb	addui	r2,r2,(_debugstr)&0xffff
13899  0000c9e0  ac220000	sw	(r1),r2
13900  0000c9e4  20020073	addi	r2,r0,#115
13901  0000c9e8  ac220004	sw	4(r1),r2
13902  0000c9ec  0fff7a64	jal	_dindex
13903  0000c9f0  54000000	nop; delay slot nop
13904  0000c9f4  23bd0008	addi	r29,r29,#8
13905  0000c9f8  64220000	snei	r2,r1,#0
13906  0000c9fc  10400068	beqz	r2,L87_LF5
13907  0000ca00  54000000	nop; delay slot nop
13908  0000ca04  001d1020	add	r2,r0,r29
13909  0000ca08  0fffcd14	jal	_GetCurrentPid
13910  0000ca0c  54000000	nop; delay slot nop
13911  0000ca10  00011020	add	r2,r0,r1
13912  0000ca14  23bdfff0	addi	r29,r29,#-16
13913  0000ca18  001d0820	add	r1,r0,r29
13914  0000ca1c  3c030002	lhi	r3,((LC14_LF5)>>16)&0xffff
13915  0000ca20  24630d40	addui	r3,r3,(LC14_LF5)&0xffff
13916  0000ca24  ac230000	sw	(r1),r3
13917  0000ca28  ac220004	sw	4(r1),r2
13918  0000ca2c  8fc30000	lw	r3,(r30)
13919  0000ca30  3c040002	lhi	r4,((_locks_LF5)>>16)&0xffff
13920  0000ca34  2484153c	addui	r4,r4,(_locks_LF5)&0xffff
13921  0000ca38  00641022	sub	r2,r3,r4
13922  0000ca3c  3c03cccc	lhi	r3,#-13108
13923  0000ca40  2463cccd	addui	r3,r3,#52429
13924  0000ca44  00400035	movi2fp	f0,r2
13925  0000ca48  00600835	movi2fp	f1,r3
13926  0000ca4c  0401000e	mult	f0,f0,f1
13927  0000ca50  00001034	movfp2i	r2,f0
13928  0000ca54  5c430002	srai	r3,r2,#0x2
13929  0000ca58  ac230008	sw	8(r1),r3
13930  0000ca5c  0c005b1c	jal	_printf
13931  0000ca60  54000000	nop; delay slot nop
13932  0000ca64  23bd0010	addi	r29,r29,#16
13933  0000ca68          	L87_LF5:
13934  0000ca68  23bdfff8	addi	r29,r29,#-8
13935  0000ca6c  001d0820	add	r1,r0,r29
13936  0000ca70  3c020001	lhi	r2,((_debugstr)>>16)&0xffff
13937  0000ca74  244261cb	addui	r2,r2,(_debugstr)&0xffff
13938  0000ca78  ac220000	sw	(r1),r2
13939  0000ca7c  2002002b	addi	r2,r0,#43
13940  0000ca80  ac220004	sw	4(r1),r2
13941  0000ca84  0fff79cc	jal	_dindex
13942  0000ca88  54000000	nop; delay slot nop
13943  0000ca8c  23bd0008	addi	r29,r29,#8
13944  0000ca90  64220000	snei	r2,r1,#0
13945  0000ca94  10400068	beqz	r2,L88_LF5
13946  0000ca98  54000000	nop; delay slot nop
13947  0000ca9c  001d1020	add	r2,r0,r29
13948  0000caa0  0fffcc7c	jal	_GetCurrentPid
13949  0000caa4  54000000	nop; delay slot nop
13950  0000caa8  00011020	add	r2,r0,r1
13951  0000caac  23bdfff0	addi	r29,r29,#-16
13952  0000cab0  001d0820	add	r1,r0,r29
13953  0000cab4  3c030002	lhi	r3,((LC14_LF5)>>16)&0xffff
13954  0000cab8  24630d40	addui	r3,r3,(LC14_LF5)&0xffff
13955  0000cabc  ac230000	sw	(r1),r3
13956  0000cac0  ac220004	sw	4(r1),r2
13957  0000cac4  8fc30000	lw	r3,(r30)
13958  0000cac8  3c040002	lhi	r4,((_locks_LF5)>>16)&0xffff
13959  0000cacc  2484153c	addui	r4,r4,(_locks_LF5)&0xffff
13960  0000cad0  00641022	sub	r2,r3,r4
13961  0000cad4  3c03cccc	lhi	r3,#-13108
13962  0000cad8  2463cccd	addui	r3,r3,#52429
13963  0000cadc  00400035	movi2fp	f0,r2
13964  0000cae0  00600835	movi2fp	f1,r3
13965  0000cae4  0401000e	mult	f0,f0,f1
13966  0000cae8  00001034	movfp2i	r2,f0
13967  0000caec  5c430002	srai	r3,r2,#0x2
13968  0000caf0  ac230008	sw	8(r1),r3
13969  0000caf4  0c005a84	jal	_printf
13970  0000caf8  54000000	nop; delay slot nop
13971  0000cafc  23bd0010	addi	r29,r29,#16
13972  0000cb00          	L88_LF5:
13973  0000cb00  23bdfff8	addi	r29,r29,#-8
13974  0000cb04  001d0820	add	r1,r0,r29
13975  0000cb08  8fc2fff0	lw	r2,-16(r30)
13976  0000cb0c  ac220000	sw	(r1),r2
13977  0000cb10  0c0051a8	jal	_RestoreIntrs
13978  0000cb14  54000000	nop; delay slot nop
13979  0000cb18  23bd0008	addi	r29,r29,#8
13980  0000cb1c  20010001	addi	r1,r0,#1
13981  0000cb20  080003ec	j	L82_LF5
13982  0000cb24  54000000	nop; delay slot nop
13983  0000cb28          	L86_LF5:
13984  0000cb28  23bdfff8	addi	r29,r29,#-8
13985  0000cb2c  001d0820	add	r1,r0,r29
13986  0000cb30  3c020001	lhi	r2,((_debugstr)>>16)&0xffff
13987  0000cb34  244261cb	addui	r2,r2,(_debugstr)&0xffff
13988  0000cb38  ac220000	sw	(r1),r2
13989  0000cb3c  20020073	addi	r2,r0,#115
13990  0000cb40  ac220004	sw	4(r1),r2
13991  0000cb44  0fff790c	jal	_dindex
13992  0000cb48  54000000	nop; delay slot nop
13993  0000cb4c  23bd0008	addi	r29,r29,#8
13994  0000cb50  64220000	snei	r2,r1,#0
13995  0000cb54  10400068	beqz	r2,L89_LF5
13996  0000cb58  54000000	nop; delay slot nop
13997  0000cb5c  001d1020	add	r2,r0,r29
13998  0000cb60  0fffcbbc	jal	_GetCurrentPid
13999  0000cb64  54000000	nop; delay slot nop
14000  0000cb68  00011020	add	r2,r0,r1
14001  0000cb6c  23bdfff0	addi	r29,r29,#-16
14002  0000cb70  001d0820	add	r1,r0,r29
14003  0000cb74  3c030002	lhi	r3,((LC15_LF5)>>16)&0xffff
14004  0000cb78  24630d6c	addui	r3,r3,(LC15_LF5)&0xffff
14005  0000cb7c  ac230000	sw	(r1),r3
14006  0000cb80  ac220004	sw	4(r1),r2
14007  0000cb84  8fc30000	lw	r3,(r30)
14008  0000cb88  3c040002	lhi	r4,((_locks_LF5)>>16)&0xffff
14009  0000cb8c  2484153c	addui	r4,r4,(_locks_LF5)&0xffff
14010  0000cb90  00641022	sub	r2,r3,r4
14011  0000cb94  3c03cccc	lhi	r3,#-13108
14012  0000cb98  2463cccd	addui	r3,r3,#52429
14013  0000cb9c  00400035	movi2fp	f0,r2
14014  0000cba0  00600835	movi2fp	f1,r3
14015  0000cba4  0401000e	mult	f0,f0,f1
14016  0000cba8  00001034	movfp2i	r2,f0
14017  0000cbac  5c430002	srai	r3,r2,#0x2
14018  0000cbb0  ac230008	sw	8(r1),r3
14019  0000cbb4  0c0059c4	jal	_printf
14020  0000cbb8  54000000	nop; delay slot nop
14021  0000cbbc  23bd0010	addi	r29,r29,#16
14022  0000cbc0          	L89_LF5:
14023  0000cbc0  23bdfff8	addi	r29,r29,#-8
14024  0000cbc4  001d0820	add	r1,r0,r29
14025  0000cbc8  3c020001	lhi	r2,((_debugstr)>>16)&0xffff
14026  0000cbcc  244261cb	addui	r2,r2,(_debugstr)&0xffff
14027  0000cbd0  ac220000	sw	(r1),r2
14028  0000cbd4  2002002b	addi	r2,r0,#43
14029  0000cbd8  ac220004	sw	4(r1),r2
14030  0000cbdc  0fff7874	jal	_dindex
14031  0000cbe0  54000000	nop; delay slot nop
14032  0000cbe4  23bd0008	addi	r29,r29,#8
14033  0000cbe8  64220000	snei	r2,r1,#0
14034  0000cbec  10400068	beqz	r2,L90_LF5
14035  0000cbf0  54000000	nop; delay slot nop
14036  0000cbf4  001d1020	add	r2,r0,r29
14037  0000cbf8  0fffcb24	jal	_GetCurrentPid
14038  0000cbfc  54000000	nop; delay slot nop
14039  0000cc00  00011020	add	r2,r0,r1
14040  0000cc04  23bdfff0	addi	r29,r29,#-16
14041  0000cc08  001d0820	add	r1,r0,r29
14042  0000cc0c  3c030002	lhi	r3,((LC15_LF5)>>16)&0xffff
14043  0000cc10  24630d6c	addui	r3,r3,(LC15_LF5)&0xffff
14044  0000cc14  ac230000	sw	(r1),r3
14045  0000cc18  ac220004	sw	4(r1),r2
14046  0000cc1c  8fc30000	lw	r3,(r30)
14047  0000cc20  3c040002	lhi	r4,((_locks_LF5)>>16)&0xffff
14048  0000cc24  2484153c	addui	r4,r4,(_locks_LF5)&0xffff
14049  0000cc28  00641022	sub	r2,r3,r4
14050  0000cc2c  3c03cccc	lhi	r3,#-13108
14051  0000cc30  2463cccd	addui	r3,r3,#52429
14052  0000cc34  00400035	movi2fp	f0,r2
14053  0000cc38  00600835	movi2fp	f1,r3
14054  0000cc3c  0401000e	mult	f0,f0,f1
14055  0000cc40  00001034	movfp2i	r2,f0
14056  0000cc44  5c430002	srai	r3,r2,#0x2
14057  0000cc48  ac230008	sw	8(r1),r3
14058  0000cc4c  0c00592c	jal	_printf
14059  0000cc50  54000000	nop; delay slot nop
14060  0000cc54  23bd0010	addi	r29,r29,#16
14061  0000cc58          	L90_LF5:
14062  0000cc58  8fc10000	lw	r1,(r30)
14063  0000cc5c  8c220000	lw	r2,(r1)
14064  0000cc60  74410000	sgei	r1,r2,#0
14065  0000cc64  102001a4	beqz	r1,L91_LF5
14066  0000cc68  54000000	nop; delay slot nop
14067  0000cc6c  23bdfff8	addi	r29,r29,#-8
14068  0000cc70  001d0820	add	r1,r0,r29
14069  0000cc74  3c020001	lhi	r2,((_debugstr)>>16)&0xffff
14070  0000cc78  244261cb	addui	r2,r2,(_debugstr)&0xffff
14071  0000cc7c  ac220000	sw	(r1),r2
14072  0000cc80  20020073	addi	r2,r0,#115
14073  0000cc84  ac220004	sw	4(r1),r2
14074  0000cc88  0fff77c8	jal	_dindex
14075  0000cc8c  54000000	nop; delay slot nop
14076  0000cc90  23bd0008	addi	r29,r29,#8
14077  0000cc94  64220000	snei	r2,r1,#0
14078  0000cc98  10400034	beqz	r2,L92_LF5
14079  0000cc9c  54000000	nop; delay slot nop
14080  0000cca0  001d1020	add	r2,r0,r29
14081  0000cca4  0fffca78	jal	_GetCurrentPid
14082  0000cca8  54000000	nop; delay slot nop
14083  0000ccac  23bdfff8	addi	r29,r29,#-8
14084  0000ccb0  001d1020	add	r2,r0,r29
14085  0000ccb4  3c030002	lhi	r3,((LC16_LF5)>>16)&0xffff
14086  0000ccb8  24630d98	addui	r3,r3,(LC16_LF5)&0xffff
14087  0000ccbc  ac430000	sw	(r2),r3
14088  0000ccc0  ac410004	sw	4(r2),r1
14089  0000ccc4  0c0058b4	jal	_printf
14090  0000ccc8  54000000	nop; delay slot nop
14091  0000cccc  23bd0008	addi	r29,r29,#8
14092  0000ccd0          	L92_LF5:
14093  0000ccd0  23bdfff8	addi	r29,r29,#-8
14094  0000ccd4  001d0820	add	r1,r0,r29
14095  0000ccd8  3c020001	lhi	r2,((_debugstr)>>16)&0xffff
14096  0000ccdc  244261cb	addui	r2,r2,(_debugstr)&0xffff
14097  0000cce0  ac220000	sw	(r1),r2
14098  0000cce4  2002002b	addi	r2,r0,#43
14099  0000cce8  ac220004	sw	4(r1),r2
14100  0000ccec  0fff7764	jal	_dindex
14101  0000ccf0  54000000	nop; delay slot nop
14102  0000ccf4  23bd0008	addi	r29,r29,#8
14103  0000ccf8  64220000	snei	r2,r1,#0
14104  0000ccfc  10400034	beqz	r2,L93_LF5
14105  0000cd00  54000000	nop; delay slot nop
14106  0000cd04  001d1020	add	r2,r0,r29
14107  0000cd08  0fffca14	jal	_GetCurrentPid
14108  0000cd0c  54000000	nop; delay slot nop
14109  0000cd10  23bdfff8	addi	r29,r29,#-8
14110  0000cd14  001d1020	add	r2,r0,r29
14111  0000cd18  3c030002	lhi	r3,((LC16_LF5)>>16)&0xffff
14112  0000cd1c  24630d98	addui	r3,r3,(LC16_LF5)&0xffff
14113  0000cd20  ac430000	sw	(r2),r3
14114  0000cd24  ac410004	sw	4(r2),r1
14115  0000cd28  0c005850	jal	_printf
14116  0000cd2c  54000000	nop; delay slot nop
14117  0000cd30  23bd0008	addi	r29,r29,#8
14118  0000cd34          	L93_LF5:
14119  0000cd34  23bdfff8	addi	r29,r29,#-8
14120  0000cd38  001d0820	add	r1,r0,r29
14121  0000cd3c  3c020001	lhi	r2,((_currentPCB)>>16)&0xffff
14122  0000cd40  24426294	addui	r2,r2,(_currentPCB)&0xffff
14123  0000cd44  8c430000	lw	r3,(r2)
14124  0000cd48  ac230000	sw	(r1),r3
14125  0000cd4c  0fffd57c	jal	_AQueueAllocLink
14126  0000cd50  54000000	nop; delay slot nop
14127  0000cd54  23bd0008	addi	r29,r29,#8
14128  0000cd58  afc1fff4	sw	-12(r30),r1
14129  0000cd5c  8fc1fff4	lw	r1,-12(r30)
14130  0000cd60  64220000	snei	r2,r1,#0
14131  0000cd64  14400030	bnez	r2,L94_LF5
14132  0000cd68  54000000	nop; delay slot nop
14133  0000cd6c  23bdfff8	addi	r29,r29,#-8
14134  0000cd70  001d0820	add	r1,r0,r29
14135  0000cd74  3c020002	lhi	r2,((LC17_LF5)>>16)&0xffff
14136  0000cd78  24420dc4	addui	r2,r2,(LC17_LF5)&0xffff
14137  0000cd7c  ac220000	sw	(r1),r2
14138  0000cd80  0c0057f8	jal	_printf
14139  0000cd84  54000000	nop; delay slot nop
14140  0000cd88  23bd0008	addi	r29,r29,#8
14141  0000cd8c  001d1020	add	r2,r0,r29
14142  0000cd90  0c0057d0	jal	_exitsim
14143  0000cd94  54000000	nop; delay slot nop
14144  0000cd98          	L94_LF5:
14145  0000cd98  23bdfff8	addi	r29,r29,#-8
14146  0000cd9c  001d0820	add	r1,r0,r29
14147  0000cda0  8fc20000	lw	r2,(r30)
14148  0000cda4  20430004	addi	r3,r2,#4
14149  0000cda8  ac230000	sw	(r1),r3
14150  0000cdac  8fc2fff4	lw	r2,-12(r30)
14151  0000cdb0  ac220004	sw	4(r1),r2
14152  0000cdb4  0fffe340	jal	_AQueueInsertLast
14153  0000cdb8  54000000	nop; delay slot nop
14154  0000cdbc  23bd0008	addi	r29,r29,#8
14155  0000cdc0  64220001	snei	r2,r1,#1
14156  0000cdc4  10400030	beqz	r2,L95_LF5
14157  0000cdc8  54000000	nop; delay slot nop
14158  0000cdcc  23bdfff8	addi	r29,r29,#-8
14159  0000cdd0  001d0820	add	r1,r0,r29
14160  0000cdd4  3c020002	lhi	r2,((LC18_LF5)>>16)&0xffff
14161  0000cdd8  24420e0c	addui	r2,r2,(LC18_LF5)&0xffff
14162  0000cddc  ac220000	sw	(r1),r2
14163  0000cde0  0c005798	jal	_printf
14164  0000cde4  54000000	nop; delay slot nop
14165  0000cde8  23bd0008	addi	r29,r29,#8
14166  0000cdec  001d1020	add	r2,r0,r29
14167  0000cdf0  0c005770	jal	_exitsim
14168  0000cdf4  54000000	nop; delay slot nop
14169  0000cdf8          	L95_LF5:
14170  0000cdf8  001d1020	add	r2,r0,r29
14171  0000cdfc  0c0056c8	jal	_ProcessSleep
14172  0000ce00  54000000	nop; delay slot nop
14173  0000ce04  080000e0	j	L96_LF5
14174  0000ce08  54000000	nop; delay slot nop
14175  0000ce0c          	L91_LF5:
14176  0000ce0c  23bdfff8	addi	r29,r29,#-8
14177  0000ce10  001d0820	add	r1,r0,r29
14178  0000ce14  3c020001	lhi	r2,((_debugstr)>>16)&0xffff
14179  0000ce18  244261cb	addui	r2,r2,(_debugstr)&0xffff
14180  0000ce1c  ac220000	sw	(r1),r2
14181  0000ce20  20020073	addi	r2,r0,#115
14182  0000ce24  ac220004	sw	4(r1),r2
14183  0000ce28  0fff7628	jal	_dindex
14184  0000ce2c  54000000	nop; delay slot nop
14185  0000ce30  23bd0008	addi	r29,r29,#8
14186  0000ce34  64220000	snei	r2,r1,#0
14187  0000ce38  10400034	beqz	r2,L97_LF5
14188  0000ce3c  54000000	nop; delay slot nop
14189  0000ce40  001d1020	add	r2,r0,r29
14190  0000ce44  0fffc8d8	jal	_GetCurrentPid
14191  0000ce48  54000000	nop; delay slot nop
14192  0000ce4c  23bdfff8	addi	r29,r29,#-8
14193  0000ce50  001d1020	add	r2,r0,r29
14194  0000ce54  3c030002	lhi	r3,((LC19_LF5)>>16)&0xffff
14195  0000ce58  24630e5c	addui	r3,r3,(LC19_LF5)&0xffff
14196  0000ce5c  ac430000	sw	(r2),r3
14197  0000ce60  ac410004	sw	4(r2),r1
14198  0000ce64  0c005714	jal	_printf
14199  0000ce68  54000000	nop; delay slot nop
14200  0000ce6c  23bd0008	addi	r29,r29,#8
14201  0000ce70          	L97_LF5:
14202  0000ce70  23bdfff8	addi	r29,r29,#-8
14203  0000ce74  001d0820	add	r1,r0,r29
14204  0000ce78  3c020001	lhi	r2,((_debugstr)>>16)&0xffff
14205  0000ce7c  244261cb	addui	r2,r2,(_debugstr)&0xffff
14206  0000ce80  ac220000	sw	(r1),r2
14207  0000ce84  2002002b	addi	r2,r0,#43
14208  0000ce88  ac220004	sw	4(r1),r2
14209  0000ce8c  0fff75c4	jal	_dindex
14210  0000ce90  54000000	nop; delay slot nop
14211  0000ce94  23bd0008	addi	r29,r29,#8
14212  0000ce98  64220000	snei	r2,r1,#0
14213  0000ce9c  10400034	beqz	r2,L98_LF5
14214  0000cea0  54000000	nop; delay slot nop
14215  0000cea4  001d1020	add	r2,r0,r29
14216  0000cea8  0fffc874	jal	_GetCurrentPid
14217  0000ceac  54000000	nop; delay slot nop
14218  0000ceb0  23bdfff8	addi	r29,r29,#-8
14219  0000ceb4  001d1020	add	r2,r0,r29
14220  0000ceb8  3c030002	lhi	r3,((LC19_LF5)>>16)&0xffff
14221  0000cebc  24630e5c	addui	r3,r3,(LC19_LF5)&0xffff
14222  0000cec0  ac430000	sw	(r2),r3
14223  0000cec4  ac410004	sw	4(r2),r1
14224  0000cec8  0c0056b0	jal	_printf
14225  0000cecc  54000000	nop; delay slot nop
14226  0000ced0  23bd0008	addi	r29,r29,#8
14227  0000ced4          	L98_LF5:
14228  0000ced4  001d1020	add	r2,r0,r29
14229  0000ced8  0fffc844	jal	_GetCurrentPid
14230  0000cedc  54000000	nop; delay slot nop
14231  0000cee0  8fc20000	lw	r2,(r30)
14232  0000cee4  ac410000	sw	(r2),r1
14233  0000cee8          	L96_LF5:
14234  0000cee8  23bdfff8	addi	r29,r29,#-8
14235  0000ceec  001d0820	add	r1,r0,r29
14236  0000cef0  8fc2fff0	lw	r2,-16(r30)
14237  0000cef4  ac220000	sw	(r1),r2
14238  0000cef8  0c004dc0	jal	_RestoreIntrs
14239  0000cefc  54000000	nop; delay slot nop
14240  0000cf00  23bd0008	addi	r29,r29,#8
14241  0000cf04  20010001	addi	r1,r0,#1
14242  0000cf08  08000004	j	L82_LF5
14243  0000cf0c  54000000	nop; delay slot nop
14244  0000cf10          	L82_LF5:
14245  0000cf10  8fa20000	lw	r2,0(r29)
14246  0000cf14  8fa30004	lw	r3,4(r29)
14247  0000cf18  8fa40008	lw	r4,8(r29)
14248  0000cf1c  8fdffff8	lw	r31,-8(r30)
14249  0000cf20  001ee820	add	r29,r0,r30
14250  0000cf24  8fdefffc	lw	r30,-4(r30)
14251  0000cf28  4be00000	jr	r31
14252  0000cf2c  54000000	nop
14253  0000cf30          	.endproc _LockAcquire
14254  0000cf30          	.align 2
14255  0000cf30          	.proc _LockHandleAcquire
14256  0000cf30          	.global _LockHandleAcquire
14257  0000cf30          	_LockHandleAcquire:
14258                      ;  Function 'LockHandleAcquire'; 0 bytes of locals, 4 regs to save.
14259  0000cf30  afbefffc	sw	-4(r29),r30; push fp
14260  0000cf34  001df020	add	r30,r0,r29; fp = sp
14261  0000cf38  afbffff8	sw	-8(r29),r31; push ret addr
14262  0000cf3c  2fbd0018	subui	r29,r29,#24; alloc local storage
14263  0000cf40  afa20000	sw	0(r29),r2
14264  0000cf44  afa30004	sw	4(r29),r3
14265  0000cf48  afa40008	sw	8(r29),r4
14266  0000cf4c  afa5000c	sw	12(r29),r5
14267  0000cf50  8fc10000	lw	r1,(r30)
14268  0000cf54  68220000	slti	r2,r1,#0
14269  0000cf58  10400010	beqz	r2,L100_LF5
14270  0000cf5c  54000000	nop; delay slot nop
14271  0000cf60  2001ffff	addi	r1,r0,#-1
14272  0000cf64  080000a4	j	L99_LF5
14273  0000cf68  54000000	nop; delay slot nop
14274  0000cf6c          	L100_LF5:
14275  0000cf6c  8fc10000	lw	r1,(r30)
14276  0000cf70  6c22003f	sgti	r2,r1,#63
14277  0000cf74  10400010	beqz	r2,L101_LF5
14278  0000cf78  54000000	nop; delay slot nop
14279  0000cf7c  2001ffff	addi	r1,r0,#-1
14280  0000cf80  08000088	j	L99_LF5
14281  0000cf84  54000000	nop; delay slot nop
14282  0000cf88          	L101_LF5:
14283  0000cf88  8fc10000	lw	r1,(r30)
14284  0000cf8c  00011820	add	r3,r0,r1
14285  0000cf90  50620002	slli	r2,r3,#0x2
14286  0000cf94  00411020	add	r2,r2,r1
14287  0000cf98  50410002	slli	r1,r2,#0x2
14288  0000cf9c  3c050002	lhi	r5,((_locks_LF5)>>16)&0xffff
14289  0000cfa0  24a5153c	addui	r5,r5,(_locks_LF5)&0xffff
14290  0000cfa4  00251020	add	r2,r1,r5
14291  0000cfa8  8c410010	lw	r1,16(r2)
14292  0000cfac  64220000	snei	r2,r1,#0
14293  0000cfb0  14400010	bnez	r2,L102_LF5
14294  0000cfb4  54000000	nop; delay slot nop
14295  0000cfb8  2001ffff	addi	r1,r0,#-1
14296  0000cfbc  0800004c	j	L99_LF5
14297  0000cfc0  54000000	nop; delay slot nop
14298  0000cfc4          	L102_LF5:
14299  0000cfc4  23bdfff8	addi	r29,r29,#-8
14300  0000cfc8  001d0820	add	r1,r0,r29
14301  0000cfcc  8fc20000	lw	r2,(r30)
14302  0000cfd0  00022020	add	r4,r0,r2
14303  0000cfd4  50830002	slli	r3,r4,#0x2
14304  0000cfd8  00621820	add	r3,r3,r2
14305  0000cfdc  50620002	slli	r2,r3,#0x2
14306  0000cfe0  3c030002	lhi	r3,((_locks_LF5)>>16)&0xffff
14307  0000cfe4  2463153c	addui	r3,r3,(_locks_LF5)&0xffff
14308  0000cfe8  00621020	add	r2,r3,r2
14309  0000cfec  ac220000	sw	(r1),r2
14310  0000cff0  0ffff8bc	jal	_LockAcquire
14311  0000cff4  54000000	nop; delay slot nop
14312  0000cff8  23bd0008	addi	r29,r29,#8
14313  0000cffc  00011020	add	r2,r0,r1
14314  0000d000  00020820	add	r1,r0,r2
14315  0000d004  08000004	j	L99_LF5
14316  0000d008  54000000	nop; delay slot nop
14317  0000d00c          	L99_LF5:
14318  0000d00c  8fa20000	lw	r2,0(r29)
14319  0000d010  8fa30004	lw	r3,4(r29)
14320  0000d014  8fa40008	lw	r4,8(r29)
14321  0000d018  8fa5000c	lw	r5,12(r29)
14322  0000d01c  8fdffff8	lw	r31,-8(r30)
14323  0000d020  001ee820	add	r29,r0,r30
14324  0000d024  8fdefffc	lw	r30,-4(r30)
14325  0000d028  4be00000	jr	r31
14326  0000d02c  54000000	nop
14327  0000d030          	.endproc _LockHandleAcquire
14328  0000d030          	.data
14329  00020e92          	.align 2
14330  00020e94          	LC20_LF5:
14331  00020e94  4c6f636b	.ascii "LockRelease: Proc %d releasing lock %d.\n\000"
14331  00020e98  52656c65	
14331  00020e9c  6173653a	
14331  00020ea0  2050726f	
14331  00020ea4  63202564	
14331  00020ea8  2072656c	
14331  00020eac  65617369	
14331  00020eb0  6e67206c	
14331  00020eb4  6f636b20	
14331  00020eb8  25642e0a	
14331  00020ebc  00      	
14332  00020ebd          	.align 2
14333  00020ec0          	LC21_LF5:
14334  00020ec0  4c6f636b	.ascii "LockRelease: Proc %d does not own lock %d.\n\000"
14334  00020ec4  52656c65	
14334  00020ec8  6173653a	
14334  00020ecc  2050726f	
14334  00020ed0  63202564	
14334  00020ed4  20646f65	
14334  00020ed8  73206e6f	
14334  00020edc  74206f77	
14334  00020ee0  6e206c6f	
14334  00020ee4  636b2025	
14334  00020ee8  642e0a00	
14335  00020eec          	.align 2
14336  00020eec          	LC22_LF5:
14337  00020eec  46415441	.ascii "FATAL ERROR: could not remove link from lock queue in LockRelease!\n\000"
14337  00020ef0  4c204552	
14337  00020ef4  524f523a	
14337  00020ef8  20636f75	
14337  00020efc  6c64206e	
14337  00020f00  6f742072	
14337  00020f04  656d6f76	
14337  00020f08  65206c69	
14337  00020f0c  6e6b2066	
14337  00020f10  726f6d20	
14337  00020f14  6c6f636b	
14337  00020f18  20717565	
14337  00020f1c  75652069	
14337  00020f20  6e204c6f	
14337  00020f24  636b5265	
14337  00020f28  6c656173	
14337  00020f2c  65210a00	
14338  00020f30          	.align 2
14339  00020f30          	LC23_LF5:
14340  00020f30  4c6f636b	.ascii "LockRelease: Waking up PID %d, assigning lock.\n\000"
14340  00020f34  52656c65	
14340  00020f38  6173653a	
14340  00020f3c  2057616b	
14340  00020f40  696e6720	
14340  00020f44  75702050	
14340  00020f48  49442025	
14340  00020f4c  642c2061	
14340  00020f50  73736967	
14340  00020f54  6e696e67	
14340  00020f58  206c6f63	
14340  00020f5c  6b2e0a00	
14341  00020f60          	.text
14342  0000d030          	.align 2
14343  0000d030          	.proc _LockRelease
14344  0000d030          	.global _LockRelease
14345  0000d030          	_LockRelease:
14346                      ;  Function 'LockRelease'; 16 bytes of locals, 3 regs to save.
14347  0000d030  afbefffc	sw	-4(r29),r30; push fp
14348  0000d034  001df020	add	r30,r0,r29; fp = sp
14349  0000d038  afbffff8	sw	-8(r29),r31; push ret addr
14350  0000d03c  2fbd0028	subui	r29,r29,#40; alloc local storage
14351  0000d040  afa20000	sw	0(r29),r2
14352  0000d044  afa30004	sw	4(r29),r3
14353  0000d048  afa40008	sw	8(r29),r4
14354  0000d04c  8fc10000	lw	r1,(r30)
14355  0000d050  64220000	snei	r2,r1,#0
14356  0000d054  14400010	bnez	r2,L104_LF5
14357  0000d058  54000000	nop; delay slot nop
14358  0000d05c  2001ffff	addi	r1,r0,#-1
14359  0000d060  080004c0	j	L103_LF5
14360  0000d064  54000000	nop; delay slot nop
14361  0000d068          	L104_LF5:
14362  0000d068  001d1020	add	r2,r0,r29
14363  0000d06c  0c004b9c	jal	_DisableIntrs
14364  0000d070  54000000	nop; delay slot nop
14365  0000d074  afc1fff0	sw	-16(r30),r1
14366  0000d078  23bdfff8	addi	r29,r29,#-8
14367  0000d07c  001d0820	add	r1,r0,r29
14368  0000d080  3c020001	lhi	r2,((_debugstr)>>16)&0xffff
14369  0000d084  244261cb	addui	r2,r2,(_debugstr)&0xffff
14370  0000d088  ac220000	sw	(r1),r2
14371  0000d08c  20020073	addi	r2,r0,#115
14372  0000d090  ac220004	sw	4(r1),r2
14373  0000d094  0fff73bc	jal	_dindex
14374  0000d098  54000000	nop; delay slot nop
14375  0000d09c  23bd0008	addi	r29,r29,#8
14376  0000d0a0  64220000	snei	r2,r1,#0
14377  0000d0a4  10400068	beqz	r2,L105_LF5
14378  0000d0a8  54000000	nop; delay slot nop
14379  0000d0ac  001d1020	add	r2,r0,r29
14380  0000d0b0  0fffc66c	jal	_GetCurrentPid
14381  0000d0b4  54000000	nop; delay slot nop
14382  0000d0b8  00011020	add	r2,r0,r1
14383  0000d0bc  23bdfff0	addi	r29,r29,#-16
14384  0000d0c0  001d0820	add	r1,r0,r29
14385  0000d0c4  3c030002	lhi	r3,((LC20_LF5)>>16)&0xffff
14386  0000d0c8  24630e94	addui	r3,r3,(LC20_LF5)&0xffff
14387  0000d0cc  ac230000	sw	(r1),r3
14388  0000d0d0  ac220004	sw	4(r1),r2
14389  0000d0d4  8fc30000	lw	r3,(r30)
14390  0000d0d8  3c040002	lhi	r4,((_locks_LF5)>>16)&0xffff
14391  0000d0dc  2484153c	addui	r4,r4,(_locks_LF5)&0xffff
14392  0000d0e0  00641022	sub	r2,r3,r4
14393  0000d0e4  3c03cccc	lhi	r3,#-13108
14394  0000d0e8  2463cccd	addui	r3,r3,#52429
14395  0000d0ec  00400035	movi2fp	f0,r2
14396  0000d0f0  00600835	movi2fp	f1,r3
14397  0000d0f4  0401000e	mult	f0,f0,f1
14398  0000d0f8  00001034	movfp2i	r2,f0
14399  0000d0fc  5c430002	srai	r3,r2,#0x2
14400  0000d100  ac230008	sw	8(r1),r3
14401  0000d104  0c005474	jal	_printf
14402  0000d108  54000000	nop; delay slot nop
14403  0000d10c  23bd0010	addi	r29,r29,#16
14404  0000d110          	L105_LF5:
14405  0000d110  23bdfff8	addi	r29,r29,#-8
14406  0000d114  001d0820	add	r1,r0,r29
14407  0000d118  3c020001	lhi	r2,((_debugstr)>>16)&0xffff
14408  0000d11c  244261cb	addui	r2,r2,(_debugstr)&0xffff
14409  0000d120  ac220000	sw	(r1),r2
14410  0000d124  2002002b	addi	r2,r0,#43
14411  0000d128  ac220004	sw	4(r1),r2
14412  0000d12c  0fff7324	jal	_dindex
14413  0000d130  54000000	nop; delay slot nop
14414  0000d134  23bd0008	addi	r29,r29,#8
14415  0000d138  64220000	snei	r2,r1,#0
14416  0000d13c  10400068	beqz	r2,L106_LF5
14417  0000d140  54000000	nop; delay slot nop
14418  0000d144  001d1020	add	r2,r0,r29
14419  0000d148  0fffc5d4	jal	_GetCurrentPid
14420  0000d14c  54000000	nop; delay slot nop
14421  0000d150  00011020	add	r2,r0,r1
14422  0000d154  23bdfff0	addi	r29,r29,#-16
14423  0000d158  001d0820	add	r1,r0,r29
14424  0000d15c  3c030002	lhi	r3,((LC20_LF5)>>16)&0xffff
14425  0000d160  24630e94	addui	r3,r3,(LC20_LF5)&0xffff
14426  0000d164  ac230000	sw	(r1),r3
14427  0000d168  ac220004	sw	4(r1),r2
14428  0000d16c  8fc30000	lw	r3,(r30)
14429  0000d170  3c040002	lhi	r4,((_locks_LF5)>>16)&0xffff
14430  0000d174  2484153c	addui	r4,r4,(_locks_LF5)&0xffff
14431  0000d178  00641022	sub	r2,r3,r4
14432  0000d17c  3c03cccc	lhi	r3,#-13108
14433  0000d180  2463cccd	addui	r3,r3,#52429
14434  0000d184  00400035	movi2fp	f0,r2
14435  0000d188  00600835	movi2fp	f1,r3
14436  0000d18c  0401000e	mult	f0,f0,f1
14437  0000d190  00001034	movfp2i	r2,f0
14438  0000d194  5c430002	srai	r3,r2,#0x2
14439  0000d198  ac230008	sw	8(r1),r3
14440  0000d19c  0c0053dc	jal	_printf
14441  0000d1a0  54000000	nop; delay slot nop
14442  0000d1a4  23bd0010	addi	r29,r29,#16
14443  0000d1a8          	L106_LF5:
14444  0000d1a8  8fc20000	lw	r2,(r30)
14445  0000d1ac  001d1820	add	r3,r0,r29
14446  0000d1b0  0fffc56c	jal	_GetCurrentPid
14447  0000d1b4  54000000	nop; delay slot nop
14448  0000d1b8  8c420000	lw	r2,(r2)
14449  0000d1bc  00410829	sne	r1,r2,r1
14450  0000d1c0  10200140	beqz	r1,L107_LF5
14451  0000d1c4  54000000	nop; delay slot nop
14452  0000d1c8  23bdfff8	addi	r29,r29,#-8
14453  0000d1cc  001d0820	add	r1,r0,r29
14454  0000d1d0  3c020001	lhi	r2,((_debugstr)>>16)&0xffff
14455  0000d1d4  244261cb	addui	r2,r2,(_debugstr)&0xffff
14456  0000d1d8  ac220000	sw	(r1),r2
14457  0000d1dc  20020073	addi	r2,r0,#115
14458  0000d1e0  ac220004	sw	4(r1),r2
14459  0000d1e4  0fff726c	jal	_dindex
14460  0000d1e8  54000000	nop; delay slot nop
14461  0000d1ec  23bd0008	addi	r29,r29,#8
14462  0000d1f0  64220000	snei	r2,r1,#0
14463  0000d1f4  10400068	beqz	r2,L108_LF5
14464  0000d1f8  54000000	nop; delay slot nop
14465  0000d1fc  001d1020	add	r2,r0,r29
14466  0000d200  0fffc51c	jal	_GetCurrentPid
14467  0000d204  54000000	nop; delay slot nop
14468  0000d208  00011020	add	r2,r0,r1
14469  0000d20c  23bdfff0	addi	r29,r29,#-16
14470  0000d210  001d0820	add	r1,r0,r29
14471  0000d214  3c030002	lhi	r3,((LC21_LF5)>>16)&0xffff
14472  0000d218  24630ec0	addui	r3,r3,(LC21_LF5)&0xffff
14473  0000d21c  ac230000	sw	(r1),r3
14474  0000d220  ac220004	sw	4(r1),r2
14475  0000d224  8fc30000	lw	r3,(r30)
14476  0000d228  3c040002	lhi	r4,((_locks_LF5)>>16)&0xffff
14477  0000d22c  2484153c	addui	r4,r4,(_locks_LF5)&0xffff
14478  0000d230  00641022	sub	r2,r3,r4
14479  0000d234  3c03cccc	lhi	r3,#-13108
14480  0000d238  2463cccd	addui	r3,r3,#52429
14481  0000d23c  00400035	movi2fp	f0,r2
14482  0000d240  00600835	movi2fp	f1,r3
14483  0000d244  0401000e	mult	f0,f0,f1
14484  0000d248  00001034	movfp2i	r2,f0
14485  0000d24c  5c430002	srai	r3,r2,#0x2
14486  0000d250  ac230008	sw	8(r1),r3
14487  0000d254  0c005324	jal	_printf
14488  0000d258  54000000	nop; delay slot nop
14489  0000d25c  23bd0010	addi	r29,r29,#16
14490  0000d260          	L108_LF5:
14491  0000d260  23bdfff8	addi	r29,r29,#-8
14492  0000d264  001d0820	add	r1,r0,r29
14493  0000d268  3c020001	lhi	r2,((_debugstr)>>16)&0xffff
14494  0000d26c  244261cb	addui	r2,r2,(_debugstr)&0xffff
14495  0000d270  ac220000	sw	(r1),r2
14496  0000d274  2002002b	addi	r2,r0,#43
14497  0000d278  ac220004	sw	4(r1),r2
14498  0000d27c  0fff71d4	jal	_dindex
14499  0000d280  54000000	nop; delay slot nop
14500  0000d284  23bd0008	addi	r29,r29,#8
14501  0000d288  64220000	snei	r2,r1,#0
14502  0000d28c  10400068	beqz	r2,L109_LF5
14503  0000d290  54000000	nop; delay slot nop
14504  0000d294  001d1020	add	r2,r0,r29
14505  0000d298  0fffc484	jal	_GetCurrentPid
14506  0000d29c  54000000	nop; delay slot nop
14507  0000d2a0  00011020	add	r2,r0,r1
14508  0000d2a4  23bdfff0	addi	r29,r29,#-16
14509  0000d2a8  001d0820	add	r1,r0,r29
14510  0000d2ac  3c030002	lhi	r3,((LC21_LF5)>>16)&0xffff
14511  0000d2b0  24630ec0	addui	r3,r3,(LC21_LF5)&0xffff
14512  0000d2b4  ac230000	sw	(r1),r3
14513  0000d2b8  ac220004	sw	4(r1),r2
14514  0000d2bc  8fc30000	lw	r3,(r30)
14515  0000d2c0  3c040002	lhi	r4,((_locks_LF5)>>16)&0xffff
14516  0000d2c4  2484153c	addui	r4,r4,(_locks_LF5)&0xffff
14517  0000d2c8  00641022	sub	r2,r3,r4
14518  0000d2cc  3c03cccc	lhi	r3,#-13108
14519  0000d2d0  2463cccd	addui	r3,r3,#52429
14520  0000d2d4  00400035	movi2fp	f0,r2
14521  0000d2d8  00600835	movi2fp	f1,r3
14522  0000d2dc  0401000e	mult	f0,f0,f1
14523  0000d2e0  00001034	movfp2i	r2,f0
14524  0000d2e4  5c430002	srai	r3,r2,#0x2
14525  0000d2e8  ac230008	sw	8(r1),r3
14526  0000d2ec  0c00528c	jal	_printf
14527  0000d2f0  54000000	nop; delay slot nop
14528  0000d2f4  23bd0010	addi	r29,r29,#16
14529  0000d2f8          	L109_LF5:
14530  0000d2f8  2001ffff	addi	r1,r0,#-1
14531  0000d2fc  08000224	j	L103_LF5
14532  0000d300  54000000	nop; delay slot nop
14533  0000d304          	L107_LF5:
14534  0000d304  8fc10000	lw	r1,(r30)
14535  0000d308  2002ffff	addi	r2,r0,#-1
14536  0000d30c  ac220000	sw	(r1),r2
14537  0000d310  23bdfff8	addi	r29,r29,#-8
14538  0000d314  001d0820	add	r1,r0,r29
14539  0000d318  8fc20000	lw	r2,(r30)
14540  0000d31c  20430004	addi	r3,r2,#4
14541  0000d320  ac230000	sw	(r1),r3
14542  0000d324  0fffdff8	jal	_AQueueEmpty
14543  0000d328  54000000	nop; delay slot nop
14544  0000d32c  23bd0008	addi	r29,r29,#8
14545  0000d330  64220000	snei	r2,r1,#0
14546  0000d334  144001c4	bnez	r2,L110_LF5
14547  0000d338  54000000	nop; delay slot nop
14548  0000d33c  23bdfff8	addi	r29,r29,#-8
14549  0000d340  001d0820	add	r1,r0,r29
14550  0000d344  8fc20000	lw	r2,(r30)
14551  0000d348  20430004	addi	r3,r2,#4
14552  0000d34c  ac230000	sw	(r1),r3
14553  0000d350  0fffdedc	jal	_AQueueFirst
14554  0000d354  54000000	nop; delay slot nop
14555  0000d358  23bd0008	addi	r29,r29,#8
14556  0000d35c  afc1fff4	sw	-12(r30),r1
14557  0000d360  23bdfff8	addi	r29,r29,#-8
14558  0000d364  001d0820	add	r1,r0,r29
14559  0000d368  8fc2fff4	lw	r2,-12(r30)
14560  0000d36c  ac220000	sw	(r1),r2
14561  0000d370  0fffdf34	jal	_AQueueObject
14562  0000d374  54000000	nop; delay slot nop
14563  0000d378  23bd0008	addi	r29,r29,#8
14564  0000d37c  afc1ffec	sw	-20(r30),r1
14565  0000d380  23bdfff8	addi	r29,r29,#-8
14566  0000d384  001d0820	add	r1,r0,r29
14567  0000d388  23c2fff4	addi	r2,r30,#-12
14568  0000d38c  ac220000	sw	(r1),r2
14569  0000d390  0fffd2f8	jal	_AQueueRemove
14570  0000d394  54000000	nop; delay slot nop
14571  0000d398  23bd0008	addi	r29,r29,#8
14572  0000d39c  64220001	snei	r2,r1,#1
14573  0000d3a0  10400030	beqz	r2,L111_LF5
14574  0000d3a4  54000000	nop; delay slot nop
14575  0000d3a8  23bdfff8	addi	r29,r29,#-8
14576  0000d3ac  001d0820	add	r1,r0,r29
14577  0000d3b0  3c020002	lhi	r2,((LC22_LF5)>>16)&0xffff
14578  0000d3b4  24420eec	addui	r2,r2,(LC22_LF5)&0xffff
14579  0000d3b8  ac220000	sw	(r1),r2
14580  0000d3bc  0c0051bc	jal	_printf
14581  0000d3c0  54000000	nop; delay slot nop
14582  0000d3c4  23bd0008	addi	r29,r29,#8
14583  0000d3c8  001d1020	add	r2,r0,r29
14584  0000d3cc  0c005194	jal	_exitsim
14585  0000d3d0  54000000	nop; delay slot nop
14586  0000d3d4          	L111_LF5:
14587  0000d3d4  23bdfff8	addi	r29,r29,#-8
14588  0000d3d8  001d0820	add	r1,r0,r29
14589  0000d3dc  3c020001	lhi	r2,((_debugstr)>>16)&0xffff
14590  0000d3e0  244261cb	addui	r2,r2,(_debugstr)&0xffff
14591  0000d3e4  ac220000	sw	(r1),r2
14592  0000d3e8  20020073	addi	r2,r0,#115
14593  0000d3ec  ac220004	sw	4(r1),r2
14594  0000d3f0  0fff7060	jal	_dindex
14595  0000d3f4  54000000	nop; delay slot nop
14596  0000d3f8  23bd0008	addi	r29,r29,#8
14597  0000d3fc  64220000	snei	r2,r1,#0
14598  0000d400  10400044	beqz	r2,L112_LF5
14599  0000d404  54000000	nop; delay slot nop
14600  0000d408  23bdfff8	addi	r29,r29,#-8
14601  0000d40c  001d0820	add	r1,r0,r29
14602  0000d410  8fc2ffec	lw	r2,-20(r30)
14603  0000d414  ac220000	sw	(r1),r2
14604  0000d418  0fffc560	jal	_GetPidFromAddress
14605  0000d41c  54000000	nop; delay slot nop
14606  0000d420  23bd0008	addi	r29,r29,#8
14607  0000d424  23bdfff8	addi	r29,r29,#-8
14608  0000d428  001d1020	add	r2,r0,r29
14609  0000d42c  3c030002	lhi	r3,((LC23_LF5)>>16)&0xffff
14610  0000d430  24630f30	addui	r3,r3,(LC23_LF5)&0xffff
14611  0000d434  ac430000	sw	(r2),r3
14612  0000d438  ac410004	sw	4(r2),r1
14613  0000d43c  0c00513c	jal	_printf
14614  0000d440  54000000	nop; delay slot nop
14615  0000d444  23bd0008	addi	r29,r29,#8
14616  0000d448          	L112_LF5:
14617  0000d448  23bdfff8	addi	r29,r29,#-8
14618  0000d44c  001d0820	add	r1,r0,r29
14619  0000d450  3c020001	lhi	r2,((_debugstr)>>16)&0xffff
14620  0000d454  244261cb	addui	r2,r2,(_debugstr)&0xffff
14621  0000d458  ac220000	sw	(r1),r2
14622  0000d45c  2002002b	addi	r2,r0,#43
14623  0000d460  ac220004	sw	4(r1),r2
14624  0000d464  0fff6fec	jal	_dindex
14625  0000d468  54000000	nop; delay slot nop
14626  0000d46c  23bd0008	addi	r29,r29,#8
14627  0000d470  64220000	snei	r2,r1,#0
14628  0000d474  10400044	beqz	r2,L113_LF5
14629  0000d478  54000000	nop; delay slot nop
14630  0000d47c  23bdfff8	addi	r29,r29,#-8
14631  0000d480  001d0820	add	r1,r0,r29
14632  0000d484  8fc2ffec	lw	r2,-20(r30)
14633  0000d488  ac220000	sw	(r1),r2
14634  0000d48c  0fffc4ec	jal	_GetPidFromAddress
14635  0000d490  54000000	nop; delay slot nop
14636  0000d494  23bd0008	addi	r29,r29,#8
14637  0000d498  23bdfff8	addi	r29,r29,#-8
14638  0000d49c  001d1020	add	r2,r0,r29
14639  0000d4a0  3c030002	lhi	r3,((LC23_LF5)>>16)&0xffff
14640  0000d4a4  24630f30	addui	r3,r3,(LC23_LF5)&0xffff
14641  0000d4a8  ac430000	sw	(r2),r3
14642  0000d4ac  ac410004	sw	4(r2),r1
14643  0000d4b0  0c0050c8	jal	_printf
14644  0000d4b4  54000000	nop; delay slot nop
14645  0000d4b8  23bd0008	addi	r29,r29,#8
14646  0000d4bc          	L113_LF5:
14647  0000d4bc  23bdfff8	addi	r29,r29,#-8
14648  0000d4c0  001d0820	add	r1,r0,r29
14649  0000d4c4  8fc2ffec	lw	r2,-20(r30)
14650  0000d4c8  ac220000	sw	(r1),r2
14651  0000d4cc  0fffc4ac	jal	_GetPidFromAddress
14652  0000d4d0  54000000	nop; delay slot nop
14653  0000d4d4  23bd0008	addi	r29,r29,#8
14654  0000d4d8  8fc20000	lw	r2,(r30)
14655  0000d4dc  ac410000	sw	(r2),r1
14656  0000d4e0  23bdfff8	addi	r29,r29,#-8
14657  0000d4e4  001d0820	add	r1,r0,r29
14658  0000d4e8  8fc2ffec	lw	r2,-20(r30)
14659  0000d4ec  ac220000	sw	(r1),r2
14660  0000d4f0  0fff89b0	jal	_ProcessWakeup
14661  0000d4f4  54000000	nop; delay slot nop
14662  0000d4f8  23bd0008	addi	r29,r29,#8
14663  0000d4fc          	L110_LF5:
14664  0000d4fc  23bdfff8	addi	r29,r29,#-8
14665  0000d500  001d0820	add	r1,r0,r29
14666  0000d504  8fc2fff0	lw	r2,-16(r30)
14667  0000d508  ac220000	sw	(r1),r2
14668  0000d50c  0c0047ac	jal	_RestoreIntrs
14669  0000d510  54000000	nop; delay slot nop
14670  0000d514  23bd0008	addi	r29,r29,#8
14671  0000d518  20010001	addi	r1,r0,#1
14672  0000d51c  08000004	j	L103_LF5
14673  0000d520  54000000	nop; delay slot nop
14674  0000d524          	L103_LF5:
14675  0000d524  8fa20000	lw	r2,0(r29)
14676  0000d528  8fa30004	lw	r3,4(r29)
14677  0000d52c  8fa40008	lw	r4,8(r29)
14678  0000d530  8fdffff8	lw	r31,-8(r30)
14679  0000d534  001ee820	add	r29,r0,r30
14680  0000d538  8fdefffc	lw	r30,-4(r30)
14681  0000d53c  4be00000	jr	r31
14682  0000d540  54000000	nop
14683  0000d544          	.endproc _LockRelease
14684  0000d544          	.align 2
14685  0000d544          	.proc _LockHandleRelease
14686  0000d544          	.global _LockHandleRelease
14687  0000d544          	_LockHandleRelease:
14688                      ;  Function 'LockHandleRelease'; 0 bytes of locals, 4 regs to save.
14689  0000d544  afbefffc	sw	-4(r29),r30; push fp
14690  0000d548  001df020	add	r30,r0,r29; fp = sp
14691  0000d54c  afbffff8	sw	-8(r29),r31; push ret addr
14692  0000d550  2fbd0018	subui	r29,r29,#24; alloc local storage
14693  0000d554  afa20000	sw	0(r29),r2
14694  0000d558  afa30004	sw	4(r29),r3
14695  0000d55c  afa40008	sw	8(r29),r4
14696  0000d560  afa5000c	sw	12(r29),r5
14697  0000d564  8fc10000	lw	r1,(r30)
14698  0000d568  68220000	slti	r2,r1,#0
14699  0000d56c  10400010	beqz	r2,L115_LF5
14700  0000d570  54000000	nop; delay slot nop
14701  0000d574  2001ffff	addi	r1,r0,#-1
14702  0000d578  080000a4	j	L114_LF5
14703  0000d57c  54000000	nop; delay slot nop
14704  0000d580          	L115_LF5:
14705  0000d580  8fc10000	lw	r1,(r30)
14706  0000d584  6c22003f	sgti	r2,r1,#63
14707  0000d588  10400010	beqz	r2,L116_LF5
14708  0000d58c  54000000	nop; delay slot nop
14709  0000d590  2001ffff	addi	r1,r0,#-1
14710  0000d594  08000088	j	L114_LF5
14711  0000d598  54000000	nop; delay slot nop
14712  0000d59c          	L116_LF5:
14713  0000d59c  8fc10000	lw	r1,(r30)
14714  0000d5a0  00011820	add	r3,r0,r1
14715  0000d5a4  50620002	slli	r2,r3,#0x2
14716  0000d5a8  00411020	add	r2,r2,r1
14717  0000d5ac  50410002	slli	r1,r2,#0x2
14718  0000d5b0  3c050002	lhi	r5,((_locks_LF5)>>16)&0xffff
14719  0000d5b4  24a5153c	addui	r5,r5,(_locks_LF5)&0xffff
14720  0000d5b8  00251020	add	r2,r1,r5
14721  0000d5bc  8c410010	lw	r1,16(r2)
14722  0000d5c0  64220000	snei	r2,r1,#0
14723  0000d5c4  14400010	bnez	r2,L117_LF5
14724  0000d5c8  54000000	nop; delay slot nop
14725  0000d5cc  2001ffff	addi	r1,r0,#-1
14726  0000d5d0  0800004c	j	L114_LF5
14727  0000d5d4  54000000	nop; delay slot nop
14728  0000d5d8          	L117_LF5:
14729  0000d5d8  23bdfff8	addi	r29,r29,#-8
14730  0000d5dc  001d0820	add	r1,r0,r29
14731  0000d5e0  8fc20000	lw	r2,(r30)
14732  0000d5e4  00022020	add	r4,r0,r2
14733  0000d5e8  50830002	slli	r3,r4,#0x2
14734  0000d5ec  00621820	add	r3,r3,r2
14735  0000d5f0  50620002	slli	r2,r3,#0x2
14736  0000d5f4  3c030002	lhi	r3,((_locks_LF5)>>16)&0xffff
14737  0000d5f8  2463153c	addui	r3,r3,(_locks_LF5)&0xffff
14738  0000d5fc  00621020	add	r2,r3,r2
14739  0000d600  ac220000	sw	(r1),r2
14740  0000d604  0ffffa28	jal	_LockRelease
14741  0000d608  54000000	nop; delay slot nop
14742  0000d60c  23bd0008	addi	r29,r29,#8
14743  0000d610  00011020	add	r2,r0,r1
14744  0000d614  00020820	add	r1,r0,r2
14745  0000d618  08000004	j	L114_LF5
14746  0000d61c  54000000	nop; delay slot nop
14747  0000d620          	L114_LF5:
14748  0000d620  8fa20000	lw	r2,0(r29)
14749  0000d624  8fa30004	lw	r3,4(r29)
14750  0000d628  8fa40008	lw	r4,8(r29)
14751  0000d62c  8fa5000c	lw	r5,12(r29)
14752  0000d630  8fdffff8	lw	r31,-8(r30)
14753  0000d634  001ee820	add	r29,r0,r30
14754  0000d638  8fdefffc	lw	r30,-4(r30)
14755  0000d63c  4be00000	jr	r31
14756  0000d640  54000000	nop
14757  0000d644          	.endproc _LockHandleRelease
14758  0000d644          	.align 2
14759  0000d644          	.proc _CondCreate
14760  0000d644          	.global _CondCreate
14761  0000d644          	_CondCreate:
14762                      ;  Function 'CondCreate'; 8 bytes of locals, 4 regs to save.
14763  0000d644  afbefffc	sw	-4(r29),r30; push fp
14764  0000d648  001df020	add	r30,r0,r29; fp = sp
14765  0000d64c  afbffff8	sw	-8(r29),r31; push ret addr
14766  0000d650  2fbd0020	subui	r29,r29,#32; alloc local storage
14767  0000d654  afa20000	sw	0(r29),r2
14768  0000d658  afa30004	sw	4(r29),r3
14769  0000d65c  afa40008	sw	8(r29),r4
14770  0000d660  afa5000c	sw	12(r29),r5
14771  0000d664  8fc10000	lw	r1,(r30)
14772  0000d668  68220000	slti	r2,r1,#0
14773  0000d66c  10400010	beqz	r2,L119_LF5
14774  0000d670  54000000	nop; delay slot nop
14775  0000d674  2001ffff	addi	r1,r0,#-1
14776  0000d678  08000184	j	L118_LF5
14777  0000d67c  54000000	nop; delay slot nop
14778  0000d680          	L119_LF5:
14779  0000d680  001d1020	add	r2,r0,r29
14780  0000d684  0c004584	jal	_DisableIntrs
14781  0000d688  54000000	nop; delay slot nop
14782  0000d68c  afc1fff0	sw	-16(r30),r1
14783  0000d690  20010000	addi	r1,r0,#0
14784  0000d694  afc1fff4	sw	-12(r30),r1
14785  0000d698          	L120_LF5:
14786  0000d698  8fc1fff4	lw	r1,-12(r30)
14787  0000d69c  7022003f	slei	r2,r1,#63
14788  0000d6a0  1440000c	bnez	r2,L123_LF5
14789  0000d6a4  54000000	nop; delay slot nop
14790  0000d6a8  0800007c	j	L121_LF5
14791  0000d6ac  54000000	nop; delay slot nop
14792  0000d6b0          	L123_LF5:
14793  0000d6b0  8fc1fff4	lw	r1,-12(r30)
14794  0000d6b4  00011820	add	r3,r0,r1
14795  0000d6b8  50620002	slli	r2,r3,#0x2
14796  0000d6bc  00411020	add	r2,r2,r1
14797  0000d6c0  50410002	slli	r1,r2,#0x2
14798  0000d6c4  3c050002	lhi	r5,((_conds_LF5)>>16)&0xffff
14799  0000d6c8  24a51a3c	addui	r5,r5,(_conds_LF5)&0xffff
14800  0000d6cc  00251020	add	r2,r1,r5
14801  0000d6d0  8c410010	lw	r1,16(r2)
14802  0000d6d4  64220000	snei	r2,r1,#0
14803  0000d6d8  14400034	bnez	r2,L122_LF5
14804  0000d6dc  54000000	nop; delay slot nop
14805  0000d6e0  3c010002	lhi	r1,((_conds_LF5)>>16)&0xffff
14806  0000d6e4  24211a3c	addui	r1,r1,(_conds_LF5)&0xffff
14807  0000d6e8  8fc2fff4	lw	r2,-12(r30)
14808  0000d6ec  00022020	add	r4,r0,r2
14809  0000d6f0  50830002	slli	r3,r4,#0x2
14810  0000d6f4  00621820	add	r3,r3,r2
14811  0000d6f8  50620002	slli	r2,r3,#0x2
14812  0000d6fc  00220820	add	r1,r1,r2
14813  0000d700  20020001	addi	r2,r0,#1
14814  0000d704  ac220010	sw	16(r1),r2
14815  0000d708  0800001c	j	L121_LF5
14816  0000d70c  54000000	nop; delay slot nop
14817  0000d710          	L124_LF5:
14818  0000d710          	L122_LF5:
14819  0000d710  8fc2fff4	lw	r2,-12(r30)
14820  0000d714  20410001	addi	r1,r2,#1
14821  0000d718  00011020	add	r2,r0,r1
14822  0000d71c  afc2fff4	sw	-12(r30),r2
14823  0000d720  0bffff74	j	L120_LF5
14824  0000d724  54000000	nop; delay slot nop
14825  0000d728          	L121_LF5:
14826  0000d728  23bdfff8	addi	r29,r29,#-8
14827  0000d72c  001d0820	add	r1,r0,r29
14828  0000d730  8fc2fff0	lw	r2,-16(r30)
14829  0000d734  ac220000	sw	(r1),r2
14830  0000d738  0c004580	jal	_RestoreIntrs
14831  0000d73c  54000000	nop; delay slot nop
14832  0000d740  23bd0008	addi	r29,r29,#8
14833  0000d744  8fc1fff4	lw	r1,-12(r30)
14834  0000d748  60220020	seqi	r2,r1,#32
14835  0000d74c  10400010	beqz	r2,L125_LF5
14836  0000d750  54000000	nop; delay slot nop
14837  0000d754  2001ffff	addi	r1,r0,#-1
14838  0000d758  080000a4	j	L118_LF5
14839  0000d75c  54000000	nop; delay slot nop
14840  0000d760          	L125_LF5:
14841  0000d760  23bdfff8	addi	r29,r29,#-8
14842  0000d764  001d0820	add	r1,r0,r29
14843  0000d768  8fc2fff4	lw	r2,-12(r30)
14844  0000d76c  00022020	add	r4,r0,r2
14845  0000d770  50830002	slli	r3,r4,#0x2
14846  0000d774  00621820	add	r3,r3,r2
14847  0000d778  50620002	slli	r2,r3,#0x2
14848  0000d77c  3c030002	lhi	r3,((_conds_LF5)>>16)&0xffff
14849  0000d780  24631a3c	addui	r3,r3,(_conds_LF5)&0xffff
14850  0000d784  00621020	add	r2,r3,r2
14851  0000d788  ac220000	sw	(r1),r2
14852  0000d78c  0c000094	jal	_CondInit
14853  0000d790  54000000	nop; delay slot nop
14854  0000d794  23bd0008	addi	r29,r29,#8
14855  0000d798  64220001	snei	r2,r1,#1
14856  0000d79c  10400010	beqz	r2,L126_LF5
14857  0000d7a0  54000000	nop; delay slot nop
14858  0000d7a4  2001ffff	addi	r1,r0,#-1
14859  0000d7a8  08000054	j	L118_LF5
14860  0000d7ac  54000000	nop; delay slot nop
14861  0000d7b0          	L126_LF5:
14862  0000d7b0  3c010002	lhi	r1,((_conds_LF5)>>16)&0xffff
14863  0000d7b4  24211a3c	addui	r1,r1,(_conds_LF5)&0xffff
14864  0000d7b8  8fc2fff4	lw	r2,-12(r30)
14865  0000d7bc  00022020	add	r4,r0,r2
14866  0000d7c0  50830002	slli	r3,r4,#0x2
14867  0000d7c4  00621820	add	r3,r3,r2
14868  0000d7c8  50620002	slli	r2,r3,#0x2
14869  0000d7cc  00220820	add	r1,r1,r2
14870  0000d7d0  8fc20000	lw	r2,(r30)
14871  0000d7d4  00022020	add	r4,r0,r2
14872  0000d7d8  50830002	slli	r3,r4,#0x2
14873  0000d7dc  00621820	add	r3,r3,r2
14874  0000d7e0  50620002	slli	r2,r3,#0x2
14875  0000d7e4  3c030002	lhi	r3,((_locks_LF5)>>16)&0xffff
14876  0000d7e8  2463153c	addui	r3,r3,(_locks_LF5)&0xffff
14877  0000d7ec  00621020	add	r2,r3,r2
14878  0000d7f0  ac220000	sw	(r1),r2
14879  0000d7f4  8fc1fff4	lw	r1,-12(r30)
14880  0000d7f8  08000004	j	L118_LF5
14881  0000d7fc  54000000	nop; delay slot nop
14882  0000d800          	L118_LF5:
14883  0000d800  8fa20000	lw	r2,0(r29)
14884  0000d804  8fa30004	lw	r3,4(r29)
14885  0000d808  8fa40008	lw	r4,8(r29)
14886  0000d80c  8fa5000c	lw	r5,12(r29)
14887  0000d810  8fdffff8	lw	r31,-8(r30)
14888  0000d814  001ee820	add	r29,r0,r30
14889  0000d818  8fdefffc	lw	r30,-4(r30)
14890  0000d81c  4be00000	jr	r31
14891  0000d820  54000000	nop
14892  0000d824          	.endproc _CondCreate
14893  0000d824          	.data
14894  00020f60          	.align 2
14895  00020f60          	LC24_LF5:
14896  00020f60  46415441	.ascii "FATAL ERROR: could not initialize lock waiting queue in CondInit!\n\000"
14896  00020f64  4c204552	
14896  00020f68  524f523a	
14896  00020f6c  20636f75	
14896  00020f70  6c64206e	
14896  00020f74  6f742069	
14896  00020f78  6e697469	
14896  00020f7c  616c697a	
14896  00020f80  65206c6f	
14896  00020f84  636b2077	
14896  00020f88  61697469	
14896  00020f8c  6e672071	
14896  00020f90  75657565	
14896  00020f94  20696e20	
14896  00020f98  436f6e64	
14896  00020f9c  496e6974	
14896  00020fa0  210a00  	
14897  00020fa3          	.text
14898  0000d824          	.align 2
14899  0000d824          	.proc _CondInit
14900  0000d824          	.global _CondInit
14901  0000d824          	_CondInit:
14902                      ;  Function 'CondInit'; 0 bytes of locals, 2 regs to save.
14903  0000d824  afbefffc	sw	-4(r29),r30; push fp
14904  0000d828  001df020	add	r30,r0,r29; fp = sp
14905  0000d82c  afbffff8	sw	-8(r29),r31; push ret addr
14906  0000d830  2fbd0010	subui	r29,r29,#16; alloc local storage
14907  0000d834  afa20000	sw	0(r29),r2
14908  0000d838  afa30004	sw	4(r29),r3
14909  0000d83c  8fc10000	lw	r1,(r30)
14910  0000d840  64220000	snei	r2,r1,#0
14911  0000d844  14400010	bnez	r2,L128_LF5
14912  0000d848  54000000	nop; delay slot nop
14913  0000d84c  2001ffff	addi	r1,r0,#-1
14914  0000d850  08000068	j	L127_LF5
14915  0000d854  54000000	nop; delay slot nop
14916  0000d858          	L128_LF5:
14917  0000d858  23bdfff8	addi	r29,r29,#-8
14918  0000d85c  001d0820	add	r1,r0,r29
14919  0000d860  8fc20000	lw	r2,(r30)
14920  0000d864  20430004	addi	r3,r2,#4
14921  0000d868  ac230000	sw	(r1),r3
14922  0000d86c  0fffc9e4	jal	_AQueueInit
14923  0000d870  54000000	nop; delay slot nop
14924  0000d874  23bd0008	addi	r29,r29,#8
14925  0000d878  64220001	snei	r2,r1,#1
14926  0000d87c  10400030	beqz	r2,L129_LF5
14927  0000d880  54000000	nop; delay slot nop
14928  0000d884  23bdfff8	addi	r29,r29,#-8
14929  0000d888  001d0820	add	r1,r0,r29
14930  0000d88c  3c020002	lhi	r2,((LC24_LF5)>>16)&0xffff
14931  0000d890  24420f60	addui	r2,r2,(LC24_LF5)&0xffff
14932  0000d894  ac220000	sw	(r1),r2
14933  0000d898  0c004ce0	jal	_printf
14934  0000d89c  54000000	nop; delay slot nop
14935  0000d8a0  23bd0008	addi	r29,r29,#8
14936  0000d8a4  001d1020	add	r2,r0,r29
14937  0000d8a8  0c004cb8	jal	_exitsim
14938  0000d8ac  54000000	nop; delay slot nop
14939  0000d8b0          	L129_LF5:
14940  0000d8b0  20010001	addi	r1,r0,#1
14941  0000d8b4  08000004	j	L127_LF5
14942  0000d8b8  54000000	nop; delay slot nop
14943  0000d8bc          	L127_LF5:
14944  0000d8bc  8fa20000	lw	r2,0(r29)
14945  0000d8c0  8fa30004	lw	r3,4(r29)
14946  0000d8c4  8fdffff8	lw	r31,-8(r30)
14947  0000d8c8  001ee820	add	r29,r0,r30
14948  0000d8cc  8fdefffc	lw	r30,-4(r30)
14949  0000d8d0  4be00000	jr	r31
14950  0000d8d4  54000000	nop
14951  0000d8d8          	.endproc _CondInit
14952  0000d8d8          	.data
14953  00020fa3          	.align 2
14954  00020fa4          	LC25_LF5:
14955  00020fa4  436f6e64	.ascii "CondWait: Old interrupt value was 0x%x.\n\000"
14955  00020fa8  57616974	
14955  00020fac  3a204f6c	
14955  00020fb0  6420696e	
14955  00020fb4  74657272	
14955  00020fb8  75707420	
14955  00020fbc  76616c75	
14955  00020fc0  65207761	
14955  00020fc4  73203078	
14955  00020fc8  25782e0a	
14955  00020fcc  00      	
14956  00020fcd          	.align 2
14957  00020fd0          	LC26_LF5:
14958  00020fd0  436f6e64	.ascii "CondWait: Proc %d does not own cond %d\n\000"
14958  00020fd4  57616974	
14958  00020fd8  3a205072	
14958  00020fdc  6f632025	
14958  00020fe0  6420646f	
14958  00020fe4  6573206e	
14958  00020fe8  6f74206f	
14958  00020fec  776e2063	
14958  00020ff0  6f6e6420	
14958  00020ff4  25640a00	
14959  00020ff8          	.align 2
14960  00020ff8          	LC27_LF5:
14961  00020ff8  436f6e64	.ascii "CondWait: Proc %d waiting on cond %d.  Putting to sleep.\n\000"
14961  00020ffc  57616974	
14961  00021000  3a205072	
14961  00021004  6f632025	
14961  00021008  64207761	
14961  0002100c  6974696e	
14961  00021010  67206f6e	
14961  00021014  20636f6e	
14961  00021018  64202564	
14961  0002101c  2e202050	
14961  00021020  75747469	
14961  00021024  6e672074	
14961  00021028  6f20736c	
14961  0002102c  6565702e	
14961  00021030  0a00    	
14962  00021032          	.align 2
14963  00021034          	LC28_LF5:
14964  00021034  46415441	.ascii "FATAL ERROR: could not allocate link for cond queue in CondWait!\n\000"
14964  00021038  4c204552	
14964  0002103c  524f523a	
14964  00021040  20636f75	
14964  00021044  6c64206e	
14964  00021048  6f742061	
14964  0002104c  6c6c6f63	
14964  00021050  61746520	
14964  00021054  6c696e6b	
14964  00021058  20666f72	
14964  0002105c  20636f6e	
14964  00021060  64207175	
14964  00021064  65756520	
14964  00021068  696e2043	
14964  0002106c  6f6e6457	
14964  00021070  61697421	
14964  00021074  0a00    	
14965  00021076          	.align 2
14966  00021078          	LC29_LF5:
14967  00021078  46415441	.ascii "FATAL ERROR: could not insert new link into cond waiting queue in Cond"
14967  0002107c  4c204552	
14967  00021080  524f523a	
14967  00021084  20636f75	
14967  00021088  6c64206e	
14967  0002108c  6f742069	
14967  00021090  6e736572	
14967  00021094  74206e65	
14967  00021098  77206c69	
14967  0002109c  6e6b2069	
14967  000210a0  6e746f20	
14967  000210a4  636f6e64	
14967  000210a8  20776169	
14967  000210ac  74696e67	
14967  000210b0  20717565	
14967  000210b4  75652069	
14967  000210b8  6e20436f	
14967  000210bc  6e64    	
14968  000210be  57616974	.ascii "Wait!\n\000"
14968  000210c2  210a00  	
14969  000210c5          	.text
14970  0000d8d8          	.align 2
14971  0000d8d8          	.proc _CondWait
14972  0000d8d8          	.global _CondWait
14973  0000d8d8          	_CondWait:
14974                      ;  Function 'CondWait'; 8 bytes of locals, 3 regs to save.
14975  0000d8d8  afbefffc	sw	-4(r29),r30; push fp
14976  0000d8dc  001df020	add	r30,r0,r29; fp = sp
14977  0000d8e0  afbffff8	sw	-8(r29),r31; push ret addr
14978  0000d8e4  2fbd0020	subui	r29,r29,#32; alloc local storage
14979  0000d8e8  afa20000	sw	0(r29),r2
14980  0000d8ec  afa30004	sw	4(r29),r3
14981  0000d8f0  afa40008	sw	8(r29),r4
14982  0000d8f4  8fc10000	lw	r1,(r30)
14983  0000d8f8  64220000	snei	r2,r1,#0
14984  0000d8fc  14400010	bnez	r2,L131_LF5
14985  0000d900  54000000	nop; delay slot nop
14986  0000d904  2001ffff	addi	r1,r0,#-1
14987  0000d908  080004b0	j	L130_LF5
14988  0000d90c  54000000	nop; delay slot nop
14989  0000d910          	L131_LF5:
14990  0000d910  001d1020	add	r2,r0,r29
14991  0000d914  0c0042f4	jal	_DisableIntrs
14992  0000d918  54000000	nop; delay slot nop
14993  0000d91c  afc1fff0	sw	-16(r30),r1
14994  0000d920  23bdfff8	addi	r29,r29,#-8
14995  0000d924  001d0820	add	r1,r0,r29
14996  0000d928  3c020001	lhi	r2,((_debugstr)>>16)&0xffff
14997  0000d92c  244261cb	addui	r2,r2,(_debugstr)&0xffff
14998  0000d930  ac220000	sw	(r1),r2
14999  0000d934  20020049	addi	r2,r0,#73
15000  0000d938  ac220004	sw	4(r1),r2
15001  0000d93c  0fff6b14	jal	_dindex
15002  0000d940  54000000	nop; delay slot nop
15003  0000d944  23bd0008	addi	r29,r29,#8
15004  0000d948  64220000	snei	r2,r1,#0
15005  0000d94c  1040002c	beqz	r2,L132_LF5
15006  0000d950  54000000	nop; delay slot nop
15007  0000d954  23bdfff8	addi	r29,r29,#-8
15008  0000d958  001d0820	add	r1,r0,r29
15009  0000d95c  3c020002	lhi	r2,((LC25_LF5)>>16)&0xffff
15010  0000d960  24420fa4	addui	r2,r2,(LC25_LF5)&0xffff
15011  0000d964  ac220000	sw	(r1),r2
15012  0000d968  8fc2fff0	lw	r2,-16(r30)
15013  0000d96c  ac220004	sw	4(r1),r2
15014  0000d970  0c004c08	jal	_printf
15015  0000d974  54000000	nop; delay slot nop
15016  0000d978  23bd0008	addi	r29,r29,#8
15017  0000d97c          	L132_LF5:
15018  0000d97c  23bdfff8	addi	r29,r29,#-8
15019  0000d980  001d0820	add	r1,r0,r29
15020  0000d984  3c020001	lhi	r2,((_debugstr)>>16)&0xffff
15021  0000d988  244261cb	addui	r2,r2,(_debugstr)&0xffff
15022  0000d98c  ac220000	sw	(r1),r2
15023  0000d990  2002002b	addi	r2,r0,#43
15024  0000d994  ac220004	sw	4(r1),r2
15025  0000d998  0fff6ab8	jal	_dindex
15026  0000d99c  54000000	nop; delay slot nop
15027  0000d9a0  23bd0008	addi	r29,r29,#8
15028  0000d9a4  64220000	snei	r2,r1,#0
15029  0000d9a8  1040002c	beqz	r2,L133_LF5
15030  0000d9ac  54000000	nop; delay slot nop
15031  0000d9b0  23bdfff8	addi	r29,r29,#-8
15032  0000d9b4  001d0820	add	r1,r0,r29
15033  0000d9b8  3c020002	lhi	r2,((LC25_LF5)>>16)&0xffff
15034  0000d9bc  24420fa4	addui	r2,r2,(LC25_LF5)&0xffff
15035  0000d9c0  ac220000	sw	(r1),r2
15036  0000d9c4  8fc2fff0	lw	r2,-16(r30)
15037  0000d9c8  ac220004	sw	4(r1),r2
15038  0000d9cc  0c004bac	jal	_printf
15039  0000d9d0  54000000	nop; delay slot nop
15040  0000d9d4  23bd0008	addi	r29,r29,#8
15041  0000d9d8          	L133_LF5:
15042  0000d9d8  8fc10000	lw	r1,(r30)
15043  0000d9dc  8c220000	lw	r2,(r1)
15044  0000d9e0  001d1820	add	r3,r0,r29
15045  0000d9e4  0fffbd38	jal	_GetCurrentPid
15046  0000d9e8  54000000	nop; delay slot nop
15047  0000d9ec  8c420000	lw	r2,(r2)
15048  0000d9f0  00410829	sne	r1,r2,r1
15049  0000d9f4  1020015c	beqz	r1,L134_LF5
15050  0000d9f8  54000000	nop; delay slot nop
15051  0000d9fc  23bdfff8	addi	r29,r29,#-8
15052  0000da00  001d0820	add	r1,r0,r29
15053  0000da04  3c020001	lhi	r2,((_debugstr)>>16)&0xffff
15054  0000da08  244261cb	addui	r2,r2,(_debugstr)&0xffff
15055  0000da0c  ac220000	sw	(r1),r2
15056  0000da10  20020073	addi	r2,r0,#115
15057  0000da14  ac220004	sw	4(r1),r2
15058  0000da18  0fff6a38	jal	_dindex
15059  0000da1c  54000000	nop; delay slot nop
15060  0000da20  23bd0008	addi	r29,r29,#8
15061  0000da24  64220000	snei	r2,r1,#0
15062  0000da28  10400068	beqz	r2,L135_LF5
15063  0000da2c  54000000	nop; delay slot nop
15064  0000da30  001d1020	add	r2,r0,r29
15065  0000da34  0fffbce8	jal	_GetCurrentPid
15066  0000da38  54000000	nop; delay slot nop
15067  0000da3c  00011020	add	r2,r0,r1
15068  0000da40  23bdfff0	addi	r29,r29,#-16
15069  0000da44  001d0820	add	r1,r0,r29
15070  0000da48  3c030002	lhi	r3,((LC26_LF5)>>16)&0xffff
15071  0000da4c  24630fd0	addui	r3,r3,(LC26_LF5)&0xffff
15072  0000da50  ac230000	sw	(r1),r3
15073  0000da54  ac220004	sw	4(r1),r2
15074  0000da58  8fc30000	lw	r3,(r30)
15075  0000da5c  3c040002	lhi	r4,((_conds_LF5)>>16)&0xffff
15076  0000da60  24841a3c	addui	r4,r4,(_conds_LF5)&0xffff
15077  0000da64  00641022	sub	r2,r3,r4
15078  0000da68  3c03cccc	lhi	r3,#-13108
15079  0000da6c  2463cccd	addui	r3,r3,#52429
15080  0000da70  00400035	movi2fp	f0,r2
15081  0000da74  00600835	movi2fp	f1,r3
15082  0000da78  0401000e	mult	f0,f0,f1
15083  0000da7c  00001034	movfp2i	r2,f0
15084  0000da80  5c430002	srai	r3,r2,#0x2
15085  0000da84  ac230008	sw	8(r1),r3
15086  0000da88  0c004af0	jal	_printf
15087  0000da8c  54000000	nop; delay slot nop
15088  0000da90  23bd0010	addi	r29,r29,#16
15089  0000da94          	L135_LF5:
15090  0000da94  23bdfff8	addi	r29,r29,#-8
15091  0000da98  001d0820	add	r1,r0,r29
15092  0000da9c  3c020001	lhi	r2,((_debugstr)>>16)&0xffff
15093  0000daa0  244261cb	addui	r2,r2,(_debugstr)&0xffff
15094  0000daa4  ac220000	sw	(r1),r2
15095  0000daa8  2002002b	addi	r2,r0,#43
15096  0000daac  ac220004	sw	4(r1),r2
15097  0000dab0  0fff69a0	jal	_dindex
15098  0000dab4  54000000	nop; delay slot nop
15099  0000dab8  23bd0008	addi	r29,r29,#8
15100  0000dabc  64220000	snei	r2,r1,#0
15101  0000dac0  10400068	beqz	r2,L136_LF5
15102  0000dac4  54000000	nop; delay slot nop
15103  0000dac8  001d1020	add	r2,r0,r29
15104  0000dacc  0fffbc50	jal	_GetCurrentPid
15105  0000dad0  54000000	nop; delay slot nop
15106  0000dad4  00011020	add	r2,r0,r1
15107  0000dad8  23bdfff0	addi	r29,r29,#-16
15108  0000dadc  001d0820	add	r1,r0,r29
15109  0000dae0  3c030002	lhi	r3,((LC26_LF5)>>16)&0xffff
15110  0000dae4  24630fd0	addui	r3,r3,(LC26_LF5)&0xffff
15111  0000dae8  ac230000	sw	(r1),r3
15112  0000daec  ac220004	sw	4(r1),r2
15113  0000daf0  8fc30000	lw	r3,(r30)
15114  0000daf4  3c040002	lhi	r4,((_conds_LF5)>>16)&0xffff
15115  0000daf8  24841a3c	addui	r4,r4,(_conds_LF5)&0xffff
15116  0000dafc  00641022	sub	r2,r3,r4
15117  0000db00  3c03cccc	lhi	r3,#-13108
15118  0000db04  2463cccd	addui	r3,r3,#52429
15119  0000db08  00400035	movi2fp	f0,r2
15120  0000db0c  00600835	movi2fp	f1,r3
15121  0000db10  0401000e	mult	f0,f0,f1
15122  0000db14  00001034	movfp2i	r2,f0
15123  0000db18  5c430002	srai	r3,r2,#0x2
15124  0000db1c  ac230008	sw	8(r1),r3
15125  0000db20  0c004a58	jal	_printf
15126  0000db24  54000000	nop; delay slot nop
15127  0000db28  23bd0010	addi	r29,r29,#16
15128  0000db2c          	L136_LF5:
15129  0000db2c  23bdfff8	addi	r29,r29,#-8
15130  0000db30  001d0820	add	r1,r0,r29
15131  0000db34  8fc2fff0	lw	r2,-16(r30)
15132  0000db38  ac220000	sw	(r1),r2
15133  0000db3c  0c00417c	jal	_RestoreIntrs
15134  0000db40  54000000	nop; delay slot nop
15135  0000db44  23bd0008	addi	r29,r29,#8
15136  0000db48  2001ffff	addi	r1,r0,#-1
15137  0000db4c  0800026c	j	L130_LF5
15138  0000db50  54000000	nop; delay slot nop
15139  0000db54          	L134_LF5:
15140  0000db54  23bdfff8	addi	r29,r29,#-8
15141  0000db58  001d0820	add	r1,r0,r29
15142  0000db5c  3c020001	lhi	r2,((_debugstr)>>16)&0xffff
15143  0000db60  244261cb	addui	r2,r2,(_debugstr)&0xffff
15144  0000db64  ac220000	sw	(r1),r2
15145  0000db68  20020073	addi	r2,r0,#115
15146  0000db6c  ac220004	sw	4(r1),r2
15147  0000db70  0fff68e0	jal	_dindex
15148  0000db74  54000000	nop; delay slot nop
15149  0000db78  23bd0008	addi	r29,r29,#8
15150  0000db7c  64220000	snei	r2,r1,#0
15151  0000db80  10400068	beqz	r2,L137_LF5
15152  0000db84  54000000	nop; delay slot nop
15153  0000db88  001d1020	add	r2,r0,r29
15154  0000db8c  0fffbb90	jal	_GetCurrentPid
15155  0000db90  54000000	nop; delay slot nop
15156  0000db94  00011020	add	r2,r0,r1
15157  0000db98  23bdfff0	addi	r29,r29,#-16
15158  0000db9c  001d0820	add	r1,r0,r29
15159  0000dba0  3c030002	lhi	r3,((LC27_LF5)>>16)&0xffff
15160  0000dba4  24630ff8	addui	r3,r3,(LC27_LF5)&0xffff
15161  0000dba8  ac230000	sw	(r1),r3
15162  0000dbac  ac220004	sw	4(r1),r2
15163  0000dbb0  8fc30000	lw	r3,(r30)
15164  0000dbb4  3c040002	lhi	r4,((_conds_LF5)>>16)&0xffff
15165  0000dbb8  24841a3c	addui	r4,r4,(_conds_LF5)&0xffff
15166  0000dbbc  00641022	sub	r2,r3,r4
15167  0000dbc0  3c03cccc	lhi	r3,#-13108
15168  0000dbc4  2463cccd	addui	r3,r3,#52429
15169  0000dbc8  00400035	movi2fp	f0,r2
15170  0000dbcc  00600835	movi2fp	f1,r3
15171  0000dbd0  0401000e	mult	f0,f0,f1
15172  0000dbd4  00001034	movfp2i	r2,f0
15173  0000dbd8  5c430002	srai	r3,r2,#0x2
15174  0000dbdc  ac230008	sw	8(r1),r3
15175  0000dbe0  0c004998	jal	_printf
15176  0000dbe4  54000000	nop; delay slot nop
15177  0000dbe8  23bd0010	addi	r29,r29,#16
15178  0000dbec          	L137_LF5:
15179  0000dbec  23bdfff8	addi	r29,r29,#-8
15180  0000dbf0  001d0820	add	r1,r0,r29
15181  0000dbf4  3c020001	lhi	r2,((_debugstr)>>16)&0xffff
15182  0000dbf8  244261cb	addui	r2,r2,(_debugstr)&0xffff
15183  0000dbfc  ac220000	sw	(r1),r2
15184  0000dc00  2002002b	addi	r2,r0,#43
15185  0000dc04  ac220004	sw	4(r1),r2
15186  0000dc08  0fff6848	jal	_dindex
15187  0000dc0c  54000000	nop; delay slot nop
15188  0000dc10  23bd0008	addi	r29,r29,#8
15189  0000dc14  64220000	snei	r2,r1,#0
15190  0000dc18  10400068	beqz	r2,L138_LF5
15191  0000dc1c  54000000	nop; delay slot nop
15192  0000dc20  001d1020	add	r2,r0,r29
15193  0000dc24  0fffbaf8	jal	_GetCurrentPid
15194  0000dc28  54000000	nop; delay slot nop
15195  0000dc2c  00011020	add	r2,r0,r1
15196  0000dc30  23bdfff0	addi	r29,r29,#-16
15197  0000dc34  001d0820	add	r1,r0,r29
15198  0000dc38  3c030002	lhi	r3,((LC27_LF5)>>16)&0xffff
15199  0000dc3c  24630ff8	addui	r3,r3,(LC27_LF5)&0xffff
15200  0000dc40  ac230000	sw	(r1),r3
15201  0000dc44  ac220004	sw	4(r1),r2
15202  0000dc48  8fc30000	lw	r3,(r30)
15203  0000dc4c  3c040002	lhi	r4,((_conds_LF5)>>16)&0xffff
15204  0000dc50  24841a3c	addui	r4,r4,(_conds_LF5)&0xffff
15205  0000dc54  00641022	sub	r2,r3,r4
15206  0000dc58  3c03cccc	lhi	r3,#-13108
15207  0000dc5c  2463cccd	addui	r3,r3,#52429
15208  0000dc60  00400035	movi2fp	f0,r2
15209  0000dc64  00600835	movi2fp	f1,r3
15210  0000dc68  0401000e	mult	f0,f0,f1
15211  0000dc6c  00001034	movfp2i	r2,f0
15212  0000dc70  5c430002	srai	r3,r2,#0x2
15213  0000dc74  ac230008	sw	8(r1),r3
15214  0000dc78  0c004900	jal	_printf
15215  0000dc7c  54000000	nop; delay slot nop
15216  0000dc80  23bd0010	addi	r29,r29,#16
15217  0000dc84          	L138_LF5:
15218  0000dc84  23bdfff8	addi	r29,r29,#-8
15219  0000dc88  001d0820	add	r1,r0,r29
15220  0000dc8c  3c020001	lhi	r2,((_currentPCB)>>16)&0xffff
15221  0000dc90  24426294	addui	r2,r2,(_currentPCB)&0xffff
15222  0000dc94  8c430000	lw	r3,(r2)
15223  0000dc98  ac230000	sw	(r1),r3
15224  0000dc9c  0fffc62c	jal	_AQueueAllocLink
15225  0000dca0  54000000	nop; delay slot nop
15226  0000dca4  23bd0008	addi	r29,r29,#8
15227  0000dca8  afc1fff4	sw	-12(r30),r1
15228  0000dcac  8fc1fff4	lw	r1,-12(r30)
15229  0000dcb0  64220000	snei	r2,r1,#0
15230  0000dcb4  14400030	bnez	r2,L139_LF5
15231  0000dcb8  54000000	nop; delay slot nop
15232  0000dcbc  23bdfff8	addi	r29,r29,#-8
15233  0000dcc0  001d0820	add	r1,r0,r29
15234  0000dcc4  3c020002	lhi	r2,((LC28_LF5)>>16)&0xffff
15235  0000dcc8  24421034	addui	r2,r2,(LC28_LF5)&0xffff
15236  0000dccc  ac220000	sw	(r1),r2
15237  0000dcd0  0c0048a8	jal	_printf
15238  0000dcd4  54000000	nop; delay slot nop
15239  0000dcd8  23bd0008	addi	r29,r29,#8
15240  0000dcdc  001d1020	add	r2,r0,r29
15241  0000dce0  0c004880	jal	_exitsim
15242  0000dce4  54000000	nop; delay slot nop
15243  0000dce8          	L139_LF5:
15244  0000dce8  23bdfff8	addi	r29,r29,#-8
15245  0000dcec  001d0820	add	r1,r0,r29
15246  0000dcf0  8fc20000	lw	r2,(r30)
15247  0000dcf4  20430004	addi	r3,r2,#4
15248  0000dcf8  ac230000	sw	(r1),r3
15249  0000dcfc  8fc2fff4	lw	r2,-12(r30)
15250  0000dd00  ac220004	sw	4(r1),r2
15251  0000dd04  0fffd3f0	jal	_AQueueInsertLast
15252  0000dd08  54000000	nop; delay slot nop
15253  0000dd0c  23bd0008	addi	r29,r29,#8
15254  0000dd10  64220001	snei	r2,r1,#1
15255  0000dd14  10400030	beqz	r2,L140_LF5
15256  0000dd18  54000000	nop; delay slot nop
15257  0000dd1c  23bdfff8	addi	r29,r29,#-8
15258  0000dd20  001d0820	add	r1,r0,r29
15259  0000dd24  3c020002	lhi	r2,((LC29_LF5)>>16)&0xffff
15260  0000dd28  24421078	addui	r2,r2,(LC29_LF5)&0xffff
15261  0000dd2c  ac220000	sw	(r1),r2
15262  0000dd30  0c004848	jal	_printf
15263  0000dd34  54000000	nop; delay slot nop
15264  0000dd38  23bd0008	addi	r29,r29,#8
15265  0000dd3c  001d1020	add	r2,r0,r29
15266  0000dd40  0c004820	jal	_exitsim
15267  0000dd44  54000000	nop; delay slot nop
15268  0000dd48          	L140_LF5:
15269  0000dd48  23bdfff8	addi	r29,r29,#-8
15270  0000dd4c  001d0820	add	r1,r0,r29
15271  0000dd50  8fc20000	lw	r2,(r30)
15272  0000dd54  8c430000	lw	r3,(r2)
15273  0000dd58  ac230000	sw	(r1),r3
15274  0000dd5c  0ffff2d0	jal	_LockRelease
15275  0000dd60  54000000	nop; delay slot nop
15276  0000dd64  23bd0008	addi	r29,r29,#8
15277  0000dd68  23bdfff8	addi	r29,r29,#-8
15278  0000dd6c  001d0820	add	r1,r0,r29
15279  0000dd70  8fc2fff0	lw	r2,-16(r30)
15280  0000dd74  ac220000	sw	(r1),r2
15281  0000dd78  0c003f40	jal	_RestoreIntrs
15282  0000dd7c  54000000	nop; delay slot nop
15283  0000dd80  23bd0008	addi	r29,r29,#8
15284  0000dd84  001d1020	add	r2,r0,r29
15285  0000dd88  0c00473c	jal	_ProcessSleep
15286  0000dd8c  54000000	nop; delay slot nop
15287  0000dd90  23bdfff8	addi	r29,r29,#-8
15288  0000dd94  001d0820	add	r1,r0,r29
15289  0000dd98  8fc20000	lw	r2,(r30)
15290  0000dd9c  8c430000	lw	r3,(r2)
15291  0000dda0  ac230000	sw	(r1),r3
15292  0000dda4  0fffeb08	jal	_LockAcquire
15293  0000dda8  54000000	nop; delay slot nop
15294  0000ddac  23bd0008	addi	r29,r29,#8
15295  0000ddb0  20010001	addi	r1,r0,#1
15296  0000ddb4  08000004	j	L130_LF5
15297  0000ddb8  54000000	nop; delay slot nop
15298  0000ddbc          	L130_LF5:
15299  0000ddbc  8fa20000	lw	r2,0(r29)
15300  0000ddc0  8fa30004	lw	r3,4(r29)
15301  0000ddc4  8fa40008	lw	r4,8(r29)
15302  0000ddc8  8fdffff8	lw	r31,-8(r30)
15303  0000ddcc  001ee820	add	r29,r0,r30
15304  0000ddd0  8fdefffc	lw	r30,-4(r30)
15305  0000ddd4  4be00000	jr	r31
15306  0000ddd8  54000000	nop
15307  0000dddc          	.endproc _CondWait
15308  0000dddc          	.align 2
15309  0000dddc          	.proc _CondHandleWait
15310  0000dddc          	.global _CondHandleWait
15311  0000dddc          	_CondHandleWait:
15312                      ;  Function 'CondHandleWait'; 0 bytes of locals, 4 regs to save.
15313  0000dddc  afbefffc	sw	-4(r29),r30; push fp
15314  0000dde0  001df020	add	r30,r0,r29; fp = sp
15315  0000dde4  afbffff8	sw	-8(r29),r31; push ret addr
15316  0000dde8  2fbd0018	subui	r29,r29,#24; alloc local storage
15317  0000ddec  afa20000	sw	0(r29),r2
15318  0000ddf0  afa30004	sw	4(r29),r3
15319  0000ddf4  afa40008	sw	8(r29),r4
15320  0000ddf8  afa5000c	sw	12(r29),r5
15321  0000ddfc  8fc10000	lw	r1,(r30)
15322  0000de00  68220000	slti	r2,r1,#0
15323  0000de04  10400010	beqz	r2,L142_LF5
15324  0000de08  54000000	nop; delay slot nop
15325  0000de0c  2001ffff	addi	r1,r0,#-1
15326  0000de10  080000a4	j	L141_LF5
15327  0000de14  54000000	nop; delay slot nop
15328  0000de18          	L142_LF5:
15329  0000de18  8fc10000	lw	r1,(r30)
15330  0000de1c  6c22001f	sgti	r2,r1,#31
15331  0000de20  10400010	beqz	r2,L143_LF5
15332  0000de24  54000000	nop; delay slot nop
15333  0000de28  2001ffff	addi	r1,r0,#-1
15334  0000de2c  08000088	j	L141_LF5
15335  0000de30  54000000	nop; delay slot nop
15336  0000de34          	L143_LF5:
15337  0000de34  8fc10000	lw	r1,(r30)
15338  0000de38  00011820	add	r3,r0,r1
15339  0000de3c  50620002	slli	r2,r3,#0x2
15340  0000de40  00411020	add	r2,r2,r1
15341  0000de44  50410002	slli	r1,r2,#0x2
15342  0000de48  3c050002	lhi	r5,((_conds_LF5)>>16)&0xffff
15343  0000de4c  24a51a3c	addui	r5,r5,(_conds_LF5)&0xffff
15344  0000de50  00251020	add	r2,r1,r5
15345  0000de54  8c410010	lw	r1,16(r2)
15346  0000de58  64220000	snei	r2,r1,#0
15347  0000de5c  14400010	bnez	r2,L144_LF5
15348  0000de60  54000000	nop; delay slot nop
15349  0000de64  2001ffff	addi	r1,r0,#-1
15350  0000de68  0800004c	j	L141_LF5
15351  0000de6c  54000000	nop; delay slot nop
15352  0000de70          	L144_LF5:
15353  0000de70  23bdfff8	addi	r29,r29,#-8
15354  0000de74  001d0820	add	r1,r0,r29
15355  0000de78  8fc20000	lw	r2,(r30)
15356  0000de7c  00022020	add	r4,r0,r2
15357  0000de80  50830002	slli	r3,r4,#0x2
15358  0000de84  00621820	add	r3,r3,r2
15359  0000de88  50620002	slli	r2,r3,#0x2
15360  0000de8c  3c030002	lhi	r3,((_conds_LF5)>>16)&0xffff
15361  0000de90  24631a3c	addui	r3,r3,(_conds_LF5)&0xffff
15362  0000de94  00621020	add	r2,r3,r2
15363  0000de98  ac220000	sw	(r1),r2
15364  0000de9c  0ffffa38	jal	_CondWait
15365  0000dea0  54000000	nop; delay slot nop
15366  0000dea4  23bd0008	addi	r29,r29,#8
15367  0000dea8  00011020	add	r2,r0,r1
15368  0000deac  00020820	add	r1,r0,r2
15369  0000deb0  08000004	j	L141_LF5
15370  0000deb4  54000000	nop; delay slot nop
15371  0000deb8          	L141_LF5:
15372  0000deb8  8fa20000	lw	r2,0(r29)
15373  0000debc  8fa30004	lw	r3,4(r29)
15374  0000dec0  8fa40008	lw	r4,8(r29)
15375  0000dec4  8fa5000c	lw	r5,12(r29)
15376  0000dec8  8fdffff8	lw	r31,-8(r30)
15377  0000decc  001ee820	add	r29,r0,r30
15378  0000ded0  8fdefffc	lw	r30,-4(r30)
15379  0000ded4  4be00000	jr	r31
15380  0000ded8  54000000	nop
15381  0000dedc          	.endproc _CondHandleWait
15382  0000dedc          	.data
15383  000210c5          	.align 2
15384  000210c8          	LC30_LF5:
15385  000210c8  436f6e64	.ascii "CondSignal: Proc %d signalling cond %d.\n\000"
15385  000210cc  5369676e	
15385  000210d0  616c3a20	
15385  000210d4  50726f63	
15385  000210d8  20256420	
15385  000210dc  7369676e	
15385  000210e0  616c6c69	
15385  000210e4  6e672063	
15385  000210e8  6f6e6420	
15385  000210ec  25642e0a	
15385  000210f0  00      	
15386  000210f1          	.align 2
15387  000210f4          	LC31_LF5:
15388  000210f4  436f6e64	.ascii "CondSignal: Proc %d does not own cond %d.\n\000"
15388  000210f8  5369676e	
15388  000210fc  616c3a20	
15388  00021100  50726f63	
15388  00021104  20256420	
15388  00021108  646f6573	
15388  0002110c  206e6f74	
15388  00021110  206f776e	
15388  00021114  20636f6e	
15388  00021118  64202564	
15388  0002111c  2e0a00  	
15389  0002111f          	.align 2
15390  00021120          	LC32_LF5:
15391  00021120  46415441	.ascii "FATAL ERROR: could not remove link from cond queue in CondSignal!\n\000"
15391  00021124  4c204552	
15391  00021128  524f523a	
15391  0002112c  20636f75	
15391  00021130  6c64206e	
15391  00021134  6f742072	
15391  00021138  656d6f76	
15391  0002113c  65206c69	
15391  00021140  6e6b2066	
15391  00021144  726f6d20	
15391  00021148  636f6e64	
15391  0002114c  20717565	
15391  00021150  75652069	
15391  00021154  6e20436f	
15391  00021158  6e645369	
15391  0002115c  676e616c	
15391  00021160  210a00  	
15392  00021163          	.align 2
15393  00021164          	LC33_LF5:
15394  00021164  436f6e64	.ascii "CondSignal: Waking up PID %d, it still needs to acquire lock.\n\000"
15394  00021168  5369676e	
15394  0002116c  616c3a20	
15394  00021170  57616b69	
15394  00021174  6e672075	
15394  00021178  70205049	
15394  0002117c  44202564	
15394  00021180  2c206974	
15394  00021184  20737469	
15394  00021188  6c6c206e	
15394  0002118c  65656473	
15394  00021190  20746f20	
15394  00021194  61637175	
15394  00021198  69726520	
15394  0002119c  6c6f636b	
15394  000211a0  2e0a00  	
15395  000211a3          	.align 2
15396  000211a4          	LC34_LF5:
15397  000211a4  436f6e64	.ascii "CondSignal: Proc %d signalled, but no processes were waiting.\n\000"
15397  000211a8  5369676e	
15397  000211ac  616c3a20	
15397  000211b0  50726f63	
15397  000211b4  20256420	
15397  000211b8  7369676e	
15397  000211bc  616c6c65	
15397  000211c0  642c2062	
15397  000211c4  7574206e	
15397  000211c8  6f207072	
15397  000211cc  6f636573	
15397  000211d0  73657320	
15397  000211d4  77657265	
15397  000211d8  20776169	
15397  000211dc  74696e67	
15397  000211e0  2e0a00  	
15398  000211e3          	.text
15399  0000dedc          	.align 2
15400  0000dedc          	.proc _CondSignal
15401  0000dedc          	.global _CondSignal
15402  0000dedc          	_CondSignal:
15403                      ;  Function 'CondSignal'; 16 bytes of locals, 3 regs to save.
15404  0000dedc  afbefffc	sw	-4(r29),r30; push fp
15405  0000dee0  001df020	add	r30,r0,r29; fp = sp
15406  0000dee4  afbffff8	sw	-8(r29),r31; push ret addr
15407  0000dee8  2fbd0028	subui	r29,r29,#40; alloc local storage
15408  0000deec  afa20000	sw	0(r29),r2
15409  0000def0  afa30004	sw	4(r29),r3
15410  0000def4  afa40008	sw	8(r29),r4
15411  0000def8  8fc10000	lw	r1,(r30)
15412  0000defc  64220000	snei	r2,r1,#0
15413  0000df00  14400010	bnez	r2,L146_LF5
15414  0000df04  54000000	nop; delay slot nop
15415  0000df08  2001ffff	addi	r1,r0,#-1
15416  0000df0c  08000564	j	L145_LF5
15417  0000df10  54000000	nop; delay slot nop
15418  0000df14          	L146_LF5:
15419  0000df14  001d1020	add	r2,r0,r29
15420  0000df18  0c003cf0	jal	_DisableIntrs
15421  0000df1c  54000000	nop; delay slot nop
15422  0000df20  afc1fff0	sw	-16(r30),r1
15423  0000df24  23bdfff8	addi	r29,r29,#-8
15424  0000df28  001d0820	add	r1,r0,r29
15425  0000df2c  3c020001	lhi	r2,((_debugstr)>>16)&0xffff
15426  0000df30  244261cb	addui	r2,r2,(_debugstr)&0xffff
15427  0000df34  ac220000	sw	(r1),r2
15428  0000df38  20020073	addi	r2,r0,#115
15429  0000df3c  ac220004	sw	4(r1),r2
15430  0000df40  0fff6510	jal	_dindex
15431  0000df44  54000000	nop; delay slot nop
15432  0000df48  23bd0008	addi	r29,r29,#8
15433  0000df4c  64220000	snei	r2,r1,#0
15434  0000df50  10400068	beqz	r2,L147_LF5
15435  0000df54  54000000	nop; delay slot nop
15436  0000df58  001d1020	add	r2,r0,r29
15437  0000df5c  0fffb7c0	jal	_GetCurrentPid
15438  0000df60  54000000	nop; delay slot nop
15439  0000df64  00011020	add	r2,r0,r1
15440  0000df68  23bdfff0	addi	r29,r29,#-16
15441  0000df6c  001d0820	add	r1,r0,r29
15442  0000df70  3c030002	lhi	r3,((LC30_LF5)>>16)&0xffff
15443  0000df74  246310c8	addui	r3,r3,(LC30_LF5)&0xffff
15444  0000df78  ac230000	sw	(r1),r3
15445  0000df7c  ac220004	sw	4(r1),r2
15446  0000df80  8fc30000	lw	r3,(r30)
15447  0000df84  3c040002	lhi	r4,((_conds_LF5)>>16)&0xffff
15448  0000df88  24841a3c	addui	r4,r4,(_conds_LF5)&0xffff
15449  0000df8c  00641022	sub	r2,r3,r4
15450  0000df90  3c03cccc	lhi	r3,#-13108
15451  0000df94  2463cccd	addui	r3,r3,#52429
15452  0000df98  00400035	movi2fp	f0,r2
15453  0000df9c  00600835	movi2fp	f1,r3
15454  0000dfa0  0401000e	mult	f0,f0,f1
15455  0000dfa4  00001034	movfp2i	r2,f0
15456  0000dfa8  5c430002	srai	r3,r2,#0x2
15457  0000dfac  ac230008	sw	8(r1),r3
15458  0000dfb0  0c0045c8	jal	_printf
15459  0000dfb4  54000000	nop; delay slot nop
15460  0000dfb8  23bd0010	addi	r29,r29,#16
15461  0000dfbc          	L147_LF5:
15462  0000dfbc  23bdfff8	addi	r29,r29,#-8
15463  0000dfc0  001d0820	add	r1,r0,r29
15464  0000dfc4  3c020001	lhi	r2,((_debugstr)>>16)&0xffff
15465  0000dfc8  244261cb	addui	r2,r2,(_debugstr)&0xffff
15466  0000dfcc  ac220000	sw	(r1),r2
15467  0000dfd0  2002002b	addi	r2,r0,#43
15468  0000dfd4  ac220004	sw	4(r1),r2
15469  0000dfd8  0fff6478	jal	_dindex
15470  0000dfdc  54000000	nop; delay slot nop
15471  0000dfe0  23bd0008	addi	r29,r29,#8
15472  0000dfe4  64220000	snei	r2,r1,#0
15473  0000dfe8  10400068	beqz	r2,L148_LF5
15474  0000dfec  54000000	nop; delay slot nop
15475  0000dff0  001d1020	add	r2,r0,r29
15476  0000dff4  0fffb728	jal	_GetCurrentPid
15477  0000dff8  54000000	nop; delay slot nop
15478  0000dffc  00011020	add	r2,r0,r1
15479  0000e000  23bdfff0	addi	r29,r29,#-16
15480  0000e004  001d0820	add	r1,r0,r29
15481  0000e008  3c030002	lhi	r3,((LC30_LF5)>>16)&0xffff
15482  0000e00c  246310c8	addui	r3,r3,(LC30_LF5)&0xffff
15483  0000e010  ac230000	sw	(r1),r3
15484  0000e014  ac220004	sw	4(r1),r2
15485  0000e018  8fc30000	lw	r3,(r30)
15486  0000e01c  3c040002	lhi	r4,((_conds_LF5)>>16)&0xffff
15487  0000e020  24841a3c	addui	r4,r4,(_conds_LF5)&0xffff
15488  0000e024  00641022	sub	r2,r3,r4
15489  0000e028  3c03cccc	lhi	r3,#-13108
15490  0000e02c  2463cccd	addui	r3,r3,#52429
15491  0000e030  00400035	movi2fp	f0,r2
15492  0000e034  00600835	movi2fp	f1,r3
15493  0000e038  0401000e	mult	f0,f0,f1
15494  0000e03c  00001034	movfp2i	r2,f0
15495  0000e040  5c430002	srai	r3,r2,#0x2
15496  0000e044  ac230008	sw	8(r1),r3
15497  0000e048  0c004530	jal	_printf
15498  0000e04c  54000000	nop; delay slot nop
15499  0000e050  23bd0010	addi	r29,r29,#16
15500  0000e054          	L148_LF5:
15501  0000e054  8fc10000	lw	r1,(r30)
15502  0000e058  8c220000	lw	r2,(r1)
15503  0000e05c  001d1820	add	r3,r0,r29
15504  0000e060  0fffb6bc	jal	_GetCurrentPid
15505  0000e064  54000000	nop; delay slot nop
15506  0000e068  8c420000	lw	r2,(r2)
15507  0000e06c  00410829	sne	r1,r2,r1
15508  0000e070  10200140	beqz	r1,L149_LF5
15509  0000e074  54000000	nop; delay slot nop
15510  0000e078  23bdfff8	addi	r29,r29,#-8
15511  0000e07c  001d0820	add	r1,r0,r29
15512  0000e080  3c020001	lhi	r2,((_debugstr)>>16)&0xffff
15513  0000e084  244261cb	addui	r2,r2,(_debugstr)&0xffff
15514  0000e088  ac220000	sw	(r1),r2
15515  0000e08c  20020073	addi	r2,r0,#115
15516  0000e090  ac220004	sw	4(r1),r2
15517  0000e094  0fff63bc	jal	_dindex
15518  0000e098  54000000	nop; delay slot nop
15519  0000e09c  23bd0008	addi	r29,r29,#8
15520  0000e0a0  64220000	snei	r2,r1,#0
15521  0000e0a4  10400068	beqz	r2,L150_LF5
15522  0000e0a8  54000000	nop; delay slot nop
15523  0000e0ac  001d1020	add	r2,r0,r29
15524  0000e0b0  0fffb66c	jal	_GetCurrentPid
15525  0000e0b4  54000000	nop; delay slot nop
15526  0000e0b8  00011020	add	r2,r0,r1
15527  0000e0bc  23bdfff0	addi	r29,r29,#-16
15528  0000e0c0  001d0820	add	r1,r0,r29
15529  0000e0c4  3c030002	lhi	r3,((LC31_LF5)>>16)&0xffff
15530  0000e0c8  246310f4	addui	r3,r3,(LC31_LF5)&0xffff
15531  0000e0cc  ac230000	sw	(r1),r3
15532  0000e0d0  ac220004	sw	4(r1),r2
15533  0000e0d4  8fc30000	lw	r3,(r30)
15534  0000e0d8  3c040002	lhi	r4,((_conds_LF5)>>16)&0xffff
15535  0000e0dc  24841a3c	addui	r4,r4,(_conds_LF5)&0xffff
15536  0000e0e0  00641022	sub	r2,r3,r4
15537  0000e0e4  3c03cccc	lhi	r3,#-13108
15538  0000e0e8  2463cccd	addui	r3,r3,#52429
15539  0000e0ec  00400035	movi2fp	f0,r2
15540  0000e0f0  00600835	movi2fp	f1,r3
15541  0000e0f4  0401000e	mult	f0,f0,f1
15542  0000e0f8  00001034	movfp2i	r2,f0
15543  0000e0fc  5c430002	srai	r3,r2,#0x2
15544  0000e100  ac230008	sw	8(r1),r3
15545  0000e104  0c004474	jal	_printf
15546  0000e108  54000000	nop; delay slot nop
15547  0000e10c  23bd0010	addi	r29,r29,#16
15548  0000e110          	L150_LF5:
15549  0000e110  23bdfff8	addi	r29,r29,#-8
15550  0000e114  001d0820	add	r1,r0,r29
15551  0000e118  3c020001	lhi	r2,((_debugstr)>>16)&0xffff
15552  0000e11c  244261cb	addui	r2,r2,(_debugstr)&0xffff
15553  0000e120  ac220000	sw	(r1),r2
15554  0000e124  2002002b	addi	r2,r0,#43
15555  0000e128  ac220004	sw	4(r1),r2
15556  0000e12c  0fff6324	jal	_dindex
15557  0000e130  54000000	nop; delay slot nop
15558  0000e134  23bd0008	addi	r29,r29,#8
15559  0000e138  64220000	snei	r2,r1,#0
15560  0000e13c  10400068	beqz	r2,L151_LF5
15561  0000e140  54000000	nop; delay slot nop
15562  0000e144  001d1020	add	r2,r0,r29
15563  0000e148  0fffb5d4	jal	_GetCurrentPid
15564  0000e14c  54000000	nop; delay slot nop
15565  0000e150  00011020	add	r2,r0,r1
15566  0000e154  23bdfff0	addi	r29,r29,#-16
15567  0000e158  001d0820	add	r1,r0,r29
15568  0000e15c  3c030002	lhi	r3,((LC31_LF5)>>16)&0xffff
15569  0000e160  246310f4	addui	r3,r3,(LC31_LF5)&0xffff
15570  0000e164  ac230000	sw	(r1),r3
15571  0000e168  ac220004	sw	4(r1),r2
15572  0000e16c  8fc30000	lw	r3,(r30)
15573  0000e170  3c040002	lhi	r4,((_conds_LF5)>>16)&0xffff
15574  0000e174  24841a3c	addui	r4,r4,(_conds_LF5)&0xffff
15575  0000e178  00641022	sub	r2,r3,r4
15576  0000e17c  3c03cccc	lhi	r3,#-13108
15577  0000e180  2463cccd	addui	r3,r3,#52429
15578  0000e184  00400035	movi2fp	f0,r2
15579  0000e188  00600835	movi2fp	f1,r3
15580  0000e18c  0401000e	mult	f0,f0,f1
15581  0000e190  00001034	movfp2i	r2,f0
15582  0000e194  5c430002	srai	r3,r2,#0x2
15583  0000e198  ac230008	sw	8(r1),r3
15584  0000e19c  0c0043dc	jal	_printf
15585  0000e1a0  54000000	nop; delay slot nop
15586  0000e1a4  23bd0010	addi	r29,r29,#16
15587  0000e1a8          	L151_LF5:
15588  0000e1a8  2001ffff	addi	r1,r0,#-1
15589  0000e1ac  080002c4	j	L145_LF5
15590  0000e1b0  54000000	nop; delay slot nop
15591  0000e1b4          	L149_LF5:
15592  0000e1b4  23bdfff8	addi	r29,r29,#-8
15593  0000e1b8  001d0820	add	r1,r0,r29
15594  0000e1bc  8fc20000	lw	r2,(r30)
15595  0000e1c0  20430004	addi	r3,r2,#4
15596  0000e1c4  ac230000	sw	(r1),r3
15597  0000e1c8  0fffd154	jal	_AQueueEmpty
15598  0000e1cc  54000000	nop; delay slot nop
15599  0000e1d0  23bd0008	addi	r29,r29,#8
15600  0000e1d4  64220000	snei	r2,r1,#0
15601  0000e1d8  144001a8	bnez	r2,L152_LF5
15602  0000e1dc  54000000	nop; delay slot nop
15603  0000e1e0  23bdfff8	addi	r29,r29,#-8
15604  0000e1e4  001d0820	add	r1,r0,r29
15605  0000e1e8  8fc20000	lw	r2,(r30)
15606  0000e1ec  20430004	addi	r3,r2,#4
15607  0000e1f0  ac230000	sw	(r1),r3
15608  0000e1f4  0fffd038	jal	_AQueueFirst
15609  0000e1f8  54000000	nop; delay slot nop
15610  0000e1fc  23bd0008	addi	r29,r29,#8
15611  0000e200  afc1fff4	sw	-12(r30),r1
15612  0000e204  23bdfff8	addi	r29,r29,#-8
15613  0000e208  001d0820	add	r1,r0,r29
15614  0000e20c  8fc2fff4	lw	r2,-12(r30)
15615  0000e210  ac220000	sw	(r1),r2
15616  0000e214  0fffd090	jal	_AQueueObject
15617  0000e218  54000000	nop; delay slot nop
15618  0000e21c  23bd0008	addi	r29,r29,#8
15619  0000e220  afc1ffec	sw	-20(r30),r1
15620  0000e224  23bdfff8	addi	r29,r29,#-8
15621  0000e228  001d0820	add	r1,r0,r29
15622  0000e22c  23c2fff4	addi	r2,r30,#-12
15623  0000e230  ac220000	sw	(r1),r2
15624  0000e234  0fffc454	jal	_AQueueRemove
15625  0000e238  54000000	nop; delay slot nop
15626  0000e23c  23bd0008	addi	r29,r29,#8
15627  0000e240  64220001	snei	r2,r1,#1
15628  0000e244  10400030	beqz	r2,L153_LF5
15629  0000e248  54000000	nop; delay slot nop
15630  0000e24c  23bdfff8	addi	r29,r29,#-8
15631  0000e250  001d0820	add	r1,r0,r29
15632  0000e254  3c020002	lhi	r2,((LC32_LF5)>>16)&0xffff
15633  0000e258  24421120	addui	r2,r2,(LC32_LF5)&0xffff
15634  0000e25c  ac220000	sw	(r1),r2
15635  0000e260  0c004318	jal	_printf
15636  0000e264  54000000	nop; delay slot nop
15637  0000e268  23bd0008	addi	r29,r29,#8
15638  0000e26c  001d1020	add	r2,r0,r29
15639  0000e270  0c0042f0	jal	_exitsim
15640  0000e274  54000000	nop; delay slot nop
15641  0000e278          	L153_LF5:
15642  0000e278  23bdfff8	addi	r29,r29,#-8
15643  0000e27c  001d0820	add	r1,r0,r29
15644  0000e280  3c020001	lhi	r2,((_debugstr)>>16)&0xffff
15645  0000e284  244261cb	addui	r2,r2,(_debugstr)&0xffff
15646  0000e288  ac220000	sw	(r1),r2
15647  0000e28c  20020073	addi	r2,r0,#115
15648  0000e290  ac220004	sw	4(r1),r2
15649  0000e294  0fff61bc	jal	_dindex
15650  0000e298  54000000	nop; delay slot nop
15651  0000e29c  23bd0008	addi	r29,r29,#8
15652  0000e2a0  64220000	snei	r2,r1,#0
15653  0000e2a4  10400044	beqz	r2,L154_LF5
15654  0000e2a8  54000000	nop; delay slot nop
15655  0000e2ac  23bdfff8	addi	r29,r29,#-8
15656  0000e2b0  001d0820	add	r1,r0,r29
15657  0000e2b4  8fc2ffec	lw	r2,-20(r30)
15658  0000e2b8  ac220000	sw	(r1),r2
15659  0000e2bc  0fffb6bc	jal	_GetPidFromAddress
15660  0000e2c0  54000000	nop; delay slot nop
15661  0000e2c4  23bd0008	addi	r29,r29,#8
15662  0000e2c8  23bdfff8	addi	r29,r29,#-8
15663  0000e2cc  001d1020	add	r2,r0,r29
15664  0000e2d0  3c030002	lhi	r3,((LC33_LF5)>>16)&0xffff
15665  0000e2d4  24631164	addui	r3,r3,(LC33_LF5)&0xffff
15666  0000e2d8  ac430000	sw	(r2),r3
15667  0000e2dc  ac410004	sw	4(r2),r1
15668  0000e2e0  0c004298	jal	_printf
15669  0000e2e4  54000000	nop; delay slot nop
15670  0000e2e8  23bd0008	addi	r29,r29,#8
15671  0000e2ec          	L154_LF5:
15672  0000e2ec  23bdfff8	addi	r29,r29,#-8
15673  0000e2f0  001d0820	add	r1,r0,r29
15674  0000e2f4  3c020001	lhi	r2,((_debugstr)>>16)&0xffff
15675  0000e2f8  244261cb	addui	r2,r2,(_debugstr)&0xffff
15676  0000e2fc  ac220000	sw	(r1),r2
15677  0000e300  2002002b	addi	r2,r0,#43
15678  0000e304  ac220004	sw	4(r1),r2
15679  0000e308  0fff6148	jal	_dindex
15680  0000e30c  54000000	nop; delay slot nop
15681  0000e310  23bd0008	addi	r29,r29,#8
15682  0000e314  64220000	snei	r2,r1,#0
15683  0000e318  10400044	beqz	r2,L155_LF5
15684  0000e31c  54000000	nop; delay slot nop
15685  0000e320  23bdfff8	addi	r29,r29,#-8
15686  0000e324  001d0820	add	r1,r0,r29
15687  0000e328  8fc2ffec	lw	r2,-20(r30)
15688  0000e32c  ac220000	sw	(r1),r2
15689  0000e330  0fffb648	jal	_GetPidFromAddress
15690  0000e334  54000000	nop; delay slot nop
15691  0000e338  23bd0008	addi	r29,r29,#8
15692  0000e33c  23bdfff8	addi	r29,r29,#-8
15693  0000e340  001d1020	add	r2,r0,r29
15694  0000e344  3c030002	lhi	r3,((LC33_LF5)>>16)&0xffff
15695  0000e348  24631164	addui	r3,r3,(LC33_LF5)&0xffff
15696  0000e34c  ac430000	sw	(r2),r3
15697  0000e350  ac410004	sw	4(r2),r1
15698  0000e354  0c004224	jal	_printf
15699  0000e358  54000000	nop; delay slot nop
15700  0000e35c  23bd0008	addi	r29,r29,#8
15701  0000e360          	L155_LF5:
15702  0000e360  23bdfff8	addi	r29,r29,#-8
15703  0000e364  001d0820	add	r1,r0,r29
15704  0000e368  8fc2ffec	lw	r2,-20(r30)
15705  0000e36c  ac220000	sw	(r1),r2
15706  0000e370  0fff7b30	jal	_ProcessWakeup
15707  0000e374  54000000	nop; delay slot nop
15708  0000e378  23bd0008	addi	r29,r29,#8
15709  0000e37c  080000cc	j	L156_LF5
15710  0000e380  54000000	nop; delay slot nop
15711  0000e384          	L152_LF5:
15712  0000e384  23bdfff8	addi	r29,r29,#-8
15713  0000e388  001d0820	add	r1,r0,r29
15714  0000e38c  3c020001	lhi	r2,((_debugstr)>>16)&0xffff
15715  0000e390  244261cb	addui	r2,r2,(_debugstr)&0xffff
15716  0000e394  ac220000	sw	(r1),r2
15717  0000e398  20020073	addi	r2,r0,#115
15718  0000e39c  ac220004	sw	4(r1),r2
15719  0000e3a0  0fff60b0	jal	_dindex
15720  0000e3a4  54000000	nop; delay slot nop
15721  0000e3a8  23bd0008	addi	r29,r29,#8
15722  0000e3ac  64220000	snei	r2,r1,#0
15723  0000e3b0  10400034	beqz	r2,L157_LF5
15724  0000e3b4  54000000	nop; delay slot nop
15725  0000e3b8  001d1020	add	r2,r0,r29
15726  0000e3bc  0fffb360	jal	_GetCurrentPid
15727  0000e3c0  54000000	nop; delay slot nop
15728  0000e3c4  23bdfff8	addi	r29,r29,#-8
15729  0000e3c8  001d1020	add	r2,r0,r29
15730  0000e3cc  3c030002	lhi	r3,((LC34_LF5)>>16)&0xffff
15731  0000e3d0  246311a4	addui	r3,r3,(LC34_LF5)&0xffff
15732  0000e3d4  ac430000	sw	(r2),r3
15733  0000e3d8  ac410004	sw	4(r2),r1
15734  0000e3dc  0c00419c	jal	_printf
15735  0000e3e0  54000000	nop; delay slot nop
15736  0000e3e4  23bd0008	addi	r29,r29,#8
15737  0000e3e8          	L157_LF5:
15738  0000e3e8  23bdfff8	addi	r29,r29,#-8
15739  0000e3ec  001d0820	add	r1,r0,r29
15740  0000e3f0  3c020001	lhi	r2,((_debugstr)>>16)&0xffff
15741  0000e3f4  244261cb	addui	r2,r2,(_debugstr)&0xffff
15742  0000e3f8  ac220000	sw	(r1),r2
15743  0000e3fc  2002002b	addi	r2,r0,#43
15744  0000e400  ac220004	sw	4(r1),r2
15745  0000e404  0fff604c	jal	_dindex
15746  0000e408  54000000	nop; delay slot nop
15747  0000e40c  23bd0008	addi	r29,r29,#8
15748  0000e410  64220000	snei	r2,r1,#0
15749  0000e414  10400034	beqz	r2,L156_LF5
15750  0000e418  54000000	nop; delay slot nop
15751  0000e41c  001d1020	add	r2,r0,r29
15752  0000e420  0fffb2fc	jal	_GetCurrentPid
15753  0000e424  54000000	nop; delay slot nop
15754  0000e428  23bdfff8	addi	r29,r29,#-8
15755  0000e42c  001d1020	add	r2,r0,r29
15756  0000e430  3c030002	lhi	r3,((LC34_LF5)>>16)&0xffff
15757  0000e434  246311a4	addui	r3,r3,(LC34_LF5)&0xffff
15758  0000e438  ac430000	sw	(r2),r3
15759  0000e43c  ac410004	sw	4(r2),r1
15760  0000e440  0c004138	jal	_printf
15761  0000e444  54000000	nop; delay slot nop
15762  0000e448  23bd0008	addi	r29,r29,#8
15763  0000e44c          	L158_LF5:
15764  0000e44c          	L156_LF5:
15765  0000e44c  23bdfff8	addi	r29,r29,#-8
15766  0000e450  001d0820	add	r1,r0,r29
15767  0000e454  8fc2fff0	lw	r2,-16(r30)
15768  0000e458  ac220000	sw	(r1),r2
15769  0000e45c  0c00385c	jal	_RestoreIntrs
15770  0000e460  54000000	nop; delay slot nop
15771  0000e464  23bd0008	addi	r29,r29,#8
15772  0000e468  20010001	addi	r1,r0,#1
15773  0000e46c  08000004	j	L145_LF5
15774  0000e470  54000000	nop; delay slot nop
15775  0000e474          	L145_LF5:
15776  0000e474  8fa20000	lw	r2,0(r29)
15777  0000e478  8fa30004	lw	r3,4(r29)
15778  0000e47c  8fa40008	lw	r4,8(r29)
15779  0000e480  8fdffff8	lw	r31,-8(r30)
15780  0000e484  001ee820	add	r29,r0,r30
15781  0000e488  8fdefffc	lw	r30,-4(r30)
15782  0000e48c  4be00000	jr	r31
15783  0000e490  54000000	nop
15784  0000e494          	.endproc _CondSignal
15785  0000e494          	.align 2
15786  0000e494          	.proc _CondHandleSignal
15787  0000e494          	.global _CondHandleSignal
15788  0000e494          	_CondHandleSignal:
15789                      ;  Function 'CondHandleSignal'; 0 bytes of locals, 4 regs to save.
15790  0000e494  afbefffc	sw	-4(r29),r30; push fp
15791  0000e498  001df020	add	r30,r0,r29; fp = sp
15792  0000e49c  afbffff8	sw	-8(r29),r31; push ret addr
15793  0000e4a0  2fbd0018	subui	r29,r29,#24; alloc local storage
15794  0000e4a4  afa20000	sw	0(r29),r2
15795  0000e4a8  afa30004	sw	4(r29),r3
15796  0000e4ac  afa40008	sw	8(r29),r4
15797  0000e4b0  afa5000c	sw	12(r29),r5
15798  0000e4b4  8fc10000	lw	r1,(r30)
15799  0000e4b8  68220000	slti	r2,r1,#0
15800  0000e4bc  10400010	beqz	r2,L160_LF5
15801  0000e4c0  54000000	nop; delay slot nop
15802  0000e4c4  2001ffff	addi	r1,r0,#-1
15803  0000e4c8  080000a4	j	L159_LF5
15804  0000e4cc  54000000	nop; delay slot nop
15805  0000e4d0          	L160_LF5:
15806  0000e4d0  8fc10000	lw	r1,(r30)
15807  0000e4d4  6c22001f	sgti	r2,r1,#31
15808  0000e4d8  10400010	beqz	r2,L161_LF5
15809  0000e4dc  54000000	nop; delay slot nop
15810  0000e4e0  2001ffff	addi	r1,r0,#-1
15811  0000e4e4  08000088	j	L159_LF5
15812  0000e4e8  54000000	nop; delay slot nop
15813  0000e4ec          	L161_LF5:
15814  0000e4ec  8fc10000	lw	r1,(r30)
15815  0000e4f0  00011820	add	r3,r0,r1
15816  0000e4f4  50620002	slli	r2,r3,#0x2
15817  0000e4f8  00411020	add	r2,r2,r1
15818  0000e4fc  50410002	slli	r1,r2,#0x2
15819  0000e500  3c050002	lhi	r5,((_conds_LF5)>>16)&0xffff
15820  0000e504  24a51a3c	addui	r5,r5,(_conds_LF5)&0xffff
15821  0000e508  00251020	add	r2,r1,r5
15822  0000e50c  8c410010	lw	r1,16(r2)
15823  0000e510  64220000	snei	r2,r1,#0
15824  0000e514  14400010	bnez	r2,L162_LF5
15825  0000e518  54000000	nop; delay slot nop
15826  0000e51c  2001ffff	addi	r1,r0,#-1
15827  0000e520  0800004c	j	L159_LF5
15828  0000e524  54000000	nop; delay slot nop
15829  0000e528          	L162_LF5:
15830  0000e528  23bdfff8	addi	r29,r29,#-8
15831  0000e52c  001d0820	add	r1,r0,r29
15832  0000e530  8fc20000	lw	r2,(r30)
15833  0000e534  00022020	add	r4,r0,r2
15834  0000e538  50830002	slli	r3,r4,#0x2
15835  0000e53c  00621820	add	r3,r3,r2
15836  0000e540  50620002	slli	r2,r3,#0x2
15837  0000e544  3c030002	lhi	r3,((_conds_LF5)>>16)&0xffff
15838  0000e548  24631a3c	addui	r3,r3,(_conds_LF5)&0xffff
15839  0000e54c  00621020	add	r2,r3,r2
15840  0000e550  ac220000	sw	(r1),r2
15841  0000e554  0ffff984	jal	_CondSignal
15842  0000e558  54000000	nop; delay slot nop
15843  0000e55c  23bd0008	addi	r29,r29,#8
15844  0000e560  00011020	add	r2,r0,r1
15845  0000e564  00020820	add	r1,r0,r2
15846  0000e568  08000004	j	L159_LF5
15847  0000e56c  54000000	nop; delay slot nop
15848  0000e570          	L159_LF5:
15849  0000e570  8fa20000	lw	r2,0(r29)
15850  0000e574  8fa30004	lw	r3,4(r29)
15851  0000e578  8fa40008	lw	r4,8(r29)
15852  0000e57c  8fa5000c	lw	r5,12(r29)
15853  0000e580  8fdffff8	lw	r31,-8(r30)
15854  0000e584  001ee820	add	r29,r0,r30
15855  0000e588  8fdefffc	lw	r30,-4(r30)
15856  0000e58c  4be00000	jr	r31
15857  0000e590  54000000	nop
15858  0000e594          	.endproc _CondHandleSignal
15859  0000e594          	.data
15860  000211e3          	.align 2
15861  000211e4          	LC35_LF5:
15862  000211e4  436f6e64	.ascii "CondBroadcast: Proc %d tried to broadcast, but it doesn\'t own cond %d"
15862  000211e8  42726f61	
15862  000211ec  64636173	
15862  000211f0  743a2050	
15862  000211f4  726f6320	
15862  000211f8  25642074	
15862  000211fc  72696564	
15862  00021200  20746f20	
15862  00021204  62726f61	
15862  00021208  64636173	
15862  0002120c  742c2062	
15862  00021210  75742069	
15862  00021214  7420646f	
15862  00021218  65736e27	
15862  0002121c  74206f77	
15862  00021220  6e20636f	
15862  00021224  6e642025	
15862  00021228  64      	
15863  00021229  0a00    	.ascii "\n\000"
15864  0002122b          	.align 2
15865  0002122c          	LC36_LF5:
15866  0002122c  436f6e64	.ascii "CondBroadcast: Proc %d failed in signalling cond %d\n\000"
15866  00021230  42726f61	
15866  00021234  64636173	
15866  00021238  743a2050	
15866  0002123c  726f6320	
15866  00021240  25642066	
15866  00021244  61696c65	
15866  00021248  6420696e	
15866  0002124c  20736967	
15866  00021250  6e616c6c	
15866  00021254  696e6720	
15866  00021258  636f6e64	
15866  0002125c  2025640a	
15866  00021260  00      	
15867  00021261          	.align 2
15868  00021264          	LC37_LF5:
15869  00021264  436f6e64	.ascii "CondBroadcast: Proc %d successful broadcast on cond %d, still needs to"
15869  00021268  42726f61	
15869  0002126c  64636173	
15869  00021270  743a2050	
15869  00021274  726f6320	
15869  00021278  25642073	
15869  0002127c  75636365	
15869  00021280  73736675	
15869  00021284  6c206272	
15869  00021288  6f616463	
15869  0002128c  61737420	
15869  00021290  6f6e2063	
15869  00021294  6f6e6420	
15869  00021298  25642c20	
15869  0002129c  7374696c	
15869  000212a0  6c206e65	
15869  000212a4  65647320	
15869  000212a8  746f    	
15870  000212aa  2072656c	.ascii " release lock\n\000"
15870  000212ae  65617365	
15870  000212b2  206c6f63	
15870  000212b6  6b0a00  	
15871  000212b9          	.text
15872  0000e594          	.align 2
15873  0000e594          	.proc _CondBroadcast
15874  0000e594          	.global _CondBroadcast
15875  0000e594          	_CondBroadcast:
15876                      ;  Function 'CondBroadcast'; 0 bytes of locals, 3 regs to save.
15877  0000e594  afbefffc	sw	-4(r29),r30; push fp
15878  0000e598  001df020	add	r30,r0,r29; fp = sp
15879  0000e59c  afbffff8	sw	-8(r29),r31; push ret addr
15880  0000e5a0  2fbd0018	subui	r29,r29,#24; alloc local storage
15881  0000e5a4  afa20000	sw	0(r29),r2
15882  0000e5a8  afa30004	sw	4(r29),r3
15883  0000e5ac  afa40008	sw	8(r29),r4
15884  0000e5b0  8fc10000	lw	r1,(r30)
15885  0000e5b4  64220000	snei	r2,r1,#0
15886  0000e5b8  14400010	bnez	r2,L164_LF5
15887  0000e5bc  54000000	nop; delay slot nop
15888  0000e5c0  2001ffff	addi	r1,r0,#-1
15889  0000e5c4  08000444	j	L163_LF5
15890  0000e5c8  54000000	nop; delay slot nop
15891  0000e5cc          	L164_LF5:
15892  0000e5cc  8fc10000	lw	r1,(r30)
15893  0000e5d0  8c220000	lw	r2,(r1)
15894  0000e5d4  001d1820	add	r3,r0,r29
15895  0000e5d8  0fffb144	jal	_GetCurrentPid
15896  0000e5dc  54000000	nop; delay slot nop
15897  0000e5e0  8c420000	lw	r2,(r2)
15898  0000e5e4  00410829	sne	r1,r2,r1
15899  0000e5e8  10200140	beqz	r1,L165_LF5
15900  0000e5ec  54000000	nop; delay slot nop
15901  0000e5f0  23bdfff8	addi	r29,r29,#-8
15902  0000e5f4  001d0820	add	r1,r0,r29
15903  0000e5f8  3c020001	lhi	r2,((_debugstr)>>16)&0xffff
15904  0000e5fc  244261cb	addui	r2,r2,(_debugstr)&0xffff
15905  0000e600  ac220000	sw	(r1),r2
15906  0000e604  20020073	addi	r2,r0,#115
15907  0000e608  ac220004	sw	4(r1),r2
15908  0000e60c  0fff5e44	jal	_dindex
15909  0000e610  54000000	nop; delay slot nop
15910  0000e614  23bd0008	addi	r29,r29,#8
15911  0000e618  64220000	snei	r2,r1,#0
15912  0000e61c  10400068	beqz	r2,L166_LF5
15913  0000e620  54000000	nop; delay slot nop
15914  0000e624  001d1020	add	r2,r0,r29
15915  0000e628  0fffb0f4	jal	_GetCurrentPid
15916  0000e62c  54000000	nop; delay slot nop
15917  0000e630  00011020	add	r2,r0,r1
15918  0000e634  23bdfff0	addi	r29,r29,#-16
15919  0000e638  001d0820	add	r1,r0,r29
15920  0000e63c  3c030002	lhi	r3,((LC35_LF5)>>16)&0xffff
15921  0000e640  246311e4	addui	r3,r3,(LC35_LF5)&0xffff
15922  0000e644  ac230000	sw	(r1),r3
15923  0000e648  ac220004	sw	4(r1),r2
15924  0000e64c  8fc30000	lw	r3,(r30)
15925  0000e650  3c040002	lhi	r4,((_conds_LF5)>>16)&0xffff
15926  0000e654  24841a3c	addui	r4,r4,(_conds_LF5)&0xffff
15927  0000e658  00641022	sub	r2,r3,r4
15928  0000e65c  3c03cccc	lhi	r3,#-13108
15929  0000e660  2463cccd	addui	r3,r3,#52429
15930  0000e664  00400035	movi2fp	f0,r2
15931  0000e668  00600835	movi2fp	f1,r3
15932  0000e66c  0401000e	mult	f0,f0,f1
15933  0000e670  00001034	movfp2i	r2,f0
15934  0000e674  5c430002	srai	r3,r2,#0x2
15935  0000e678  ac230008	sw	8(r1),r3
15936  0000e67c  0c003efc	jal	_printf
15937  0000e680  54000000	nop; delay slot nop
15938  0000e684  23bd0010	addi	r29,r29,#16
15939  0000e688          	L166_LF5:
15940  0000e688  23bdfff8	addi	r29,r29,#-8
15941  0000e68c  001d0820	add	r1,r0,r29
15942  0000e690  3c020001	lhi	r2,((_debugstr)>>16)&0xffff
15943  0000e694  244261cb	addui	r2,r2,(_debugstr)&0xffff
15944  0000e698  ac220000	sw	(r1),r2
15945  0000e69c  2002002b	addi	r2,r0,#43
15946  0000e6a0  ac220004	sw	4(r1),r2
15947  0000e6a4  0fff5dac	jal	_dindex
15948  0000e6a8  54000000	nop; delay slot nop
15949  0000e6ac  23bd0008	addi	r29,r29,#8
15950  0000e6b0  64220000	snei	r2,r1,#0
15951  0000e6b4  10400068	beqz	r2,L167_LF5
15952  0000e6b8  54000000	nop; delay slot nop
15953  0000e6bc  001d1020	add	r2,r0,r29
15954  0000e6c0  0fffb05c	jal	_GetCurrentPid
15955  0000e6c4  54000000	nop; delay slot nop
15956  0000e6c8  00011020	add	r2,r0,r1
15957  0000e6cc  23bdfff0	addi	r29,r29,#-16
15958  0000e6d0  001d0820	add	r1,r0,r29
15959  0000e6d4  3c030002	lhi	r3,((LC35_LF5)>>16)&0xffff
15960  0000e6d8  246311e4	addui	r3,r3,(LC35_LF5)&0xffff
15961  0000e6dc  ac230000	sw	(r1),r3
15962  0000e6e0  ac220004	sw	4(r1),r2
15963  0000e6e4  8fc30000	lw	r3,(r30)
15964  0000e6e8  3c040002	lhi	r4,((_conds_LF5)>>16)&0xffff
15965  0000e6ec  24841a3c	addui	r4,r4,(_conds_LF5)&0xffff
15966  0000e6f0  00641022	sub	r2,r3,r4
15967  0000e6f4  3c03cccc	lhi	r3,#-13108
15968  0000e6f8  2463cccd	addui	r3,r3,#52429
15969  0000e6fc  00400035	movi2fp	f0,r2
15970  0000e700  00600835	movi2fp	f1,r3
15971  0000e704  0401000e	mult	f0,f0,f1
15972  0000e708  00001034	movfp2i	r2,f0
15973  0000e70c  5c430002	srai	r3,r2,#0x2
15974  0000e710  ac230008	sw	8(r1),r3
15975  0000e714  0c003e64	jal	_printf
15976  0000e718  54000000	nop; delay slot nop
15977  0000e71c  23bd0010	addi	r29,r29,#16
15978  0000e720          	L167_LF5:
15979  0000e720  2001ffff	addi	r1,r0,#-1
15980  0000e724  080002e4	j	L163_LF5
15981  0000e728  54000000	nop; delay slot nop
15982  0000e72c          	L165_LF5:
15983  0000e72c  54000000	nop
15984  0000e730          	L168_LF5:
15985  0000e730  23bdfff8	addi	r29,r29,#-8
15986  0000e734  001d0820	add	r1,r0,r29
15987  0000e738  8fc20000	lw	r2,(r30)
15988  0000e73c  20430004	addi	r3,r2,#4
15989  0000e740  ac230000	sw	(r1),r3
15990  0000e744  0fffcbd8	jal	_AQueueEmpty
15991  0000e748  54000000	nop; delay slot nop
15992  0000e74c  23bd0008	addi	r29,r29,#8
15993  0000e750  64220000	snei	r2,r1,#0
15994  0000e754  1040000c	beqz	r2,L170_LF5
15995  0000e758  54000000	nop; delay slot nop
15996  0000e75c  08000170	j	L169_LF5
15997  0000e760  54000000	nop; delay slot nop
15998  0000e764          	L170_LF5:
15999  0000e764  23bdfff8	addi	r29,r29,#-8
16000  0000e768  001d0820	add	r1,r0,r29
16001  0000e76c  8fc20000	lw	r2,(r30)
16002  0000e770  ac220000	sw	(r1),r2
16003  0000e774  0ffff764	jal	_CondSignal
16004  0000e778  54000000	nop; delay slot nop
16005  0000e77c  23bd0008	addi	r29,r29,#8
16006  0000e780  64220001	snei	r2,r1,#1
16007  0000e784  10400140	beqz	r2,L171_LF5
16008  0000e788  54000000	nop; delay slot nop
16009  0000e78c  23bdfff8	addi	r29,r29,#-8
16010  0000e790  001d0820	add	r1,r0,r29
16011  0000e794  3c020001	lhi	r2,((_debugstr)>>16)&0xffff
16012  0000e798  244261cb	addui	r2,r2,(_debugstr)&0xffff
16013  0000e79c  ac220000	sw	(r1),r2
16014  0000e7a0  20020073	addi	r2,r0,#115
16015  0000e7a4  ac220004	sw	4(r1),r2
16016  0000e7a8  0fff5ca8	jal	_dindex
16017  0000e7ac  54000000	nop; delay slot nop
16018  0000e7b0  23bd0008	addi	r29,r29,#8
16019  0000e7b4  64220000	snei	r2,r1,#0
16020  0000e7b8  10400068	beqz	r2,L172_LF5
16021  0000e7bc  54000000	nop; delay slot nop
16022  0000e7c0  001d1020	add	r2,r0,r29
16023  0000e7c4  0fffaf58	jal	_GetCurrentPid
16024  0000e7c8  54000000	nop; delay slot nop
16025  0000e7cc  00011020	add	r2,r0,r1
16026  0000e7d0  23bdfff0	addi	r29,r29,#-16
16027  0000e7d4  001d0820	add	r1,r0,r29
16028  0000e7d8  3c030002	lhi	r3,((LC36_LF5)>>16)&0xffff
16029  0000e7dc  2463122c	addui	r3,r3,(LC36_LF5)&0xffff
16030  0000e7e0  ac230000	sw	(r1),r3
16031  0000e7e4  ac220004	sw	4(r1),r2
16032  0000e7e8  8fc30000	lw	r3,(r30)
16033  0000e7ec  3c040002	lhi	r4,((_conds_LF5)>>16)&0xffff
16034  0000e7f0  24841a3c	addui	r4,r4,(_conds_LF5)&0xffff
16035  0000e7f4  00641022	sub	r2,r3,r4
16036  0000e7f8  3c03cccc	lhi	r3,#-13108
16037  0000e7fc  2463cccd	addui	r3,r3,#52429
16038  0000e800  00400035	movi2fp	f0,r2
16039  0000e804  00600835	movi2fp	f1,r3
16040  0000e808  0401000e	mult	f0,f0,f1
16041  0000e80c  00001034	movfp2i	r2,f0
16042  0000e810  5c430002	srai	r3,r2,#0x2
16043  0000e814  ac230008	sw	8(r1),r3
16044  0000e818  0c003d60	jal	_printf
16045  0000e81c  54000000	nop; delay slot nop
16046  0000e820  23bd0010	addi	r29,r29,#16
16047  0000e824          	L172_LF5:
16048  0000e824  23bdfff8	addi	r29,r29,#-8
16049  0000e828  001d0820	add	r1,r0,r29
16050  0000e82c  3c020001	lhi	r2,((_debugstr)>>16)&0xffff
16051  0000e830  244261cb	addui	r2,r2,(_debugstr)&0xffff
16052  0000e834  ac220000	sw	(r1),r2
16053  0000e838  2002002b	addi	r2,r0,#43
16054  0000e83c  ac220004	sw	4(r1),r2
16055  0000e840  0fff5c10	jal	_dindex
16056  0000e844  54000000	nop; delay slot nop
16057  0000e848  23bd0008	addi	r29,r29,#8
16058  0000e84c  64220000	snei	r2,r1,#0
16059  0000e850  10400068	beqz	r2,L173_LF5
16060  0000e854  54000000	nop; delay slot nop
16061  0000e858  001d1020	add	r2,r0,r29
16062  0000e85c  0fffaec0	jal	_GetCurrentPid
16063  0000e860  54000000	nop; delay slot nop
16064  0000e864  00011020	add	r2,r0,r1
16065  0000e868  23bdfff0	addi	r29,r29,#-16
16066  0000e86c  001d0820	add	r1,r0,r29
16067  0000e870  3c030002	lhi	r3,((LC36_LF5)>>16)&0xffff
16068  0000e874  2463122c	addui	r3,r3,(LC36_LF5)&0xffff
16069  0000e878  ac230000	sw	(r1),r3
16070  0000e87c  ac220004	sw	4(r1),r2
16071  0000e880  8fc30000	lw	r3,(r30)
16072  0000e884  3c040002	lhi	r4,((_conds_LF5)>>16)&0xffff
16073  0000e888  24841a3c	addui	r4,r4,(_conds_LF5)&0xffff
16074  0000e88c  00641022	sub	r2,r3,r4
16075  0000e890  3c03cccc	lhi	r3,#-13108
16076  0000e894  2463cccd	addui	r3,r3,#52429
16077  0000e898  00400035	movi2fp	f0,r2
16078  0000e89c  00600835	movi2fp	f1,r3
16079  0000e8a0  0401000e	mult	f0,f0,f1
16080  0000e8a4  00001034	movfp2i	r2,f0
16081  0000e8a8  5c430002	srai	r3,r2,#0x2
16082  0000e8ac  ac230008	sw	8(r1),r3
16083  0000e8b0  0c003cc8	jal	_printf
16084  0000e8b4  54000000	nop; delay slot nop
16085  0000e8b8  23bd0010	addi	r29,r29,#16
16086  0000e8bc          	L173_LF5:
16087  0000e8bc  2001ffff	addi	r1,r0,#-1
16088  0000e8c0  08000148	j	L163_LF5
16089  0000e8c4  54000000	nop; delay slot nop
16090  0000e8c8          	L171_LF5:
16091  0000e8c8  0bfffe64	j	L168_LF5
16092  0000e8cc  54000000	nop; delay slot nop
16093  0000e8d0          	L169_LF5:
16094  0000e8d0  23bdfff8	addi	r29,r29,#-8
16095  0000e8d4  001d0820	add	r1,r0,r29
16096  0000e8d8  3c020001	lhi	r2,((_debugstr)>>16)&0xffff
16097  0000e8dc  244261cb	addui	r2,r2,(_debugstr)&0xffff
16098  0000e8e0  ac220000	sw	(r1),r2
16099  0000e8e4  20020073	addi	r2,r0,#115
16100  0000e8e8  ac220004	sw	4(r1),r2
16101  0000e8ec  0fff5b64	jal	_dindex
16102  0000e8f0  54000000	nop; delay slot nop
16103  0000e8f4  23bd0008	addi	r29,r29,#8
16104  0000e8f8  64220000	snei	r2,r1,#0
16105  0000e8fc  10400068	beqz	r2,L174_LF5
16106  0000e900  54000000	nop; delay slot nop
16107  0000e904  001d1020	add	r2,r0,r29
16108  0000e908  0fffae14	jal	_GetCurrentPid
16109  0000e90c  54000000	nop; delay slot nop
16110  0000e910  00011020	add	r2,r0,r1
16111  0000e914  23bdfff0	addi	r29,r29,#-16
16112  0000e918  001d0820	add	r1,r0,r29
16113  0000e91c  3c030002	lhi	r3,((LC37_LF5)>>16)&0xffff
16114  0000e920  24631264	addui	r3,r3,(LC37_LF5)&0xffff
16115  0000e924  ac230000	sw	(r1),r3
16116  0000e928  ac220004	sw	4(r1),r2
16117  0000e92c  8fc30000	lw	r3,(r30)
16118  0000e930  3c040002	lhi	r4,((_conds_LF5)>>16)&0xffff
16119  0000e934  24841a3c	addui	r4,r4,(_conds_LF5)&0xffff
16120  0000e938  00641022	sub	r2,r3,r4
16121  0000e93c  3c03cccc	lhi	r3,#-13108
16122  0000e940  2463cccd	addui	r3,r3,#52429
16123  0000e944  00400035	movi2fp	f0,r2
16124  0000e948  00600835	movi2fp	f1,r3
16125  0000e94c  0401000e	mult	f0,f0,f1
16126  0000e950  00001034	movfp2i	r2,f0
16127  0000e954  5c430002	srai	r3,r2,#0x2
16128  0000e958  ac230008	sw	8(r1),r3
16129  0000e95c  0c003c1c	jal	_printf
16130  0000e960  54000000	nop; delay slot nop
16131  0000e964  23bd0010	addi	r29,r29,#16
16132  0000e968          	L174_LF5:
16133  0000e968  23bdfff8	addi	r29,r29,#-8
16134  0000e96c  001d0820	add	r1,r0,r29
16135  0000e970  3c020001	lhi	r2,((_debugstr)>>16)&0xffff
16136  0000e974  244261cb	addui	r2,r2,(_debugstr)&0xffff
16137  0000e978  ac220000	sw	(r1),r2
16138  0000e97c  2002002b	addi	r2,r0,#43
16139  0000e980  ac220004	sw	4(r1),r2
16140  0000e984  0fff5acc	jal	_dindex
16141  0000e988  54000000	nop; delay slot nop
16142  0000e98c  23bd0008	addi	r29,r29,#8
16143  0000e990  64220000	snei	r2,r1,#0
16144  0000e994  10400068	beqz	r2,L175_LF5
16145  0000e998  54000000	nop; delay slot nop
16146  0000e99c  001d1020	add	r2,r0,r29
16147  0000e9a0  0fffad7c	jal	_GetCurrentPid
16148  0000e9a4  54000000	nop; delay slot nop
16149  0000e9a8  00011020	add	r2,r0,r1
16150  0000e9ac  23bdfff0	addi	r29,r29,#-16
16151  0000e9b0  001d0820	add	r1,r0,r29
16152  0000e9b4  3c030002	lhi	r3,((LC37_LF5)>>16)&0xffff
16153  0000e9b8  24631264	addui	r3,r3,(LC37_LF5)&0xffff
16154  0000e9bc  ac230000	sw	(r1),r3
16155  0000e9c0  ac220004	sw	4(r1),r2
16156  0000e9c4  8fc30000	lw	r3,(r30)
16157  0000e9c8  3c040002	lhi	r4,((_conds_LF5)>>16)&0xffff
16158  0000e9cc  24841a3c	addui	r4,r4,(_conds_LF5)&0xffff
16159  0000e9d0  00641022	sub	r2,r3,r4
16160  0000e9d4  3c03cccc	lhi	r3,#-13108
16161  0000e9d8  2463cccd	addui	r3,r3,#52429
16162  0000e9dc  00400035	movi2fp	f0,r2
16163  0000e9e0  00600835	movi2fp	f1,r3
16164  0000e9e4  0401000e	mult	f0,f0,f1
16165  0000e9e8  00001034	movfp2i	r2,f0
16166  0000e9ec  5c430002	srai	r3,r2,#0x2
16167  0000e9f0  ac230008	sw	8(r1),r3
16168  0000e9f4  0c003b84	jal	_printf
16169  0000e9f8  54000000	nop; delay slot nop
16170  0000e9fc  23bd0010	addi	r29,r29,#16
16171  0000ea00          	L175_LF5:
16172  0000ea00  20010001	addi	r1,r0,#1
16173  0000ea04  08000004	j	L163_LF5
16174  0000ea08  54000000	nop; delay slot nop
16175  0000ea0c          	L163_LF5:
16176  0000ea0c  8fa20000	lw	r2,0(r29)
16177  0000ea10  8fa30004	lw	r3,4(r29)
16178  0000ea14  8fa40008	lw	r4,8(r29)
16179  0000ea18  8fdffff8	lw	r31,-8(r30)
16180  0000ea1c  001ee820	add	r29,r0,r30
16181  0000ea20  8fdefffc	lw	r30,-4(r30)
16182  0000ea24  4be00000	jr	r31
16183  0000ea28  54000000	nop
16184  0000ea2c          	.endproc _CondBroadcast
16185  0000ea2c          	.align 2
16186  0000ea2c          	.proc _CondHandleBroadcast
16187  0000ea2c          	.global _CondHandleBroadcast
16188  0000ea2c          	_CondHandleBroadcast:
16189                      ;  Function 'CondHandleBroadcast'; 0 bytes of locals, 4 regs to save.
16190  0000ea2c  afbefffc	sw	-4(r29),r30; push fp
16191  0000ea30  001df020	add	r30,r0,r29; fp = sp
16192  0000ea34  afbffff8	sw	-8(r29),r31; push ret addr
16193  0000ea38  2fbd0018	subui	r29,r29,#24; alloc local storage
16194  0000ea3c  afa20000	sw	0(r29),r2
16195  0000ea40  afa30004	sw	4(r29),r3
16196  0000ea44  afa40008	sw	8(r29),r4
16197  0000ea48  afa5000c	sw	12(r29),r5
16198  0000ea4c  8fc10000	lw	r1,(r30)
16199  0000ea50  68220000	slti	r2,r1,#0
16200  0000ea54  10400010	beqz	r2,L177_LF5
16201  0000ea58  54000000	nop; delay slot nop
16202  0000ea5c  2001ffff	addi	r1,r0,#-1
16203  0000ea60  080000a4	j	L176_LF5
16204  0000ea64  54000000	nop; delay slot nop
16205  0000ea68          	L177_LF5:
16206  0000ea68  8fc10000	lw	r1,(r30)
16207  0000ea6c  6c22001f	sgti	r2,r1,#31
16208  0000ea70  10400010	beqz	r2,L178_LF5
16209  0000ea74  54000000	nop; delay slot nop
16210  0000ea78  2001ffff	addi	r1,r0,#-1
16211  0000ea7c  08000088	j	L176_LF5
16212  0000ea80  54000000	nop; delay slot nop
16213  0000ea84          	L178_LF5:
16214  0000ea84  8fc10000	lw	r1,(r30)
16215  0000ea88  00011820	add	r3,r0,r1
16216  0000ea8c  50620002	slli	r2,r3,#0x2
16217  0000ea90  00411020	add	r2,r2,r1
16218  0000ea94  50410002	slli	r1,r2,#0x2
16219  0000ea98  3c050002	lhi	r5,((_conds_LF5)>>16)&0xffff
16220  0000ea9c  24a51a3c	addui	r5,r5,(_conds_LF5)&0xffff
16221  0000eaa0  00251020	add	r2,r1,r5
16222  0000eaa4  8c410010	lw	r1,16(r2)
16223  0000eaa8  64220000	snei	r2,r1,#0
16224  0000eaac  14400010	bnez	r2,L179_LF5
16225  0000eab0  54000000	nop; delay slot nop
16226  0000eab4  2001ffff	addi	r1,r0,#-1
16227  0000eab8  0800004c	j	L176_LF5
16228  0000eabc  54000000	nop; delay slot nop
16229  0000eac0          	L179_LF5:
16230  0000eac0  23bdfff8	addi	r29,r29,#-8
16231  0000eac4  001d0820	add	r1,r0,r29
16232  0000eac8  8fc20000	lw	r2,(r30)
16233  0000eacc  00022020	add	r4,r0,r2
16234  0000ead0  50830002	slli	r3,r4,#0x2
16235  0000ead4  00621820	add	r3,r3,r2
16236  0000ead8  50620002	slli	r2,r3,#0x2
16237  0000eadc  3c030002	lhi	r3,((_conds_LF5)>>16)&0xffff
16238  0000eae0  24631a3c	addui	r3,r3,(_conds_LF5)&0xffff
16239  0000eae4  00621020	add	r2,r3,r2
16240  0000eae8  ac220000	sw	(r1),r2
16241  0000eaec  0ffff3ec	jal	_CondSignal
16242  0000eaf0  54000000	nop; delay slot nop
16243  0000eaf4  23bd0008	addi	r29,r29,#8
16244  0000eaf8  00011020	add	r2,r0,r1
16245  0000eafc  00020820	add	r1,r0,r2
16246  0000eb00  08000004	j	L176_LF5
16247  0000eb04  54000000	nop; delay slot nop
16248  0000eb08          	L176_LF5:
16249  0000eb08  8fa20000	lw	r2,0(r29)
16250  0000eb0c  8fa30004	lw	r3,4(r29)
16251  0000eb10  8fa40008	lw	r4,8(r29)
16252  0000eb14  8fa5000c	lw	r5,12(r29)
16253  0000eb18  8fdffff8	lw	r31,-8(r30)
16254  0000eb1c  001ee820	add	r29,r0,r30
16255  0000eb20  8fdefffc	lw	r30,-4(r30)
16256  0000eb24  4be00000	jr	r31
16257  0000eb28  54000000	nop
16258  0000eb2c          	.endproc _CondHandleBroadcast
16259  0000eb2c          	.data
16260  000212b9          	.align 2
16261  000212bc          	_sems_LF5:
16262  000212bc          	.space 640
16263  0002153c          	.align 2
16264  0002153c          	_locks_LF5:
16265  0002153c          	.space 1280
16266  00021a3c          	.align 2
16267  00021a3c          	_conds_LF5:
16268  00021a3c          	.space 1280
16269                      ; Compiled by GCC
16270  00021f3c          	.text
16271  0000eb2c          	.align 2
16272  0000eb2c          	.proc _isspace
16273  0000eb2c          	.global _isspace
16274  0000eb2c          	_isspace:
16275                      ;  Function 'isspace'; 0 bytes of locals, 3 regs to save.
16276  0000eb2c  afbefffc	sw	-4(r29),r30; push fp
16277  0000eb30  001df020	add	r30,r0,r29; fp = sp
16278  0000eb34  afbffff8	sw	-8(r29),r31; push ret addr
16279  0000eb38  2fbd0018	subui	r29,r29,#24; alloc local storage
16280  0000eb3c  afa20000	sw	0(r29),r2
16281  0000eb40  afa30004	sw	4(r29),r3
16282  0000eb44  afa40008	sw	8(r29),r4
16283  0000eb48  83c20003	lb	r2,3(r30)
16284  0000eb4c  20010000	addi	r1,r0,#0
16285  0000eb50  304300ff	andi	r3,r2,#0x00ff
16286  0000eb54  60640020	seqi	r4,r3,#32
16287  0000eb58  1480002c	bnez	r4,L3_LF6
16288  0000eb5c  54000000	nop; delay slot nop
16289  0000eb60  304300ff	andi	r3,r2,#0x00ff
16290  0000eb64  60640009	seqi	r4,r3,#9
16291  0000eb68  1480001c	bnez	r4,L3_LF6
16292  0000eb6c  54000000	nop; delay slot nop
16293  0000eb70  304300ff	andi	r3,r2,#0x00ff
16294  0000eb74  6064000a	seqi	r4,r3,#10
16295  0000eb78  1480000c	bnez	r4,L3_LF6
16296  0000eb7c  54000000	nop; delay slot nop
16297  0000eb80  08000008	j	L2_LF6
16298  0000eb84  54000000	nop; delay slot nop
16299  0000eb88          	L3_LF6:
16300  0000eb88  20010001	addi	r1,r0,#1
16301  0000eb8c          	L2_LF6:
16302  0000eb8c  08000004	j	L1_LF6
16303  0000eb90  54000000	nop; delay slot nop
16304  0000eb94          	L1_LF6:
16305  0000eb94  8fa20000	lw	r2,0(r29)
16306  0000eb98  8fa30004	lw	r3,4(r29)
16307  0000eb9c  8fa40008	lw	r4,8(r29)
16308  0000eba0  8fdffff8	lw	r31,-8(r30)
16309  0000eba4  001ee820	add	r29,r0,r30
16310  0000eba8  8fdefffc	lw	r30,-4(r30)
16311  0000ebac  4be00000	jr	r31
16312  0000ebb0  54000000	nop
16313  0000ebb4          	.endproc _isspace
16314  0000ebb4          	.align 2
16315  0000ebb4          	.proc _isxdigit
16316  0000ebb4          	.global _isxdigit
16317  0000ebb4          	_isxdigit:
16318                      ;  Function 'isxdigit'; 0 bytes of locals, 3 regs to save.
16319  0000ebb4  afbefffc	sw	-4(r29),r30; push fp
16320  0000ebb8  001df020	add	r30,r0,r29; fp = sp
16321  0000ebbc  afbffff8	sw	-8(r29),r31; push ret addr
16322  0000ebc0  2fbd0018	subui	r29,r29,#24; alloc local storage
16323  0000ebc4  afa20000	sw	0(r29),r2
16324  0000ebc8  afa30004	sw	4(r29),r3
16325  0000ebcc  afa40008	sw	8(r29),r4
16326  0000ebd0  83c20003	lb	r2,3(r30)
16327  0000ebd4  20010000	addi	r1,r0,#0
16328  0000ebd8  304300ff	andi	r3,r2,#0x00ff
16329  0000ebdc  6c64002f	sgtui	r4,r3,#47
16330  0000ebe0  1080001c	beqz	r4,L7_LF6
16331  0000ebe4  54000000	nop; delay slot nop
16332  0000ebe8  304300ff	andi	r3,r2,#0x00ff
16333  0000ebec  70640039	sleui	r4,r3,#57
16334  0000ebf0  1480005c	bnez	r4,L6_LF6
16335  0000ebf4  54000000	nop; delay slot nop
16336  0000ebf8  08000004	j	L7_LF6
16337  0000ebfc  54000000	nop; delay slot nop
16338  0000ec00          	L7_LF6:
16339  0000ec00  304300ff	andi	r3,r2,#0x00ff
16340  0000ec04  6c640060	sgtui	r4,r3,#96
16341  0000ec08  1080001c	beqz	r4,L8_LF6
16342  0000ec0c  54000000	nop; delay slot nop
16343  0000ec10  304300ff	andi	r3,r2,#0x00ff
16344  0000ec14  70640066	sleui	r4,r3,#102
16345  0000ec18  14800034	bnez	r4,L6_LF6
16346  0000ec1c  54000000	nop; delay slot nop
16347  0000ec20  08000004	j	L8_LF6
16348  0000ec24  54000000	nop; delay slot nop
16349  0000ec28          	L8_LF6:
16350  0000ec28  304300ff	andi	r3,r2,#0x00ff
16351  0000ec2c  6c640040	sgtui	r4,r3,#64
16352  0000ec30  10800020	beqz	r4,L5_LF6
16353  0000ec34  54000000	nop; delay slot nop
16354  0000ec38  304300ff	andi	r3,r2,#0x00ff
16355  0000ec3c  70640041	sleui	r4,r3,#65
16356  0000ec40  1480000c	bnez	r4,L6_LF6
16357  0000ec44  54000000	nop; delay slot nop
16358  0000ec48  08000008	j	L5_LF6
16359  0000ec4c  54000000	nop; delay slot nop
16360  0000ec50          	L6_LF6:
16361  0000ec50  20010001	addi	r1,r0,#1
16362  0000ec54          	L5_LF6:
16363  0000ec54  08000004	j	L4_LF6
16364  0000ec58  54000000	nop; delay slot nop
16365  0000ec5c          	L4_LF6:
16366  0000ec5c  8fa20000	lw	r2,0(r29)
16367  0000ec60  8fa30004	lw	r3,4(r29)
16368  0000ec64  8fa40008	lw	r4,8(r29)
16369  0000ec68  8fdffff8	lw	r31,-8(r30)
16370  0000ec6c  001ee820	add	r29,r0,r30
16371  0000ec70  8fdefffc	lw	r30,-4(r30)
16372  0000ec74  4be00000	jr	r31
16373  0000ec78  54000000	nop
16374  0000ec7c          	.endproc _isxdigit
16375  0000ec7c          	.align 2
16376  0000ec7c          	.proc _DisableIntrs
16377  0000ec7c          	.global _DisableIntrs
16378  0000ec7c          	_DisableIntrs:
16379                      ;  Function 'DisableIntrs'; 0 bytes of locals, 1 regs to save.
16380  0000ec7c  afbefffc	sw	-4(r29),r30; push fp
16381  0000ec80  001df020	add	r30,r0,r29; fp = sp
16382  0000ec84  afbffff8	sw	-8(r29),r31; push ret addr
16383  0000ec88  2fbd0010	subui	r29,r29,#16; alloc local storage
16384  0000ec8c  afa20000	sw	0(r29),r2
16385  0000ec90  23bdfff8	addi	r29,r29,#-8
16386  0000ec94  001d0820	add	r1,r0,r29
16387  0000ec98  2002000f	addi	r2,r0,#15
16388  0000ec9c  ac220000	sw	(r1),r2
16389  0000eca0  0c0037d8	jal	_SetIntrs
16390  0000eca4  54000000	nop; delay slot nop
16391  0000eca8  23bd0008	addi	r29,r29,#8
16392  0000ecac  00011020	add	r2,r0,r1
16393  0000ecb0  00020820	add	r1,r0,r2
16394  0000ecb4  08000004	j	L9_LF6
16395  0000ecb8  54000000	nop; delay slot nop
16396  0000ecbc          	L9_LF6:
16397  0000ecbc  8fa20000	lw	r2,0(r29)
16398  0000ecc0  8fdffff8	lw	r31,-8(r30)
16399  0000ecc4  001ee820	add	r29,r0,r30
16400  0000ecc8  8fdefffc	lw	r30,-4(r30)
16401  0000eccc  4be00000	jr	r31
16402  0000ecd0  54000000	nop
16403  0000ecd4          	.endproc _DisableIntrs
16404  0000ecd4          	.align 2
16405  0000ecd4          	.proc _EnableIntrs
16406  0000ecd4          	.global _EnableIntrs
16407  0000ecd4          	_EnableIntrs:
16408                      ;  Function 'EnableIntrs'; 0 bytes of locals, 1 regs to save.
16409  0000ecd4  afbefffc	sw	-4(r29),r30; push fp
16410  0000ecd8  001df020	add	r30,r0,r29; fp = sp
16411  0000ecdc  afbffff8	sw	-8(r29),r31; push ret addr
16412  0000ece0  2fbd0010	subui	r29,r29,#16; alloc local storage
16413  0000ece4  afa20000	sw	0(r29),r2
16414  0000ece8  23bdfff8	addi	r29,r29,#-8
16415  0000ecec  001d0820	add	r1,r0,r29
16416  0000ecf0  20020000	addi	r2,r0,#0
16417  0000ecf4  ac220000	sw	(r1),r2
16418  0000ecf8  0c003780	jal	_SetIntrs
16419  0000ecfc  54000000	nop; delay slot nop
16420  0000ed00  23bd0008	addi	r29,r29,#8
16421  0000ed04  00011020	add	r2,r0,r1
16422  0000ed08  00020820	add	r1,r0,r2
16423  0000ed0c  08000004	j	L10_LF6
16424  0000ed10  54000000	nop; delay slot nop
16425  0000ed14          	L10_LF6:
16426  0000ed14  8fa20000	lw	r2,0(r29)
16427  0000ed18  8fdffff8	lw	r31,-8(r30)
16428  0000ed1c  001ee820	add	r29,r0,r30
16429  0000ed20  8fdefffc	lw	r30,-4(r30)
16430  0000ed24  4be00000	jr	r31
16431  0000ed28  54000000	nop
16432  0000ed2c          	.endproc _EnableIntrs
16433  0000ed2c          	.align 2
16434  0000ed2c          	.proc _RestoreIntrs
16435  0000ed2c          	.global _RestoreIntrs
16436  0000ed2c          	_RestoreIntrs:
16437                      ;  Function 'RestoreIntrs'; 0 bytes of locals, 2 regs to save.
16438  0000ed2c  afbefffc	sw	-4(r29),r30; push fp
16439  0000ed30  001df020	add	r30,r0,r29; fp = sp
16440  0000ed34  afbffff8	sw	-8(r29),r31; push ret addr
16441  0000ed38  2fbd0010	subui	r29,r29,#16; alloc local storage
16442  0000ed3c  afa20000	sw	0(r29),r2
16443  0000ed40  afa30004	sw	4(r29),r3
16444  0000ed44  8fc20000	lw	r2,(r30)
16445  0000ed48  23bdfff8	addi	r29,r29,#-8
16446  0000ed4c  001d0820	add	r1,r0,r29
16447  0000ed50  ac220000	sw	(r1),r2
16448  0000ed54  0c003724	jal	_SetIntrs
16449  0000ed58  54000000	nop; delay slot nop
16450  0000ed5c  23bd0008	addi	r29,r29,#8
16451  0000ed60  00011820	add	r3,r0,r1
16452  0000ed64  00030820	add	r1,r0,r3
16453  0000ed68  08000004	j	L11_LF6
16454  0000ed6c  54000000	nop; delay slot nop
16455  0000ed70          	L11_LF6:
16456  0000ed70  8fa20000	lw	r2,0(r29)
16457  0000ed74  8fa30004	lw	r3,4(r29)
16458  0000ed78  8fdffff8	lw	r31,-8(r30)
16459  0000ed7c  001ee820	add	r29,r0,r30
16460  0000ed80  8fdefffc	lw	r30,-4(r30)
16461  0000ed84  4be00000	jr	r31
16462  0000ed88  54000000	nop
16463  0000ed8c          	.endproc _RestoreIntrs
16464  0000ed8c          	.align 2
16465  0000ed8c          	.proc _KbdModuleInit
16466  0000ed8c          	.global _KbdModuleInit
16467  0000ed8c          	_KbdModuleInit:
16468                      ;  Function 'KbdModuleInit'; 0 bytes of locals, 1 regs to save.
16469  0000ed8c  afbefffc	sw	-4(r29),r30; push fp
16470  0000ed90  001df020	add	r30,r0,r29; fp = sp
16471  0000ed94  afbffff8	sw	-8(r29),r31; push ret addr
16472  0000ed98  2fbd0010	subui	r29,r29,#16; alloc local storage
16473  0000ed9c  afa20000	sw	0(r29),r2
16474  0000eda0  3c01fff0	lhi	r1,#-16
16475  0000eda4  242101c0	addui	r1,r1,#448
16476  0000eda8  20020001	addi	r2,r0,#1
16477  0000edac  ac220000	sw	(r1),r2
16478  0000edb0          	L12_LF6:
16479  0000edb0  8fa20000	lw	r2,0(r29)
16480  0000edb4  8fdffff8	lw	r31,-8(r30)
16481  0000edb8  001ee820	add	r29,r0,r30
16482  0000edbc  8fdefffc	lw	r30,-4(r30)
16483  0000edc0  4be00000	jr	r31
16484  0000edc4  54000000	nop
16485  0000edc8          	.endproc _KbdModuleInit
16486  0000edc8          	.align 2
16487  0000edc8          	.proc _GetUintFromTrapArg
16488  0000edc8          	.global _GetUintFromTrapArg
16489  0000edc8          	_GetUintFromTrapArg:
16490                      ;  Function 'GetUintFromTrapArg'; 8 bytes of locals, 2 regs to save.
16491  0000edc8  afbefffc	sw	-4(r29),r30; push fp
16492  0000edcc  001df020	add	r30,r0,r29; fp = sp
16493  0000edd0  afbffff8	sw	-8(r29),r31; push ret addr
16494  0000edd4  2fbd0018	subui	r29,r29,#24; alloc local storage
16495  0000edd8  afa20000	sw	0(r29),r2
16496  0000eddc  afa30004	sw	4(r29),r3
16497  0000ede0  8fc10004	lw	r1,4(r30)
16498  0000ede4  64220000	snei	r2,r1,#0
16499  0000ede8  14400048	bnez	r2,L14_LF6
16500  0000edec  54000000	nop; delay slot nop
16501  0000edf0  23bdfff0	addi	r29,r29,#-16
16502  0000edf4  001d0820	add	r1,r0,r29
16503  0000edf8  3c020001	lhi	r2,((_currentPCB)>>16)&0xffff
16504  0000edfc  24426294	addui	r2,r2,(_currentPCB)&0xffff
16505  0000ee00  8c430000	lw	r3,(r2)
16506  0000ee04  ac230000	sw	(r1),r3
16507  0000ee08  8fc20000	lw	r2,(r30)
16508  0000ee0c  ac220004	sw	4(r1),r2
16509  0000ee10  23c2fff4	addi	r2,r30,#-12
16510  0000ee14  ac220008	sw	8(r1),r2
16511  0000ee18  20020004	addi	r2,r0,#4
16512  0000ee1c  ac22000c	sw	12(r1),r2
16513  0000ee20  0fff4534	jal	_MemoryCopyUserToSystem
16514  0000ee24  54000000	nop; delay slot nop
16515  0000ee28  23bd0010	addi	r29,r29,#16
16516  0000ee2c  08000030	j	L15_LF6
16517  0000ee30  54000000	nop; delay slot nop
16518  0000ee34          	L14_LF6:
16519  0000ee34  23bdfff0	addi	r29,r29,#-16
16520  0000ee38  001d0820	add	r1,r0,r29
16521  0000ee3c  8fc20000	lw	r2,(r30)
16522  0000ee40  ac220000	sw	(r1),r2
16523  0000ee44  23c2fff4	addi	r2,r30,#-12
16524  0000ee48  ac220004	sw	4(r1),r2
16525  0000ee4c  20020004	addi	r2,r0,#4
16526  0000ee50  ac220008	sw	8(r1),r2
16527  0000ee54  0fff5b78	jal	_bcopy
16528  0000ee58  54000000	nop; delay slot nop
16529  0000ee5c  23bd0010	addi	r29,r29,#16
16530  0000ee60          	L15_LF6:
16531  0000ee60  8fc1fff4	lw	r1,-12(r30)
16532  0000ee64  08000004	j	L13_LF6
16533  0000ee68  54000000	nop; delay slot nop
16534  0000ee6c          	L13_LF6:
16535  0000ee6c  8fa20000	lw	r2,0(r29)
16536  0000ee70  8fa30004	lw	r3,4(r29)
16537  0000ee74  8fdffff8	lw	r31,-8(r30)
16538  0000ee78  001ee820	add	r29,r0,r30
16539  0000ee7c  8fdefffc	lw	r30,-4(r30)
16540  0000ee80  4be00000	jr	r31
16541  0000ee84  54000000	nop
16542  0000ee88          	.endproc _GetUintFromTrapArg
16543  0000ee88          	.align 2
16544  0000ee88          	.proc _GetIntFromTrapArg_LF6
16545  0000ee88          	_GetIntFromTrapArg_LF6:
16546                      ;  Function 'GetIntFromTrapArg'; 8 bytes of locals, 2 regs to save.
16547  0000ee88  afbefffc	sw	-4(r29),r30; push fp
16548  0000ee8c  001df020	add	r30,r0,r29; fp = sp
16549  0000ee90  afbffff8	sw	-8(r29),r31; push ret addr
16550  0000ee94  2fbd0018	subui	r29,r29,#24; alloc local storage
16551  0000ee98  afa20000	sw	0(r29),r2
16552  0000ee9c  afa30004	sw	4(r29),r3
16553  0000eea0  8fc10004	lw	r1,4(r30)
16554  0000eea4  64220000	snei	r2,r1,#0
16555  0000eea8  14400048	bnez	r2,L17_LF6
16556  0000eeac  54000000	nop; delay slot nop
16557  0000eeb0  23bdfff0	addi	r29,r29,#-16
16558  0000eeb4  001d0820	add	r1,r0,r29
16559  0000eeb8  3c020001	lhi	r2,((_currentPCB)>>16)&0xffff
16560  0000eebc  24426294	addui	r2,r2,(_currentPCB)&0xffff
16561  0000eec0  8c430000	lw	r3,(r2)
16562  0000eec4  ac230000	sw	(r1),r3
16563  0000eec8  8fc20000	lw	r2,(r30)
16564  0000eecc  ac220004	sw	4(r1),r2
16565  0000eed0  23c2fff4	addi	r2,r30,#-12
16566  0000eed4  ac220008	sw	8(r1),r2
16567  0000eed8  20020004	addi	r2,r0,#4
16568  0000eedc  ac22000c	sw	12(r1),r2
16569  0000eee0  0fff4474	jal	_MemoryCopyUserToSystem
16570  0000eee4  54000000	nop; delay slot nop
16571  0000eee8  23bd0010	addi	r29,r29,#16
16572  0000eeec  08000030	j	L18_LF6
16573  0000eef0  54000000	nop; delay slot nop
16574  0000eef4          	L17_LF6:
16575  0000eef4  23bdfff0	addi	r29,r29,#-16
16576  0000eef8  001d0820	add	r1,r0,r29
16577  0000eefc  8fc20000	lw	r2,(r30)
16578  0000ef00  ac220000	sw	(r1),r2
16579  0000ef04  23c2fff4	addi	r2,r30,#-12
16580  0000ef08  ac220004	sw	4(r1),r2
16581  0000ef0c  20020004	addi	r2,r0,#4
16582  0000ef10  ac220008	sw	8(r1),r2
16583  0000ef14  0fff5ab8	jal	_bcopy
16584  0000ef18  54000000	nop; delay slot nop
16585  0000ef1c  23bd0010	addi	r29,r29,#16
16586  0000ef20          	L18_LF6:
16587  0000ef20  8fc1fff4	lw	r1,-12(r30)
16588  0000ef24  08000004	j	L16_LF6
16589  0000ef28  54000000	nop; delay slot nop
16590  0000ef2c          	L16_LF6:
16591  0000ef2c  8fa20000	lw	r2,0(r29)
16592  0000ef30  8fa30004	lw	r3,4(r29)
16593  0000ef34  8fdffff8	lw	r31,-8(r30)
16594  0000ef38  001ee820	add	r29,r0,r30
16595  0000ef3c  8fdefffc	lw	r30,-4(r30)
16596  0000ef40  4be00000	jr	r31
16597  0000ef44  54000000	nop
16598  0000ef48          	.endproc _GetIntFromTrapArg_LF6
16599  0000ef48          	.data
16600  00021f3c          	.align 2
16601  00021f3c          	LC0_LF6:
16602  00021f3c  54726170	.ascii "TrapProcessCreateHandler: function started\n\000"
16602  00021f40  50726f63	
16602  00021f44  65737343	
16602  00021f48  72656174	
16602  00021f4c  6548616e	
16602  00021f50  646c6572	
16602  00021f54  3a206675	
16602  00021f58  6e637469	
16602  00021f5c  6f6e2073	
16602  00021f60  74617274	
16602  00021f64  65640a00	
16603  00021f68          	.align 2
16604  00021f68          	LC1_LF6:
16605  00021f68  54726170	.ascii "TrapProcessCreateHandler: creating user process\n\000"
16605  00021f6c  50726f63	
16605  00021f70  65737343	
16605  00021f74  72656174	
16605  00021f78  6548616e	
16605  00021f7c  646c6572	
16605  00021f80  3a206372	
16605  00021f84  65617469	
16605  00021f88  6e672075	
16605  00021f8c  73657220	
16605  00021f90  70726f63	
16605  00021f94  6573730a	
16605  00021f98  00      	
16606  00021f99          	.align 2
16607  00021f9c          	LC2_LF6:
16608  00021f9c  54726170	.ascii "TrapProcessCreateHandler: just parsed executable name (%s) from trapAr"
16608  00021fa0  50726f63	
16608  00021fa4  65737343	
16608  00021fa8  72656174	
16608  00021fac  6548616e	
16608  00021fb0  646c6572	
16608  00021fb4  3a206a75	
16608  00021fb8  73742070	
16608  00021fbc  61727365	
16608  00021fc0  64206578	
16608  00021fc4  65637574	
16608  00021fc8  61626c65	
16608  00021fcc  206e616d	
16608  00021fd0  65202825	
16608  00021fd4  73292066	
16608  00021fd8  726f6d20	
16608  00021fdc  74726170	
16608  00021fe0  4172    	
16609  00021fe2  67730a00	.ascii "gs\n\000"
16610  00021fe6          	.align 2
16611  00021fe8          	LC3_LF6:
16612  00021fe8  54726170	.ascii "TrapProcessCreateHandler: length of executable filename longer than al"
16612  00021fec  50726f63	
16612  00021ff0  65737343	
16612  00021ff4  72656174	
16612  00021ff8  6548616e	
16612  00021ffc  646c6572	
16612  00022000  3a206c65	
16612  00022004  6e677468	
16612  00022008  206f6620	
16612  0002200c  65786563	
16612  00022010  75746162	
16612  00022014  6c652066	
16612  00022018  696c656e	
16612  0002201c  616d6520	
16612  00022020  6c6f6e67	
16612  00022024  65722074	
16612  00022028  68616e20	
16612  0002202c  616c    	
16613  0002202e  6c6f7765	.ascii "lowed!\n\000"
16613  00022032  64210a00	
16614  00022036          	.align 2
16615  00022038          	LC4_LF6:
16616  00022038  54726170	.ascii "TrapProcessCreateHandler: strlen(all arguments) > maximum length allow"
16616  0002203c  50726f63	
16616  00022040  65737343	
16616  00022044  72656174	
16616  00022048  6548616e	
16616  0002204c  646c6572	
16616  00022050  3a207374	
16616  00022054  726c656e	
16616  00022058  28616c6c	
16616  0002205c  20617267	
16616  00022060  756d656e	
16616  00022064  74732920	
16616  00022068  3e206d61	
16616  0002206c  78696d75	
16616  00022070  6d206c65	
16616  00022074  6e677468	
16616  00022078  20616c6c	
16616  0002207c  6f77    	
16617  0002207e  6564210a	.ascii "ed!\n\000"
16617  00022082  00      	
16618  00022083          	.align 2
16619  00022084          	LC5_LF6:
16620  00022084  54726170	.ascii "TrapProcessCreateHandler: too many arguments on command line (did you "
16620  00022088  50726f63	
16620  0002208c  65737343	
16620  00022090  72656174	
16620  00022094  6548616e	
16620  00022098  646c6572	
16620  0002209c  3a20746f	
16620  000220a0  6f206d61	
16620  000220a4  6e792061	
16620  000220a8  7267756d	
16620  000220ac  656e7473	
16620  000220b0  206f6e20	
16620  000220b4  636f6d6d	
16620  000220b8  616e6420	
16620  000220bc  6c696e65	
16620  000220c0  20286469	
16620  000220c4  6420796f	
16620  000220c8  7520    	
16621  000220ca  666f7267	.ascii "forget to pass a NULL?)\n\000"
16621  000220ce  65742074	
16621  000220d2  6f207061	
16621  000220d6  73732061	
16621  000220da  204e554c	
16621  000220de  4c3f290a	
16621  000220e2  00      	
16622  000220e3          	.text
16623  0000ef48          	.align 2
16624  0000ef48          	.proc _TrapProcessCreateHandler_LF6
16625  0000ef48          	_TrapProcessCreateHandler_LF6:
16626                      ;  Function 'TrapProcessCreateHandler'; 432 bytes of locals, 2 regs to save.
16627  0000ef48  afbefffc	sw	-4(r29),r30; push fp
16628  0000ef4c  001df020	add	r30,r0,r29; fp = sp
16629  0000ef50  afbffff8	sw	-8(r29),r31; push ret addr
16630  0000ef54  2fbd01c0	subui	r29,r29,#448; alloc local storage
16631  0000ef58  afa20000	sw	0(r29),r2
16632  0000ef5c  afa30004	sw	4(r29),r3
16633  0000ef60  20010000	addi	r1,r0,#0
16634  0000ef64  afc1fe8c	sw	-372(r30),r1
16635  0000ef68  20010000	addi	r1,r0,#0
16636  0000ef6c  afc1fe88	sw	-376(r30),r1
16637  0000ef70  20010000	addi	r1,r0,#0
16638  0000ef74  afc1fe84	sw	-380(r30),r1
16639  0000ef78  20010000	addi	r1,r0,#0
16640  0000ef7c  afc1fe54	sw	-428(r30),r1
16641  0000ef80  20010000	addi	r1,r0,#0
16642  0000ef84  afc1fe50	sw	-432(r30),r1
16643  0000ef88  20010000	addi	r1,r0,#0
16644  0000ef8c  afc1fe4c	sw	-436(r30),r1
16645  0000ef90  23bdfff8	addi	r29,r29,#-8
16646  0000ef94  001d0820	add	r1,r0,r29
16647  0000ef98  3c020001	lhi	r2,((_debugstr)>>16)&0xffff
16648  0000ef9c  244261cb	addui	r2,r2,(_debugstr)&0xffff
16649  0000efa0  ac220000	sw	(r1),r2
16650  0000efa4  20020070	addi	r2,r0,#112
16651  0000efa8  ac220004	sw	4(r1),r2
16652  0000efac  0fff54a4	jal	_dindex
16653  0000efb0  54000000	nop; delay slot nop
16654  0000efb4  23bd0008	addi	r29,r29,#8
16655  0000efb8  64220000	snei	r2,r1,#0
16656  0000efbc  10400024	beqz	r2,L20_LF6
16657  0000efc0  54000000	nop; delay slot nop
16658  0000efc4  23bdfff8	addi	r29,r29,#-8
16659  0000efc8  001d0820	add	r1,r0,r29
16660  0000efcc  3c020002	lhi	r2,((LC0_LF6)>>16)&0xffff
16661  0000efd0  24421f3c	addui	r2,r2,(LC0_LF6)&0xffff
16662  0000efd4  ac220000	sw	(r1),r2
16663  0000efd8  0c0035a0	jal	_printf
16664  0000efdc  54000000	nop; delay slot nop
16665  0000efe0  23bd0008	addi	r29,r29,#8
16666  0000efe4          	L20_LF6:
16667  0000efe4  23bdfff8	addi	r29,r29,#-8
16668  0000efe8  001d0820	add	r1,r0,r29
16669  0000efec  3c020001	lhi	r2,((_debugstr)>>16)&0xffff
16670  0000eff0  244261cb	addui	r2,r2,(_debugstr)&0xffff
16671  0000eff4  ac220000	sw	(r1),r2
16672  0000eff8  2002002b	addi	r2,r0,#43
16673  0000effc  ac220004	sw	4(r1),r2
16674  0000f000  0fff5450	jal	_dindex
16675  0000f004  54000000	nop; delay slot nop
16676  0000f008  23bd0008	addi	r29,r29,#8
16677  0000f00c  64220000	snei	r2,r1,#0
16678  0000f010  10400024	beqz	r2,L21_LF6
16679  0000f014  54000000	nop; delay slot nop
16680  0000f018  23bdfff8	addi	r29,r29,#-8
16681  0000f01c  001d0820	add	r1,r0,r29
16682  0000f020  3c020002	lhi	r2,((LC0_LF6)>>16)&0xffff
16683  0000f024  24421f3c	addui	r2,r2,(LC0_LF6)&0xffff
16684  0000f028  ac220000	sw	(r1),r2
16685  0000f02c  0c00354c	jal	_printf
16686  0000f030  54000000	nop; delay slot nop
16687  0000f034  23bd0008	addi	r29,r29,#8
16688  0000f038          	L21_LF6:
16689  0000f038  54000000	nop
16690  0000f03c  20010000	addi	r1,r0,#0
16691  0000f040  afc1fe88	sw	-376(r30),r1
16692  0000f044          	L22_LF6:
16693  0000f044  8fc1fe88	lw	r1,-376(r30)
16694  0000f048  702200ff	slei	r2,r1,#255
16695  0000f04c  1440000c	bnez	r2,L25_LF6
16696  0000f050  54000000	nop; delay slot nop
16697  0000f054  08000030	j	L23_LF6
16698  0000f058  54000000	nop; delay slot nop
16699  0000f05c          	L25_LF6:
16700  0000f05c  23c1fef8	addi	r1,r30,#-264
16701  0000f060  8fc2fe88	lw	r2,-376(r30)
16702  0000f064  00220820	add	r1,r1,r2
16703  0000f068  20020000	addi	r2,r0,(#0x0)&0xff
16704  0000f06c  a0220000	sb	(r1),r2
16705  0000f070          	L24_LF6:
16706  0000f070  8fc2fe88	lw	r2,-376(r30)
16707  0000f074  20410001	addi	r1,r2,#1
16708  0000f078  00011020	add	r2,r0,r1
16709  0000f07c  afc2fe88	sw	-376(r30),r2
16710  0000f080  0bffffc0	j	L22_LF6
16711  0000f084  54000000	nop; delay slot nop
16712  0000f088          	L23_LF6:
16713  0000f088  8fc10004	lw	r1,4(r30)
16714  0000f08c  64220000	snei	r2,r1,#0
16715  0000f090  144004fc	bnez	r2,L26_LF6
16716  0000f094  54000000	nop; delay slot nop
16717  0000f098  23bdfff8	addi	r29,r29,#-8
16718  0000f09c  001d0820	add	r1,r0,r29
16719  0000f0a0  3c020001	lhi	r2,((_debugstr)>>16)&0xffff
16720  0000f0a4  244261cb	addui	r2,r2,(_debugstr)&0xffff
16721  0000f0a8  ac220000	sw	(r1),r2
16722  0000f0ac  20020070	addi	r2,r0,#112
16723  0000f0b0  ac220004	sw	4(r1),r2
16724  0000f0b4  0fff539c	jal	_dindex
16725  0000f0b8  54000000	nop; delay slot nop
16726  0000f0bc  23bd0008	addi	r29,r29,#8
16727  0000f0c0  64220000	snei	r2,r1,#0
16728  0000f0c4  10400024	beqz	r2,L27_LF6
16729  0000f0c8  54000000	nop; delay slot nop
16730  0000f0cc  23bdfff8	addi	r29,r29,#-8
16731  0000f0d0  001d0820	add	r1,r0,r29
16732  0000f0d4  3c020002	lhi	r2,((LC1_LF6)>>16)&0xffff
16733  0000f0d8  24421f68	addui	r2,r2,(LC1_LF6)&0xffff
16734  0000f0dc  ac220000	sw	(r1),r2
16735  0000f0e0  0c003498	jal	_printf
16736  0000f0e4  54000000	nop; delay slot nop
16737  0000f0e8  23bd0008	addi	r29,r29,#8
16738  0000f0ec          	L27_LF6:
16739  0000f0ec  23bdfff8	addi	r29,r29,#-8
16740  0000f0f0  001d0820	add	r1,r0,r29
16741  0000f0f4  3c020001	lhi	r2,((_debugstr)>>16)&0xffff
16742  0000f0f8  244261cb	addui	r2,r2,(_debugstr)&0xffff
16743  0000f0fc  ac220000	sw	(r1),r2
16744  0000f100  2002002b	addi	r2,r0,#43
16745  0000f104  ac220004	sw	4(r1),r2
16746  0000f108  0fff5348	jal	_dindex
16747  0000f10c  54000000	nop; delay slot nop
16748  0000f110  23bd0008	addi	r29,r29,#8
16749  0000f114  64220000	snei	r2,r1,#0
16750  0000f118  10400024	beqz	r2,L28_LF6
16751  0000f11c  54000000	nop; delay slot nop
16752  0000f120  23bdfff8	addi	r29,r29,#-8
16753  0000f124  001d0820	add	r1,r0,r29
16754  0000f128  3c020002	lhi	r2,((LC1_LF6)>>16)&0xffff
16755  0000f12c  24421f68	addui	r2,r2,(LC1_LF6)&0xffff
16756  0000f130  ac220000	sw	(r1),r2
16757  0000f134  0c003444	jal	_printf
16758  0000f138  54000000	nop; delay slot nop
16759  0000f13c  23bd0008	addi	r29,r29,#8
16760  0000f140          	L28_LF6:
16761  0000f140  23bdfff0	addi	r29,r29,#-16
16762  0000f144  001d0820	add	r1,r0,r29
16763  0000f148  3c020001	lhi	r2,((_currentPCB)>>16)&0xffff
16764  0000f14c  24426294	addui	r2,r2,(_currentPCB)&0xffff
16765  0000f150  8c430000	lw	r3,(r2)
16766  0000f154  ac230000	sw	(r1),r3
16767  0000f158  8fc20000	lw	r2,(r30)
16768  0000f15c  ac220004	sw	4(r1),r2
16769  0000f160  23c2fe8c	addi	r2,r30,#-372
16770  0000f164  ac220008	sw	8(r1),r2
16771  0000f168  20020004	addi	r2,r0,#4
16772  0000f16c  ac22000c	sw	12(r1),r2
16773  0000f170  0fff41e4	jal	_MemoryCopyUserToSystem
16774  0000f174  54000000	nop; delay slot nop
16775  0000f178  23bd0010	addi	r29,r29,#16
16776  0000f17c  20010000	addi	r1,r0,#0
16777  0000f180  afc1fe88	sw	-376(r30),r1
16778  0000f184          	L29_LF6:
16779  0000f184  8fc1fe88	lw	r1,-376(r30)
16780  0000f188  70220063	slei	r2,r1,#99
16781  0000f18c  1440000c	bnez	r2,L32_LF6
16782  0000f190  54000000	nop; delay slot nop
16783  0000f194  0800008c	j	L30_LF6
16784  0000f198  54000000	nop; delay slot nop
16785  0000f19c          	L32_LF6:
16786  0000f19c  23bdfff0	addi	r29,r29,#-16
16787  0000f1a0  001d0820	add	r1,r0,r29
16788  0000f1a4  3c020001	lhi	r2,((_currentPCB)>>16)&0xffff
16789  0000f1a8  24426294	addui	r2,r2,(_currentPCB)&0xffff
16790  0000f1ac  8c430000	lw	r3,(r2)
16791  0000f1b0  ac230000	sw	(r1),r3
16792  0000f1b4  8fc2fe8c	lw	r2,-372(r30)
16793  0000f1b8  8fc3fe88	lw	r3,-376(r30)
16794  0000f1bc  00431020	add	r2,r2,r3
16795  0000f1c0  ac220004	sw	4(r1),r2
16796  0000f1c4  23c2fe90	addi	r2,r30,#-368
16797  0000f1c8  8fc3fe88	lw	r3,-376(r30)
16798  0000f1cc  00431020	add	r2,r2,r3
16799  0000f1d0  ac220008	sw	8(r1),r2
16800  0000f1d4  20020001	addi	r2,r0,#1
16801  0000f1d8  ac22000c	sw	12(r1),r2
16802  0000f1dc  0fff4178	jal	_MemoryCopyUserToSystem
16803  0000f1e0  54000000	nop; delay slot nop
16804  0000f1e4  23bd0010	addi	r29,r29,#16
16805  0000f1e8  23c1fe90	addi	r1,r30,#-368
16806  0000f1ec  8fc2fe88	lw	r2,-376(r30)
16807  0000f1f0  00220820	add	r1,r1,r2
16808  0000f1f4  90220000	lbu	r2,(r1)
16809  0000f1f8  64410000	snei	r1,r2,#0
16810  0000f1fc  1420000c	bnez	r1,L31_LF6
16811  0000f200  54000000	nop; delay slot nop
16812  0000f204  0800001c	j	L30_LF6
16813  0000f208  54000000	nop; delay slot nop
16814  0000f20c          	L33_LF6:
16815  0000f20c          	L31_LF6:
16816  0000f20c  8fc2fe88	lw	r2,-376(r30)
16817  0000f210  20410001	addi	r1,r2,#1
16818  0000f214  00011020	add	r2,r0,r1
16819  0000f218  afc2fe88	sw	-376(r30),r2
16820  0000f21c  0bffff64	j	L29_LF6
16821  0000f220  54000000	nop; delay slot nop
16822  0000f224          	L30_LF6:
16823  0000f224  23bdfff8	addi	r29,r29,#-8
16824  0000f228  001d0820	add	r1,r0,r29
16825  0000f22c  3c020001	lhi	r2,((_debugstr)>>16)&0xffff
16826  0000f230  244261cb	addui	r2,r2,(_debugstr)&0xffff
16827  0000f234  ac220000	sw	(r1),r2
16828  0000f238  20020070	addi	r2,r0,#112
16829  0000f23c  ac220004	sw	4(r1),r2
16830  0000f240  0fff5210	jal	_dindex
16831  0000f244  54000000	nop; delay slot nop
16832  0000f248  23bd0008	addi	r29,r29,#8
16833  0000f24c  64220000	snei	r2,r1,#0
16834  0000f250  1040002c	beqz	r2,L34_LF6
16835  0000f254  54000000	nop; delay slot nop
16836  0000f258  23bdfff8	addi	r29,r29,#-8
16837  0000f25c  001d0820	add	r1,r0,r29
16838  0000f260  3c020002	lhi	r2,((LC2_LF6)>>16)&0xffff
16839  0000f264  24421f9c	addui	r2,r2,(LC2_LF6)&0xffff
16840  0000f268  ac220000	sw	(r1),r2
16841  0000f26c  23c2fe90	addi	r2,r30,#-368
16842  0000f270  ac220004	sw	4(r1),r2
16843  0000f274  0c003304	jal	_printf
16844  0000f278  54000000	nop; delay slot nop
16845  0000f27c  23bd0008	addi	r29,r29,#8
16846  0000f280          	L34_LF6:
16847  0000f280  23bdfff8	addi	r29,r29,#-8
16848  0000f284  001d0820	add	r1,r0,r29
16849  0000f288  3c020001	lhi	r2,((_debugstr)>>16)&0xffff
16850  0000f28c  244261cb	addui	r2,r2,(_debugstr)&0xffff
16851  0000f290  ac220000	sw	(r1),r2
16852  0000f294  2002002b	addi	r2,r0,#43
16853  0000f298  ac220004	sw	4(r1),r2
16854  0000f29c  0fff51b4	jal	_dindex
16855  0000f2a0  54000000	nop; delay slot nop
16856  0000f2a4  23bd0008	addi	r29,r29,#8
16857  0000f2a8  64220000	snei	r2,r1,#0
16858  0000f2ac  1040002c	beqz	r2,L35_LF6
16859  0000f2b0  54000000	nop; delay slot nop
16860  0000f2b4  23bdfff8	addi	r29,r29,#-8
16861  0000f2b8  001d0820	add	r1,r0,r29
16862  0000f2bc  3c020002	lhi	r2,((LC2_LF6)>>16)&0xffff
16863  0000f2c0  24421f9c	addui	r2,r2,(LC2_LF6)&0xffff
16864  0000f2c4  ac220000	sw	(r1),r2
16865  0000f2c8  23c2fe90	addi	r2,r30,#-368
16866  0000f2cc  ac220004	sw	4(r1),r2
16867  0000f2d0  0c0032a8	jal	_printf
16868  0000f2d4  54000000	nop; delay slot nop
16869  0000f2d8  23bd0008	addi	r29,r29,#8
16870  0000f2dc          	L35_LF6:
16871  0000f2dc  8fc1fe88	lw	r1,-376(r30)
16872  0000f2e0  60220064	seqi	r2,r1,#100
16873  0000f2e4  10400030	beqz	r2,L36_LF6
16874  0000f2e8  54000000	nop; delay slot nop
16875  0000f2ec  23bdfff8	addi	r29,r29,#-8
16876  0000f2f0  001d0820	add	r1,r0,r29
16877  0000f2f4  3c020002	lhi	r2,((LC3_LF6)>>16)&0xffff
16878  0000f2f8  24421fe8	addui	r2,r2,(LC3_LF6)&0xffff
16879  0000f2fc  ac220000	sw	(r1),r2
16880  0000f300  0c003278	jal	_printf
16881  0000f304  54000000	nop; delay slot nop
16882  0000f308  23bd0008	addi	r29,r29,#8
16883  0000f30c  001d1020	add	r2,r0,r29
16884  0000f310  0c003250	jal	_exitsim
16885  0000f314  54000000	nop; delay slot nop
16886  0000f318          	L36_LF6:
16887  0000f318  20010000	addi	r1,r0,#0
16888  0000f31c  afc1fe54	sw	-428(r30),r1
16889  0000f320  23bdfff8	addi	r29,r29,#-8
16890  0000f324  001d0820	add	r1,r0,r29
16891  0000f328  23c2fef8	addi	r2,r30,#-264
16892  0000f32c  8fc3fe54	lw	r3,-428(r30)
16893  0000f330  00431020	add	r2,r2,r3
16894  0000f334  ac220000	sw	(r1),r2
16895  0000f338  23c2fe90	addi	r2,r30,#-368
16896  0000f33c  ac220004	sw	4(r1),r2
16897  0000f340  0fff4be0	jal	_dstrcpy
16898  0000f344  54000000	nop; delay slot nop
16899  0000f348  23bd0008	addi	r29,r29,#8
16900  0000f34c  23bdfff8	addi	r29,r29,#-8
16901  0000f350  001d0820	add	r1,r0,r29
16902  0000f354  23c2fe90	addi	r2,r30,#-368
16903  0000f358  ac220000	sw	(r1),r2
16904  0000f35c  0fff4ee4	jal	_dstrlen
16905  0000f360  54000000	nop; delay slot nop
16906  0000f364  23bd0008	addi	r29,r29,#8
16907  0000f368  8fc3fe54	lw	r3,-428(r30)
16908  0000f36c  20620001	addi	r2,r3,#1
16909  0000f370  00410820	add	r1,r2,r1
16910  0000f374  afc1fe54	sw	-428(r30),r1
16911  0000f378  20010000	addi	r1,r0,#0
16912  0000f37c  afc1fe88	sw	-376(r30),r1
16913  0000f380          	L37_LF6:
16914  0000f380  8fc1fe88	lw	r1,-376(r30)
16915  0000f384  70220009	slei	r2,r1,#9
16916  0000f388  1440000c	bnez	r2,L40_LF6
16917  0000f38c  54000000	nop; delay slot nop
16918  0000f390  080001ac	j	L38_LF6
16919  0000f394  54000000	nop; delay slot nop
16920  0000f398          	L40_LF6:
16921  0000f398  23bdfff0	addi	r29,r29,#-16
16922  0000f39c  001d0820	add	r1,r0,r29
16923  0000f3a0  3c020001	lhi	r2,((_currentPCB)>>16)&0xffff
16924  0000f3a4  24426294	addui	r2,r2,(_currentPCB)&0xffff
16925  0000f3a8  8c430000	lw	r3,(r2)
16926  0000f3ac  ac230000	sw	(r1),r3
16927  0000f3b0  8fc2fe88	lw	r2,-376(r30)
16928  0000f3b4  00021820	add	r3,r0,r2
16929  0000f3b8  50620002	slli	r2,r3,#0x2
16930  0000f3bc  20430004	addi	r3,r2,#4
16931  0000f3c0  8fc20000	lw	r2,(r30)
16932  0000f3c4  00431820	add	r3,r2,r3
16933  0000f3c8  ac230004	sw	4(r1),r3
16934  0000f3cc  23c2fe50	addi	r2,r30,#-432
16935  0000f3d0  ac220008	sw	8(r1),r2
16936  0000f3d4  20020004	addi	r2,r0,#4
16937  0000f3d8  ac22000c	sw	12(r1),r2
16938  0000f3dc  0fff3f78	jal	_MemoryCopyUserToSystem
16939  0000f3e0  54000000	nop; delay slot nop
16940  0000f3e4  23bd0010	addi	r29,r29,#16
16941  0000f3e8  8fc1fe50	lw	r1,-432(r30)
16942  0000f3ec  64220000	snei	r2,r1,#0
16943  0000f3f0  1440000c	bnez	r2,L41_LF6
16944  0000f3f4  54000000	nop; delay slot nop
16945  0000f3f8  08000144	j	L38_LF6
16946  0000f3fc  54000000	nop; delay slot nop
16947  0000f400          	L41_LF6:
16948  0000f400  8fc1fe88	lw	r1,-376(r30)
16949  0000f404  20020004	addi	r2,r0,#4
16950  0000f408  00200035	movi2fp	f0,r1
16951  0000f40c  00400835	movi2fp	f1,r2
16952  0000f410  0401000e	mult	f0,f0,f1
16953  0000f414  00000834	movfp2i	r1,f0
16954  0000f418  23c3fff8	addi	r3,r30,#-8
16955  0000f41c  00231020	add	r2,r1,r3
16956  0000f420  2041fe60	addi	r1,r2,#-416
16957  0000f424  23c2fef8	addi	r2,r30,#-264
16958  0000f428  8fc3fe54	lw	r3,-428(r30)
16959  0000f42c  00431020	add	r2,r2,r3
16960  0000f430  ac220000	sw	(r1),r2
16961  0000f434  20010000	addi	r1,r0,#0
16962  0000f438  afc1fe84	sw	-380(r30),r1
16963  0000f43c          	L42_LF6:
16964  0000f43c  8fc1fe84	lw	r1,-380(r30)
16965  0000f440  702200ff	slei	r2,r1,#255
16966  0000f444  1440000c	bnez	r2,L45_LF6
16967  0000f448  54000000	nop; delay slot nop
16968  0000f44c  080000d8	j	L39_LF6
16969  0000f450  54000000	nop; delay slot nop
16970  0000f454          	L45_LF6:
16971  0000f454  23bdfff0	addi	r29,r29,#-16
16972  0000f458  001d0820	add	r1,r0,r29
16973  0000f45c  3c020001	lhi	r2,((_currentPCB)>>16)&0xffff
16974  0000f460  24426294	addui	r2,r2,(_currentPCB)&0xffff
16975  0000f464  8c430000	lw	r3,(r2)
16976  0000f468  ac230000	sw	(r1),r3
16977  0000f46c  8fc2fe50	lw	r2,-432(r30)
16978  0000f470  8fc3fe84	lw	r3,-380(r30)
16979  0000f474  00431020	add	r2,r2,r3
16980  0000f478  ac220004	sw	4(r1),r2
16981  0000f47c  23c2fef8	addi	r2,r30,#-264
16982  0000f480  8fc3fe54	lw	r3,-428(r30)
16983  0000f484  00431020	add	r2,r2,r3
16984  0000f488  ac220008	sw	8(r1),r2
16985  0000f48c  20020001	addi	r2,r0,#1
16986  0000f490  ac22000c	sw	12(r1),r2
16987  0000f494  0fff3ec0	jal	_MemoryCopyUserToSystem
16988  0000f498  54000000	nop; delay slot nop
16989  0000f49c  23bd0010	addi	r29,r29,#16
16990  0000f4a0  8fc2fe54	lw	r2,-428(r30)
16991  0000f4a4  20410001	addi	r1,r2,#1
16992  0000f4a8  00011020	add	r2,r0,r1
16993  0000f4ac  afc2fe54	sw	-428(r30),r2
16994  0000f4b0  8fc1fe54	lw	r1,-428(r30)
16995  0000f4b4  60220100	seqi	r2,r1,#256
16996  0000f4b8  10400030	beqz	r2,L46_LF6
16997  0000f4bc  54000000	nop; delay slot nop
16998  0000f4c0  23bdfff8	addi	r29,r29,#-8
16999  0000f4c4  001d0820	add	r1,r0,r29
17000  0000f4c8  3c020002	lhi	r2,((LC4_LF6)>>16)&0xffff
17001  0000f4cc  24422038	addui	r2,r2,(LC4_LF6)&0xffff
17002  0000f4d0  ac220000	sw	(r1),r2
17003  0000f4d4  0c0030a4	jal	_printf
17004  0000f4d8  54000000	nop; delay slot nop
17005  0000f4dc  23bd0008	addi	r29,r29,#8
17006  0000f4e0  001d1020	add	r2,r0,r29
17007  0000f4e4  0c00307c	jal	_exitsim
17008  0000f4e8  54000000	nop; delay slot nop
17009  0000f4ec          	L46_LF6:
17010  0000f4ec  23c1fef7	addi	r1,r30,#-265
17011  0000f4f0  8fc2fe54	lw	r2,-428(r30)
17012  0000f4f4  00220820	add	r1,r1,r2
17013  0000f4f8  90220000	lbu	r2,(r1)
17014  0000f4fc  64410000	snei	r1,r2,#0
17015  0000f500  1420000c	bnez	r1,L44_LF6
17016  0000f504  54000000	nop; delay slot nop
17017  0000f508  0800001c	j	L39_LF6
17018  0000f50c  54000000	nop; delay slot nop
17019  0000f510          	L47_LF6:
17020  0000f510          	L44_LF6:
17021  0000f510  8fc2fe84	lw	r2,-380(r30)
17022  0000f514  20410001	addi	r1,r2,#1
17023  0000f518  00011020	add	r2,r0,r1
17024  0000f51c  afc2fe84	sw	-380(r30),r2
17025  0000f520  0bffff18	j	L42_LF6
17026  0000f524  54000000	nop; delay slot nop
17027  0000f528          	L43_LF6:
17028  0000f528          	L39_LF6:
17029  0000f528  8fc2fe88	lw	r2,-376(r30)
17030  0000f52c  20410001	addi	r1,r2,#1
17031  0000f530  00011020	add	r2,r0,r1
17032  0000f534  afc2fe88	sw	-376(r30),r2
17033  0000f538  0bfffe44	j	L37_LF6
17034  0000f53c  54000000	nop; delay slot nop
17035  0000f540          	L38_LF6:
17036  0000f540  8fc1fe88	lw	r1,-376(r30)
17037  0000f544  6022000a	seqi	r2,r1,#10
17038  0000f548  10400030	beqz	r2,L48_LF6
17039  0000f54c  54000000	nop; delay slot nop
17040  0000f550  23bdfff8	addi	r29,r29,#-8
17041  0000f554  001d0820	add	r1,r0,r29
17042  0000f558  3c020002	lhi	r2,((LC5_LF6)>>16)&0xffff
17043  0000f55c  24422084	addui	r2,r2,(LC5_LF6)&0xffff
17044  0000f560  ac220000	sw	(r1),r2
17045  0000f564  0c003014	jal	_printf
17046  0000f568  54000000	nop; delay slot nop
17047  0000f56c  23bd0008	addi	r29,r29,#8
17048  0000f570  001d1020	add	r2,r0,r29
17049  0000f574  0c002fec	jal	_exitsim
17050  0000f578  54000000	nop; delay slot nop
17051  0000f57c          	L48_LF6:
17052  0000f57c  8fc1fe88	lw	r1,-376(r30)
17053  0000f580  20220001	addi	r2,r1,#1
17054  0000f584  afc2fe4c	sw	-436(r30),r2
17055  0000f588  0800025c	j	L49_LF6
17056  0000f58c  54000000	nop; delay slot nop
17057  0000f590          	L26_LF6:
17058  0000f590  23bdfff0	addi	r29,r29,#-16
17059  0000f594  001d0820	add	r1,r0,r29
17060  0000f598  23c2fe90	addi	r2,r30,#-368
17061  0000f59c  ac220000	sw	(r1),r2
17062  0000f5a0  8fc20000	lw	r2,(r30)
17063  0000f5a4  8c430000	lw	r3,(r2)
17064  0000f5a8  ac230004	sw	4(r1),r3
17065  0000f5ac  20020064	addi	r2,r0,#100
17066  0000f5b0  ac220008	sw	8(r1),r2
17067  0000f5b4  0fff49f8	jal	_dstrncpy
17068  0000f5b8  54000000	nop; delay slot nop
17069  0000f5bc  23bd0010	addi	r29,r29,#16
17070  0000f5c0  20010000	addi	r1,r0,#0
17071  0000f5c4  afc1fe54	sw	-428(r30),r1
17072  0000f5c8  23bdfff8	addi	r29,r29,#-8
17073  0000f5cc  001d0820	add	r1,r0,r29
17074  0000f5d0  23c2fef8	addi	r2,r30,#-264
17075  0000f5d4  8fc3fe54	lw	r3,-428(r30)
17076  0000f5d8  00431020	add	r2,r2,r3
17077  0000f5dc  ac220000	sw	(r1),r2
17078  0000f5e0  23c2fe90	addi	r2,r30,#-368
17079  0000f5e4  ac220004	sw	4(r1),r2
17080  0000f5e8  0fff4938	jal	_dstrcpy
17081  0000f5ec  54000000	nop; delay slot nop
17082  0000f5f0  23bd0008	addi	r29,r29,#8
17083  0000f5f4  23bdfff8	addi	r29,r29,#-8
17084  0000f5f8  001d0820	add	r1,r0,r29
17085  0000f5fc  23c2fe90	addi	r2,r30,#-368
17086  0000f600  ac220000	sw	(r1),r2
17087  0000f604  0fff4c3c	jal	_dstrlen
17088  0000f608  54000000	nop; delay slot nop
17089  0000f60c  23bd0008	addi	r29,r29,#8
17090  0000f610  8fc3fe54	lw	r3,-428(r30)
17091  0000f614  20620001	addi	r2,r3,#1
17092  0000f618  00410820	add	r1,r2,r1
17093  0000f61c  afc1fe54	sw	-428(r30),r1
17094  0000f620  20010000	addi	r1,r0,#0
17095  0000f624  afc1fe54	sw	-428(r30),r1
17096  0000f628  20010000	addi	r1,r0,#0
17097  0000f62c  afc1fe88	sw	-376(r30),r1
17098  0000f630          	L50_LF6:
17099  0000f630  8fc1fe88	lw	r1,-376(r30)
17100  0000f634  70220009	slei	r2,r1,#9
17101  0000f638  1440000c	bnez	r2,L53_LF6
17102  0000f63c  54000000	nop; delay slot nop
17103  0000f640  0800015c	j	L51_LF6
17104  0000f644  54000000	nop; delay slot nop
17105  0000f648          	L53_LF6:
17106  0000f648  8fc1fe88	lw	r1,-376(r30)
17107  0000f64c  20020004	addi	r2,r0,#4
17108  0000f650  00200035	movi2fp	f0,r1
17109  0000f654  00400835	movi2fp	f1,r2
17110  0000f658  0401000e	mult	f0,f0,f1
17111  0000f65c  00000834	movfp2i	r1,f0
17112  0000f660  8fc20000	lw	r2,(r30)
17113  0000f664  00220820	add	r1,r1,r2
17114  0000f668  20220004	addi	r2,r1,#4
17115  0000f66c  8c410000	lw	r1,(r2)
17116  0000f670  afc1fe50	sw	-432(r30),r1
17117  0000f674  8fc1fe50	lw	r1,-432(r30)
17118  0000f678  64220000	snei	r2,r1,#0
17119  0000f67c  1440000c	bnez	r2,L54_LF6
17120  0000f680  54000000	nop; delay slot nop
17121  0000f684  08000118	j	L51_LF6
17122  0000f688  54000000	nop; delay slot nop
17123  0000f68c          	L54_LF6:
17124  0000f68c  8fc1fe88	lw	r1,-376(r30)
17125  0000f690  20020004	addi	r2,r0,#4
17126  0000f694  00200035	movi2fp	f0,r1
17127  0000f698  00400835	movi2fp	f1,r2
17128  0000f69c  0401000e	mult	f0,f0,f1
17129  0000f6a0  00000834	movfp2i	r1,f0
17130  0000f6a4  23c3fff8	addi	r3,r30,#-8
17131  0000f6a8  00231020	add	r2,r1,r3
17132  0000f6ac  2041fe60	addi	r1,r2,#-416
17133  0000f6b0  23c2fef8	addi	r2,r30,#-264
17134  0000f6b4  8fc3fe54	lw	r3,-428(r30)
17135  0000f6b8  00431020	add	r2,r2,r3
17136  0000f6bc  ac220000	sw	(r1),r2
17137  0000f6c0  20010000	addi	r1,r0,#0
17138  0000f6c4  afc1fe84	sw	-380(r30),r1
17139  0000f6c8          	L55_LF6:
17140  0000f6c8  8fc1fe84	lw	r1,-380(r30)
17141  0000f6cc  702200ff	slei	r2,r1,#255
17142  0000f6d0  1440000c	bnez	r2,L58_LF6
17143  0000f6d4  54000000	nop; delay slot nop
17144  0000f6d8  080000ac	j	L52_LF6
17145  0000f6dc  54000000	nop; delay slot nop
17146  0000f6e0          	L58_LF6:
17147  0000f6e0  23c1fef8	addi	r1,r30,#-264
17148  0000f6e4  8fc2fe54	lw	r2,-428(r30)
17149  0000f6e8  00220820	add	r1,r1,r2
17150  0000f6ec  8fc2fe50	lw	r2,-432(r30)
17151  0000f6f0  8fc3fe84	lw	r3,-380(r30)
17152  0000f6f4  00431020	add	r2,r2,r3
17153  0000f6f8  80430000	lb	r3,(r2)
17154  0000f6fc  a0230000	sb	(r1),r3
17155  0000f700  8fc2fe54	lw	r2,-428(r30)
17156  0000f704  20410001	addi	r1,r2,#1
17157  0000f708  00011020	add	r2,r0,r1
17158  0000f70c  afc2fe54	sw	-428(r30),r2
17159  0000f710  8fc1fe54	lw	r1,-428(r30)
17160  0000f714  60220100	seqi	r2,r1,#256
17161  0000f718  10400030	beqz	r2,L59_LF6
17162  0000f71c  54000000	nop; delay slot nop
17163  0000f720  23bdfff8	addi	r29,r29,#-8
17164  0000f724  001d0820	add	r1,r0,r29
17165  0000f728  3c020002	lhi	r2,((LC4_LF6)>>16)&0xffff
17166  0000f72c  24422038	addui	r2,r2,(LC4_LF6)&0xffff
17167  0000f730  ac220000	sw	(r1),r2
17168  0000f734  0c002e44	jal	_printf
17169  0000f738  54000000	nop; delay slot nop
17170  0000f73c  23bd0008	addi	r29,r29,#8
17171  0000f740  001d1020	add	r2,r0,r29
17172  0000f744  0c002e1c	jal	_exitsim
17173  0000f748  54000000	nop; delay slot nop
17174  0000f74c          	L59_LF6:
17175  0000f74c  23c1fef7	addi	r1,r30,#-265
17176  0000f750  8fc2fe54	lw	r2,-428(r30)
17177  0000f754  00220820	add	r1,r1,r2
17178  0000f758  90220000	lbu	r2,(r1)
17179  0000f75c  64410000	snei	r1,r2,#0
17180  0000f760  1420000c	bnez	r1,L57_LF6
17181  0000f764  54000000	nop; delay slot nop
17182  0000f768  0800001c	j	L52_LF6
17183  0000f76c  54000000	nop; delay slot nop
17184  0000f770          	L60_LF6:
17185  0000f770          	L57_LF6:
17186  0000f770  8fc2fe84	lw	r2,-380(r30)
17187  0000f774  20410001	addi	r1,r2,#1
17188  0000f778  00011020	add	r2,r0,r1
17189  0000f77c  afc2fe84	sw	-380(r30),r2
17190  0000f780  0bffff44	j	L55_LF6
17191  0000f784  54000000	nop; delay slot nop
17192  0000f788          	L56_LF6:
17193  0000f788          	L52_LF6:
17194  0000f788  8fc2fe88	lw	r2,-376(r30)
17195  0000f78c  20410001	addi	r1,r2,#1
17196  0000f790  00011020	add	r2,r0,r1
17197  0000f794  afc2fe88	sw	-376(r30),r2
17198  0000f798  0bfffe94	j	L50_LF6
17199  0000f79c  54000000	nop; delay slot nop
17200  0000f7a0          	L51_LF6:
17201  0000f7a0  8fc1fe88	lw	r1,-376(r30)
17202  0000f7a4  6022000a	seqi	r2,r1,#10
17203  0000f7a8  10400030	beqz	r2,L61_LF6
17204  0000f7ac  54000000	nop; delay slot nop
17205  0000f7b0  23bdfff8	addi	r29,r29,#-8
17206  0000f7b4  001d0820	add	r1,r0,r29
17207  0000f7b8  3c020002	lhi	r2,((LC5_LF6)>>16)&0xffff
17208  0000f7bc  24422084	addui	r2,r2,(LC5_LF6)&0xffff
17209  0000f7c0  ac220000	sw	(r1),r2
17210  0000f7c4  0c002db4	jal	_printf
17211  0000f7c8  54000000	nop; delay slot nop
17212  0000f7cc  23bd0008	addi	r29,r29,#8
17213  0000f7d0  001d1020	add	r2,r0,r29
17214  0000f7d4  0c002d8c	jal	_exitsim
17215  0000f7d8  54000000	nop; delay slot nop
17216  0000f7dc          	L61_LF6:
17217  0000f7dc  8fc1fe88	lw	r1,-376(r30)
17218  0000f7e0  20220001	addi	r2,r1,#1
17219  0000f7e4  afc2fe4c	sw	-436(r30),r2
17220  0000f7e8          	L49_LF6:
17221  0000f7e8  23bdfff0	addi	r29,r29,#-16
17222  0000f7ec  001d0820	add	r1,r0,r29
17223  0000f7f0  20020000	addi	r2,r0,#0
17224  0000f7f4  ac220000	sw	(r1),r2
17225  0000f7f8  23c2fef8	addi	r2,r30,#-264
17226  0000f7fc  ac220004	sw	4(r1),r2
17227  0000f800  23c2fe90	addi	r2,r30,#-368
17228  0000f804  ac220008	sw	8(r1),r2
17229  0000f808  20020001	addi	r2,r0,#1
17230  0000f80c  ac22000c	sw	12(r1),r2
17231  0000f810  0fff6c80	jal	_ProcessFork
17232  0000f814  54000000	nop; delay slot nop
17233  0000f818  23bd0010	addi	r29,r29,#16
17234  0000f81c          	L19_LF6:
17235  0000f81c  8fa20000	lw	r2,0(r29)
17236  0000f820  8fa30004	lw	r3,4(r29)
17237  0000f824  8fdffff8	lw	r31,-8(r30)
17238  0000f828  001ee820	add	r29,r0,r30
17239  0000f82c  8fdefffc	lw	r30,-4(r30)
17240  0000f830  4be00000	jr	r31
17241  0000f834  54000000	nop
17242  0000f838          	.endproc _TrapProcessCreateHandler_LF6
17243  0000f838          	.data
17244  000220e3          	.align 2
17245  000220e4          	LC6_LF6:
17246  000220e4  54726170	.ascii "TrapPrintfHandler: format string too long!\n\000"
17246  000220e8  5072696e	
17246  000220ec  74664861	
17246  000220f0  6e646c65	
17246  000220f4  723a2066	
17246  000220f8  6f726d61	
17246  000220fc  74207374	
17246  00022100  72696e67	
17246  00022104  20746f6f	
17246  00022108  206c6f6e	
17246  0002210c  67210a00	
17247  00022110          	.align 2
17248  00022110          	LC7_LF6:
17249  00022110  54726170	.ascii "TrapPrintfHandler: unrecognized format character (l%c)\n\000"
17249  00022114  5072696e	
17249  00022118  74664861	
17249  0002211c  6e646c65	
17249  00022120  723a2075	
17249  00022124  6e726563	
17249  00022128  6f676e69	
17249  0002212c  7a656420	
17249  00022130  666f726d	
17249  00022134  61742063	
17249  00022138  68617261	
17249  0002213c  63746572	
17249  00022140  20286c25	
17249  00022144  63290a00	
17250  00022148          	.align 2
17251  00022148          	LC8_LF6:
17252  00022148  54726170	.ascii "TrapPrintfHandler: too many %%s arguments passed!\n\000"
17252  0002214c  5072696e	
17252  00022150  74664861	
17252  00022154  6e646c65	
17252  00022158  723a2074	
17252  0002215c  6f6f206d	
17252  00022160  616e7920	
17252  00022164  25257320	
17252  00022168  61726775	
17252  0002216c  6d656e74	
17252  00022170  73207061	
17252  00022174  73736564	
17252  00022178  210a00  	
17253  0002217b          	.align 2
17254  0002217c          	LC9_LF6:
17255  0002217c  54726170	.ascii "TrapPrintfHandler: argument #%d (a string) was too long to print!\n\000"
17255  00022180  5072696e	
17255  00022184  74664861	
17255  00022188  6e646c65	
17255  0002218c  723a2061	
17255  00022190  7267756d	
17255  00022194  656e7420	
17255  00022198  23256420	
17255  0002219c  28612073	
17255  000221a0  7472696e	
17255  000221a4  67292077	
17255  000221a8  61732074	
17255  000221ac  6f6f206c	
17255  000221b0  6f6e6720	
17255  000221b4  746f2070	
17255  000221b8  72696e74	
17255  000221bc  210a00  	
17256  000221bf          	.align 2
17257  000221c0          	LC10_LF6:
17258  000221c0  54726170	.ascii "TrapPrintfHandler: unrecognized format character (%c)!\n\000"
17258  000221c4  5072696e	
17258  000221c8  74664861	
17258  000221cc  6e646c65	
17258  000221d0  723a2075	
17258  000221d4  6e726563	
17258  000221d8  6f676e69	
17258  000221dc  7a656420	
17258  000221e0  666f726d	
17258  000221e4  61742063	
17258  000221e8  68617261	
17258  000221ec  63746572	
17258  000221f0  20282563	
17258  000221f4  29210a00	
17259  000221f8          	.align 2
17260  000221f8          	LC11_LF6:
17261  000221f8  54726170	.ascii "TrapPrintfHandler: too many arguments (%d) passed!\n\000"
17261  000221fc  5072696e	
17261  00022200  74664861	
17261  00022204  6e646c65	
17261  00022208  723a2074	
17261  0002220c  6f6f206d	
17261  00022210  616e7920	
17261  00022214  61726775	
17261  00022218  6d656e74	
17261  0002221c  73202825	
17261  00022220  64292070	
17261  00022224  61737365	
17261  00022228  64210a00	
17262  0002222c          	.text
17263  0000f838          	.align 2
17264  0000f838          	.proc _TrapPrintfHandler_LF6
17265  0000f838          	_TrapPrintfHandler_LF6:
17266                      ;  Function 'TrapPrintfHandler'; 824 bytes of locals, 5 regs to save.
17267  0000f838  afbefffc	sw	-4(r29),r30; push fp
17268  0000f83c  001df020	add	r30,r0,r29; fp = sp
17269  0000f840  afbffff8	sw	-8(r29),r31; push ret addr
17270  0000f844  2fbd0358	subui	r29,r29,#856; alloc local storage
17271  0000f848  afa20000	sw	0(r29),r2
17272  0000f84c  afa30004	sw	4(r29),r3
17273  0000f850  afa40008	sw	8(r29),r4
17274  0000f854  afa5000c	sw	12(r29),r5
17275  0000f858  afa60010	sw	16(r29),r6
17276  0000f85c  20010000	addi	r1,r0,#0
17277  0000f860  afc1fef4	sw	-268(r30),r1
17278  0000f864  20010000	addi	r1,r0,#0
17279  0000f868  afc1fee8	sw	-280(r30),r1
17280  0000f86c  20010000	addi	r1,r0,#0
17281  0000f870  afc1fcc4	sw	-828(r30),r1
17282  0000f874  8fc10004	lw	r1,4(r30)
17283  0000f878  64220000	snei	r2,r1,#0
17284  0000f87c  14400128	bnez	r2,L63_LF6
17285  0000f880  54000000	nop; delay slot nop
17286  0000f884  23bdfff0	addi	r29,r29,#-16
17287  0000f888  001d0820	add	r1,r0,r29
17288  0000f88c  3c020001	lhi	r2,((_currentPCB)>>16)&0xffff
17289  0000f890  24426294	addui	r2,r2,(_currentPCB)&0xffff
17290  0000f894  8c430000	lw	r3,(r2)
17291  0000f898  ac230000	sw	(r1),r3
17292  0000f89c  8fc20000	lw	r2,(r30)
17293  0000f8a0  ac220004	sw	4(r1),r2
17294  0000f8a4  23c2fef4	addi	r2,r30,#-268
17295  0000f8a8  ac220008	sw	8(r1),r2
17296  0000f8ac  20020004	addi	r2,r0,#4
17297  0000f8b0  ac22000c	sw	12(r1),r2
17298  0000f8b4  0fff3aa0	jal	_MemoryCopyUserToSystem
17299  0000f8b8  54000000	nop; delay slot nop
17300  0000f8bc  23bd0010	addi	r29,r29,#16
17301  0000f8c0  20010000	addi	r1,r0,#0
17302  0000f8c4  afc1fef0	sw	-272(r30),r1
17303  0000f8c8          	L64_LF6:
17304  0000f8c8  8fc1fef0	lw	r1,-272(r30)
17305  0000f8cc  702200ff	slei	r2,r1,#255
17306  0000f8d0  1440000c	bnez	r2,L67_LF6
17307  0000f8d4  54000000	nop; delay slot nop
17308  0000f8d8  0800008c	j	L65_LF6
17309  0000f8dc  54000000	nop; delay slot nop
17310  0000f8e0          	L67_LF6:
17311  0000f8e0  23bdfff0	addi	r29,r29,#-16
17312  0000f8e4  001d0820	add	r1,r0,r29
17313  0000f8e8  3c020001	lhi	r2,((_currentPCB)>>16)&0xffff
17314  0000f8ec  24426294	addui	r2,r2,(_currentPCB)&0xffff
17315  0000f8f0  8c430000	lw	r3,(r2)
17316  0000f8f4  ac230000	sw	(r1),r3
17317  0000f8f8  8fc2fef4	lw	r2,-268(r30)
17318  0000f8fc  8fc3fef0	lw	r3,-272(r30)
17319  0000f900  00431020	add	r2,r2,r3
17320  0000f904  ac220004	sw	4(r1),r2
17321  0000f908  23c2fef8	addi	r2,r30,#-264
17322  0000f90c  8fc3fef0	lw	r3,-272(r30)
17323  0000f910  00431020	add	r2,r2,r3
17324  0000f914  ac220008	sw	8(r1),r2
17325  0000f918  20020001	addi	r2,r0,#1
17326  0000f91c  ac22000c	sw	12(r1),r2
17327  0000f920  0fff3a34	jal	_MemoryCopyUserToSystem
17328  0000f924  54000000	nop; delay slot nop
17329  0000f928  23bd0010	addi	r29,r29,#16
17330  0000f92c  23c1fef8	addi	r1,r30,#-264
17331  0000f930  8fc2fef0	lw	r2,-272(r30)
17332  0000f934  00220820	add	r1,r1,r2
17333  0000f938  90220000	lbu	r2,(r1)
17334  0000f93c  64410000	snei	r1,r2,#0
17335  0000f940  1420000c	bnez	r1,L66_LF6
17336  0000f944  54000000	nop; delay slot nop
17337  0000f948  0800001c	j	L65_LF6
17338  0000f94c  54000000	nop; delay slot nop
17339  0000f950          	L68_LF6:
17340  0000f950          	L66_LF6:
17341  0000f950  8fc2fef0	lw	r2,-272(r30)
17342  0000f954  20410001	addi	r1,r2,#1
17343  0000f958  00011020	add	r2,r0,r1
17344  0000f95c  afc2fef0	sw	-272(r30),r2
17345  0000f960  0bffff64	j	L64_LF6
17346  0000f964  54000000	nop; delay slot nop
17347  0000f968          	L65_LF6:
17348  0000f968  8fc1fef0	lw	r1,-272(r30)
17349  0000f96c  60220100	seqi	r2,r1,#256
17350  0000f970  1040002c	beqz	r2,L69_LF6
17351  0000f974  54000000	nop; delay slot nop
17352  0000f978  23bdfff8	addi	r29,r29,#-8
17353  0000f97c  001d0820	add	r1,r0,r29
17354  0000f980  3c020002	lhi	r2,((LC6_LF6)>>16)&0xffff
17355  0000f984  244220e4	addui	r2,r2,(LC6_LF6)&0xffff
17356  0000f988  ac220000	sw	(r1),r2
17357  0000f98c  0c002bec	jal	_printf
17358  0000f990  54000000	nop; delay slot nop
17359  0000f994  23bd0008	addi	r29,r29,#8
17360  0000f998  08000bfc	j	L62_LF6
17361  0000f99c  54000000	nop; delay slot nop
17362  0000f9a0          	L69_LF6:
17363  0000f9a0  08000030	j	L70_LF6
17364  0000f9a4  54000000	nop; delay slot nop
17365  0000f9a8          	L63_LF6:
17366  0000f9a8  23bdfff0	addi	r29,r29,#-16
17367  0000f9ac  001d0820	add	r1,r0,r29
17368  0000f9b0  23c2fef8	addi	r2,r30,#-264
17369  0000f9b4  ac220000	sw	(r1),r2
17370  0000f9b8  8fc20000	lw	r2,(r30)
17371  0000f9bc  ac220004	sw	4(r1),r2
17372  0000f9c0  20020100	addi	r2,r0,#256
17373  0000f9c4  ac220008	sw	8(r1),r2
17374  0000f9c8  0fff45e4	jal	_dstrncpy
17375  0000f9cc  54000000	nop; delay slot nop
17376  0000f9d0  23bd0010	addi	r29,r29,#16
17377  0000f9d4          	L70_LF6:
17378  0000f9d4  20010000	addi	r1,r0,#0
17379  0000f9d8  afc1fee8	sw	-280(r30),r1
17380  0000f9dc  20010000	addi	r1,r0,#0
17381  0000f9e0  afc1fcc4	sw	-828(r30),r1
17382  0000f9e4  20010000	addi	r1,r0,#0
17383  0000f9e8  afc1fef0	sw	-272(r30),r1
17384  0000f9ec          	L71_LF6:
17385  0000f9ec  23bdfff8	addi	r29,r29,#-8
17386  0000f9f0  001d0820	add	r1,r0,r29
17387  0000f9f4  23c2fef8	addi	r2,r30,#-264
17388  0000f9f8  ac220000	sw	(r1),r2
17389  0000f9fc  0fff4844	jal	_dstrlen
17390  0000fa00  54000000	nop; delay slot nop
17391  0000fa04  23bd0008	addi	r29,r29,#8
17392  0000fa08  8fc2fef0	lw	r2,-272(r30)
17393  0000fa0c  0041082a	slt	r1,r2,r1
17394  0000fa10  1420000c	bnez	r1,L74_LF6
17395  0000fa14  54000000	nop; delay slot nop
17396  0000fa18  080006dc	j	L72_LF6
17397  0000fa1c  54000000	nop; delay slot nop
17398  0000fa20          	L74_LF6:
17399  0000fa20  23c1fef8	addi	r1,r30,#-264
17400  0000fa24  8fc2fef0	lw	r2,-272(r30)
17401  0000fa28  00220820	add	r1,r1,r2
17402  0000fa2c  90220000	lbu	r2,(r1)
17403  0000fa30  60410025	seqi	r1,r2,#37
17404  0000fa34  102006a8	beqz	r1,L73_LF6
17405  0000fa38  54000000	nop; delay slot nop
17406  0000fa3c  8fc2fef0	lw	r2,-272(r30)
17407  0000fa40  20410001	addi	r1,r2,#1
17408  0000fa44  00011020	add	r2,r0,r1
17409  0000fa48  afc2fef0	sw	-272(r30),r2
17410  0000fa4c  23c1fef8	addi	r1,r30,#-264
17411  0000fa50  8fc3fef0	lw	r3,-272(r30)
17412  0000fa54  00231020	add	r2,r1,r3
17413  0000fa58  90410000	lbu	r1,(r2)
17414  0000fa5c  6c220067	sgti	r2,r1,#103
17415  0000fa60  1440003c	bnez	r2,L103_LF6
17416  0000fa64  54000000	nop; delay slot nop
17417  0000fa68  74220065	sgei	r2,r1,#101
17418  0000fa6c  144001a8	bnez	r2,L85_LF6
17419  0000fa70  54000000	nop; delay slot nop
17420  0000fa74  60220063	seqi	r2,r1,#99
17421  0000fa78  14400054	bnez	r2,L78_LF6
17422  0000fa7c  54000000	nop; delay slot nop
17423  0000fa80  6c220063	sgti	r2,r1,#99
17424  0000fa84  144002ac	bnez	r2,L88_LF6
17425  0000fa88  54000000	nop; delay slot nop
17426  0000fa8c  60220025	seqi	r2,r1,#37
17427  0000fa90  1440002c	bnez	r2,L77_LF6
17428  0000fa94  54000000	nop; delay slot nop
17429  0000fa98  08000608	j	L101_LF6
17430  0000fa9c  54000000	nop; delay slot nop
17431  0000faa0          	L103_LF6:
17432  0000faa0  6022006c	seqi	r2,r1,#108
17433  0000faa4  14400108	bnez	r2,L81_LF6
17434  0000faa8  54000000	nop; delay slot nop
17435  0000faac  60210073	seqi	r1,r1,#115
17436  0000fab0  14200360	bnez	r1,L91_LF6
17437  0000fab4  54000000	nop; delay slot nop
17438  0000fab8  080005e8	j	L101_LF6
17439  0000fabc  54000000	nop; delay slot nop
17440  0000fac0          	L77_LF6:
17441  0000fac0  0800061c	j	L73_LF6
17442  0000fac4  54000000	nop; delay slot nop
17443  0000fac8  08000614	j	L76_LF6
17444  0000facc  54000000	nop; delay slot nop
17445  0000fad0          	L78_LF6:
17446  0000fad0  8fc10004	lw	r1,4(r30)
17447  0000fad4  64220000	snei	r2,r1,#0
17448  0000fad8  1440006c	bnez	r2,L79_LF6
17449  0000fadc  54000000	nop; delay slot nop
17450  0000fae0  23bdfff0	addi	r29,r29,#-16
17451  0000fae4  001d0820	add	r1,r0,r29
17452  0000fae8  3c020001	lhi	r2,((_currentPCB)>>16)&0xffff
17453  0000faec  24426294	addui	r2,r2,(_currentPCB)&0xffff
17454  0000faf0  8c430000	lw	r3,(r2)
17455  0000faf4  ac230000	sw	(r1),r3
17456  0000faf8  8fc2fee8	lw	r2,-280(r30)
17457  0000fafc  00021820	add	r3,r0,r2
17458  0000fb00  50620002	slli	r2,r3,#0x2
17459  0000fb04  8fc30000	lw	r3,(r30)
17460  0000fb08  00431020	add	r2,r2,r3
17461  0000fb0c  20430004	addi	r3,r2,#4
17462  0000fb10  ac230004	sw	4(r1),r3
17463  0000fb14  23c2fec8	addi	r2,r30,#-312
17464  0000fb18  8fc3fee8	lw	r3,-280(r30)
17465  0000fb1c  00032020	add	r4,r0,r3
17466  0000fb20  50830002	slli	r3,r4,#0x2
17467  0000fb24  00431020	add	r2,r2,r3
17468  0000fb28  ac220008	sw	8(r1),r2
17469  0000fb2c  20020004	addi	r2,r0,#4
17470  0000fb30  ac22000c	sw	12(r1),r2
17471  0000fb34  0fff3820	jal	_MemoryCopyUserToSystem
17472  0000fb38  54000000	nop; delay slot nop
17473  0000fb3c  23bd0010	addi	r29,r29,#16
17474  0000fb40  08000054	j	L80_LF6
17475  0000fb44  54000000	nop; delay slot nop
17476  0000fb48          	L79_LF6:
17477  0000fb48  8fc1fee8	lw	r1,-280(r30)
17478  0000fb4c  20020004	addi	r2,r0,#4
17479  0000fb50  00200035	movi2fp	f0,r1
17480  0000fb54  00400835	movi2fp	f1,r2
17481  0000fb58  0401000e	mult	f0,f0,f1
17482  0000fb5c  00000834	movfp2i	r1,f0
17483  0000fb60  23c3fff8	addi	r3,r30,#-8
17484  0000fb64  00231020	add	r2,r1,r3
17485  0000fb68  2041fed0	addi	r1,r2,#-304
17486  0000fb6c  8fc2fee8	lw	r2,-280(r30)
17487  0000fb70  20030004	addi	r3,r0,#4
17488  0000fb74  00400035	movi2fp	f0,r2
17489  0000fb78  00600835	movi2fp	f1,r3
17490  0000fb7c  0401000e	mult	f0,f0,f1
17491  0000fb80  00001034	movfp2i	r2,f0
17492  0000fb84  8fc30000	lw	r3,(r30)
17493  0000fb88  00431020	add	r2,r2,r3
17494  0000fb8c  20430004	addi	r3,r2,#4
17495  0000fb90  8c620000	lw	r2,(r3)
17496  0000fb94  ac220000	sw	(r1),r2
17497  0000fb98          	L80_LF6:
17498  0000fb98  8fc2fee8	lw	r2,-280(r30)
17499  0000fb9c  20410001	addi	r1,r2,#1
17500  0000fba0  00011020	add	r2,r0,r1
17501  0000fba4  afc2fee8	sw	-280(r30),r2
17502  0000fba8  08000534	j	L73_LF6
17503  0000fbac  54000000	nop; delay slot nop
17504  0000fbb0          	L81_LF6:
17505  0000fbb0  23c1fef9	addi	r1,r30,#-263
17506  0000fbb4  8fc2fef0	lw	r2,-272(r30)
17507  0000fbb8  00220820	add	r1,r1,r2
17508  0000fbbc  90220000	lbu	r2,(r1)
17509  0000fbc0  64410066	snei	r1,r2,#102
17510  0000fbc4  10200040	beqz	r1,L82_LF6
17511  0000fbc8  54000000	nop; delay slot nop
17512  0000fbcc  23bdfff8	addi	r29,r29,#-8
17513  0000fbd0  001d0820	add	r1,r0,r29
17514  0000fbd4  3c020002	lhi	r2,((LC7_LF6)>>16)&0xffff
17515  0000fbd8  24422110	addui	r2,r2,(LC7_LF6)&0xffff
17516  0000fbdc  ac220000	sw	(r1),r2
17517  0000fbe0  23c2fef9	addi	r2,r30,#-263
17518  0000fbe4  8fc3fef0	lw	r3,-272(r30)
17519  0000fbe8  00431020	add	r2,r2,r3
17520  0000fbec  90430000	lbu	r3,(r2)
17521  0000fbf0  ac230004	sw	4(r1),r3
17522  0000fbf4  0c002984	jal	_printf
17523  0000fbf8  54000000	nop; delay slot nop
17524  0000fbfc  23bd0008	addi	r29,r29,#8
17525  0000fc00  08000994	j	L62_LF6
17526  0000fc04  54000000	nop; delay slot nop
17527  0000fc08          	L82_LF6:
17528  0000fc08  8fc2fef0	lw	r2,-272(r30)
17529  0000fc0c  20410001	addi	r1,r2,#1
17530  0000fc10  00011020	add	r2,r0,r1
17531  0000fc14  afc2fef0	sw	-272(r30),r2
17532  0000fc18          	L83_LF6:
17533  0000fc18          	L84_LF6:
17534  0000fc18          	L85_LF6:
17535  0000fc18  8fc10004	lw	r1,4(r30)
17536  0000fc1c  64220000	snei	r2,r1,#0
17537  0000fc20  1440006c	bnez	r2,L86_LF6
17538  0000fc24  54000000	nop; delay slot nop
17539  0000fc28  23bdfff0	addi	r29,r29,#-16
17540  0000fc2c  001d0820	add	r1,r0,r29
17541  0000fc30  3c020001	lhi	r2,((_currentPCB)>>16)&0xffff
17542  0000fc34  24426294	addui	r2,r2,(_currentPCB)&0xffff
17543  0000fc38  8c430000	lw	r3,(r2)
17544  0000fc3c  ac230000	sw	(r1),r3
17545  0000fc40  8fc2fee8	lw	r2,-280(r30)
17546  0000fc44  00021820	add	r3,r0,r2
17547  0000fc48  50620002	slli	r2,r3,#0x2
17548  0000fc4c  8fc30000	lw	r3,(r30)
17549  0000fc50  00431020	add	r2,r2,r3
17550  0000fc54  20430004	addi	r3,r2,#4
17551  0000fc58  ac230004	sw	4(r1),r3
17552  0000fc5c  23c2fec8	addi	r2,r30,#-312
17553  0000fc60  8fc3fee8	lw	r3,-280(r30)
17554  0000fc64  00032020	add	r4,r0,r3
17555  0000fc68  50830002	slli	r3,r4,#0x2
17556  0000fc6c  00431020	add	r2,r2,r3
17557  0000fc70  ac220008	sw	8(r1),r2
17558  0000fc74  20020008	addi	r2,r0,#8
17559  0000fc78  ac22000c	sw	12(r1),r2
17560  0000fc7c  0fff36d8	jal	_MemoryCopyUserToSystem
17561  0000fc80  54000000	nop; delay slot nop
17562  0000fc84  23bd0010	addi	r29,r29,#16
17563  0000fc88  08000094	j	L87_LF6
17564  0000fc8c  54000000	nop; delay slot nop
17565  0000fc90          	L86_LF6:
17566  0000fc90  8fc1fee8	lw	r1,-280(r30)
17567  0000fc94  20020004	addi	r2,r0,#4
17568  0000fc98  00200035	movi2fp	f0,r1
17569  0000fc9c  00400835	movi2fp	f1,r2
17570  0000fca0  0401000e	mult	f0,f0,f1
17571  0000fca4  00000834	movfp2i	r1,f0
17572  0000fca8  23c3fff8	addi	r3,r30,#-8
17573  0000fcac  00231020	add	r2,r1,r3
17574  0000fcb0  2041fed0	addi	r1,r2,#-304
17575  0000fcb4  8fc2fee8	lw	r2,-280(r30)
17576  0000fcb8  20030004	addi	r3,r0,#4
17577  0000fcbc  00400035	movi2fp	f0,r2
17578  0000fcc0  00600835	movi2fp	f1,r3
17579  0000fcc4  0401000e	mult	f0,f0,f1
17580  0000fcc8  00001034	movfp2i	r2,f0
17581  0000fccc  8fc30000	lw	r3,(r30)
17582  0000fcd0  00431020	add	r2,r2,r3
17583  0000fcd4  20430004	addi	r3,r2,#4
17584  0000fcd8  8c620000	lw	r2,(r3)
17585  0000fcdc  ac220000	sw	(r1),r2
17586  0000fce0  23c1fecc	addi	r1,r30,#-308
17587  0000fce4  8fc2fee8	lw	r2,-280(r30)
17588  0000fce8  00021820	add	r3,r0,r2
17589  0000fcec  50620002	slli	r2,r3,#0x2
17590  0000fcf0  00220820	add	r1,r1,r2
17591  0000fcf4  8fc2fee8	lw	r2,-280(r30)
17592  0000fcf8  20030004	addi	r3,r0,#4
17593  0000fcfc  00400035	movi2fp	f0,r2
17594  0000fd00  00600835	movi2fp	f1,r3
17595  0000fd04  0401000e	mult	f0,f0,f1
17596  0000fd08  00001034	movfp2i	r2,f0
17597  0000fd0c  8fc30000	lw	r3,(r30)
17598  0000fd10  00431020	add	r2,r2,r3
17599  0000fd14  20430008	addi	r3,r2,#8
17600  0000fd18  8c620000	lw	r2,(r3)
17601  0000fd1c  ac220000	sw	(r1),r2
17602  0000fd20          	L87_LF6:
17603  0000fd20  8fc1fee8	lw	r1,-280(r30)
17604  0000fd24  20220002	addi	r2,r1,#2
17605  0000fd28  afc2fee8	sw	-280(r30),r2
17606  0000fd2c  080003b0	j	L73_LF6
17607  0000fd30  54000000	nop; delay slot nop
17608  0000fd34          	L88_LF6:
17609  0000fd34  8fc10004	lw	r1,4(r30)
17610  0000fd38  64220000	snei	r2,r1,#0
17611  0000fd3c  1440006c	bnez	r2,L89_LF6
17612  0000fd40  54000000	nop; delay slot nop
17613  0000fd44  23bdfff0	addi	r29,r29,#-16
17614  0000fd48  001d0820	add	r1,r0,r29
17615  0000fd4c  3c020001	lhi	r2,((_currentPCB)>>16)&0xffff
17616  0000fd50  24426294	addui	r2,r2,(_currentPCB)&0xffff
17617  0000fd54  8c430000	lw	r3,(r2)
17618  0000fd58  ac230000	sw	(r1),r3
17619  0000fd5c  8fc2fee8	lw	r2,-280(r30)
17620  0000fd60  00021820	add	r3,r0,r2
17621  0000fd64  50620002	slli	r2,r3,#0x2
17622  0000fd68  8fc30000	lw	r3,(r30)
17623  0000fd6c  00431020	add	r2,r2,r3
17624  0000fd70  20430004	addi	r3,r2,#4
17625  0000fd74  ac230004	sw	4(r1),r3
17626  0000fd78  23c2fec8	addi	r2,r30,#-312
17627  0000fd7c  8fc3fee8	lw	r3,-280(r30)
17628  0000fd80  00032020	add	r4,r0,r3
17629  0000fd84  50830002	slli	r3,r4,#0x2
17630  0000fd88  00431020	add	r2,r2,r3
17631  0000fd8c  ac220008	sw	8(r1),r2
17632  0000fd90  20020004	addi	r2,r0,#4
17633  0000fd94  ac22000c	sw	12(r1),r2
17634  0000fd98  0fff35bc	jal	_MemoryCopyUserToSystem
17635  0000fd9c  54000000	nop; delay slot nop
17636  0000fda0  23bd0010	addi	r29,r29,#16
17637  0000fda4  08000054	j	L90_LF6
17638  0000fda8  54000000	nop; delay slot nop
17639  0000fdac          	L89_LF6:
17640  0000fdac  8fc1fee8	lw	r1,-280(r30)
17641  0000fdb0  20020004	addi	r2,r0,#4
17642  0000fdb4  00200035	movi2fp	f0,r1
17643  0000fdb8  00400835	movi2fp	f1,r2
17644  0000fdbc  0401000e	mult	f0,f0,f1
17645  0000fdc0  00000834	movfp2i	r1,f0
17646  0000fdc4  23c3fff8	addi	r3,r30,#-8
17647  0000fdc8  00231020	add	r2,r1,r3
17648  0000fdcc  2041fed0	addi	r1,r2,#-304
17649  0000fdd0  8fc2fee8	lw	r2,-280(r30)
17650  0000fdd4  20030004	addi	r3,r0,#4
17651  0000fdd8  00400035	movi2fp	f0,r2
17652  0000fddc  00600835	movi2fp	f1,r3
17653  0000fde0  0401000e	mult	f0,f0,f1
17654  0000fde4  00001034	movfp2i	r2,f0
17655  0000fde8  8fc30000	lw	r3,(r30)
17656  0000fdec  00431020	add	r2,r2,r3
17657  0000fdf0  20430004	addi	r3,r2,#4
17658  0000fdf4  8c620000	lw	r2,(r3)
17659  0000fdf8  ac220000	sw	(r1),r2
17660  0000fdfc          	L90_LF6:
17661  0000fdfc  8fc2fee8	lw	r2,-280(r30)
17662  0000fe00  20410001	addi	r1,r2,#1
17663  0000fe04  00011020	add	r2,r0,r1
17664  0000fe08  afc2fee8	sw	-280(r30),r2
17665  0000fe0c  080002d0	j	L73_LF6
17666  0000fe10  54000000	nop; delay slot nop
17667  0000fe14          	L91_LF6:
17668  0000fe14  8fc10004	lw	r1,4(r30)
17669  0000fe18  64220000	snei	r2,r1,#0
17670  0000fe1c  1440021c	bnez	r2,L92_LF6
17671  0000fe20  54000000	nop; delay slot nop
17672  0000fe24  8fc1fcc4	lw	r1,-828(r30)
17673  0000fe28  60220005	seqi	r2,r1,#5
17674  0000fe2c  1040002c	beqz	r2,L93_LF6
17675  0000fe30  54000000	nop; delay slot nop
17676  0000fe34  23bdfff8	addi	r29,r29,#-8
17677  0000fe38  001d0820	add	r1,r0,r29
17678  0000fe3c  3c020002	lhi	r2,((LC8_LF6)>>16)&0xffff
17679  0000fe40  24422148	addui	r2,r2,(LC8_LF6)&0xffff
17680  0000fe44  ac220000	sw	(r1),r2
17681  0000fe48  0c002730	jal	_printf
17682  0000fe4c  54000000	nop; delay slot nop
17683  0000fe50  23bd0008	addi	r29,r29,#8
17684  0000fe54  08000740	j	L62_LF6
17685  0000fe58  54000000	nop; delay slot nop
17686  0000fe5c          	L93_LF6:
17687  0000fe5c  23bdfff0	addi	r29,r29,#-16
17688  0000fe60  001d0820	add	r1,r0,r29
17689  0000fe64  3c020001	lhi	r2,((_currentPCB)>>16)&0xffff
17690  0000fe68  24426294	addui	r2,r2,(_currentPCB)&0xffff
17691  0000fe6c  8c430000	lw	r3,(r2)
17692  0000fe70  ac230000	sw	(r1),r3
17693  0000fe74  8fc2fee8	lw	r2,-280(r30)
17694  0000fe78  00021820	add	r3,r0,r2
17695  0000fe7c  50620002	slli	r2,r3,#0x2
17696  0000fe80  8fc30000	lw	r3,(r30)
17697  0000fe84  00431020	add	r2,r2,r3
17698  0000fe88  20430004	addi	r3,r2,#4
17699  0000fe8c  ac230004	sw	4(r1),r3
17700  0000fe90  23c2fec4	addi	r2,r30,#-316
17701  0000fe94  ac220008	sw	8(r1),r2
17702  0000fe98  20020004	addi	r2,r0,#4
17703  0000fe9c  ac22000c	sw	12(r1),r2
17704  0000fea0  0fff34b4	jal	_MemoryCopyUserToSystem
17705  0000fea4  54000000	nop; delay slot nop
17706  0000fea8  23bd0010	addi	r29,r29,#16
17707  0000feac  20010000	addi	r1,r0,#0
17708  0000feb0  afc1feec	sw	-276(r30),r1
17709  0000feb4          	L94_LF6:
17710  0000feb4  8fc1feec	lw	r1,-276(r30)
17711  0000feb8  70220063	slei	r2,r1,#99
17712  0000febc  1440000c	bnez	r2,L97_LF6
17713  0000fec0  54000000	nop; delay slot nop
17714  0000fec4  080000d0	j	L95_LF6
17715  0000fec8  54000000	nop; delay slot nop
17716  0000fecc          	L97_LF6:
17717  0000fecc  23bdfff0	addi	r29,r29,#-16
17718  0000fed0  001d0820	add	r1,r0,r29
17719  0000fed4  3c020001	lhi	r2,((_currentPCB)>>16)&0xffff
17720  0000fed8  24426294	addui	r2,r2,(_currentPCB)&0xffff
17721  0000fedc  8c430000	lw	r3,(r2)
17722  0000fee0  ac230000	sw	(r1),r3
17723  0000fee4  8fc2fec4	lw	r2,-316(r30)
17724  0000fee8  8fc3feec	lw	r3,-276(r30)
17725  0000feec  00431020	add	r2,r2,r3
17726  0000fef0  ac220004	sw	4(r1),r2
17727  0000fef4  23c2fcc8	addi	r2,r30,#-824
17728  0000fef8  8fc3fcc4	lw	r3,-828(r30)
17729  0000fefc  00032820	add	r5,r0,r3
17730  0000ff00  50a40001	slli	r4,r5,#0x1
17731  0000ff04  00832020	add	r4,r4,r3
17732  0000ff08  50850003	slli	r5,r4,#0x3
17733  0000ff0c  00a32820	add	r5,r5,r3
17734  0000ff10  50a30002	slli	r3,r5,#0x2
17735  0000ff14  00431020	add	r2,r2,r3
17736  0000ff18  8fc3feec	lw	r3,-276(r30)
17737  0000ff1c  00431020	add	r2,r2,r3
17738  0000ff20  ac220008	sw	8(r1),r2
17739  0000ff24  20020001	addi	r2,r0,#1
17740  0000ff28  ac22000c	sw	12(r1),r2
17741  0000ff2c  0fff3428	jal	_MemoryCopyUserToSystem
17742  0000ff30  54000000	nop; delay slot nop
17743  0000ff34  23bd0010	addi	r29,r29,#16
17744  0000ff38  8fc1fcc4	lw	r1,-828(r30)
17745  0000ff3c  00011820	add	r3,r0,r1
17746  0000ff40  50620001	slli	r2,r3,#0x1
17747  0000ff44  00411020	add	r2,r2,r1
17748  0000ff48  50430003	slli	r3,r2,#0x3
17749  0000ff4c  00611820	add	r3,r3,r1
17750  0000ff50  50610002	slli	r1,r3,#0x2
17751  0000ff54  23c2fff8	addi	r2,r30,#-8
17752  0000ff58  00220820	add	r1,r1,r2
17753  0000ff5c  2022fcd0	addi	r2,r1,#-816
17754  0000ff60  8fc3feec	lw	r3,-276(r30)
17755  0000ff64  00430820	add	r1,r2,r3
17756  0000ff68  90220000	lbu	r2,(r1)
17757  0000ff6c  64410000	snei	r1,r2,#0
17758  0000ff70  1420000c	bnez	r1,L96_LF6
17759  0000ff74  54000000	nop; delay slot nop
17760  0000ff78  0800001c	j	L95_LF6
17761  0000ff7c  54000000	nop; delay slot nop
17762  0000ff80          	L98_LF6:
17763  0000ff80          	L96_LF6:
17764  0000ff80  8fc2feec	lw	r2,-276(r30)
17765  0000ff84  20410001	addi	r1,r2,#1
17766  0000ff88  00011020	add	r2,r0,r1
17767  0000ff8c  afc2feec	sw	-276(r30),r2
17768  0000ff90  0bffff20	j	L94_LF6
17769  0000ff94  54000000	nop; delay slot nop
17770  0000ff98          	L95_LF6:
17771  0000ff98  8fc1feec	lw	r1,-276(r30)
17772  0000ff9c  60220064	seqi	r2,r1,#100
17773  0000ffa0  10400034	beqz	r2,L99_LF6
17774  0000ffa4  54000000	nop; delay slot nop
17775  0000ffa8  23bdfff8	addi	r29,r29,#-8
17776  0000ffac  001d0820	add	r1,r0,r29
17777  0000ffb0  3c020002	lhi	r2,((LC9_LF6)>>16)&0xffff
17778  0000ffb4  2442217c	addui	r2,r2,(LC9_LF6)&0xffff
17779  0000ffb8  ac220000	sw	(r1),r2
17780  0000ffbc  8fc2fee8	lw	r2,-280(r30)
17781  0000ffc0  ac220004	sw	4(r1),r2
17782  0000ffc4  0c0025b4	jal	_printf
17783  0000ffc8  54000000	nop; delay slot nop
17784  0000ffcc  23bd0008	addi	r29,r29,#8
17785  0000ffd0  080005c4	j	L62_LF6
17786  0000ffd4  54000000	nop; delay slot nop
17787  0000ffd8          	L99_LF6:
17788  0000ffd8  8fc1fee8	lw	r1,-280(r30)
17789  0000ffdc  20020004	addi	r2,r0,#4
17790  0000ffe0  00200035	movi2fp	f0,r1
17791  0000ffe4  00400835	movi2fp	f1,r2
17792  0000ffe8  0401000e	mult	f0,f0,f1
17793  0000ffec  00000834	movfp2i	r1,f0
17794  0000fff0  23c3fff8	addi	r3,r30,#-8
17795  0000fff4  00231020	add	r2,r1,r3
17796  0000fff8  2041fed0	addi	r1,r2,#-304
17797  0000fffc  23c2fcc8	addi	r2,r30,#-824
17798  00010000  8fc3fcc4	lw	r3,-828(r30)
17799  00010004  00032820	add	r5,r0,r3
17800  00010008  50a40001	slli	r4,r5,#0x1
17801  0001000c  00832020	add	r4,r4,r3
17802  00010010  50850003	slli	r5,r4,#0x3
17803  00010014  00a32820	add	r5,r5,r3
17804  00010018  50a30002	slli	r3,r5,#0x2
17805  0001001c  00431020	add	r2,r2,r3
17806  00010020  ac220000	sw	(r1),r2
17807  00010024  8fc2fcc4	lw	r2,-828(r30)
17808  00010028  20410001	addi	r1,r2,#1
17809  0001002c  00011020	add	r2,r0,r1
17810  00010030  afc2fcc4	sw	-828(r30),r2
17811  00010034  08000054	j	L100_LF6
17812  00010038  54000000	nop; delay slot nop
17813  0001003c          	L92_LF6:
17814  0001003c  8fc1fee8	lw	r1,-280(r30)
17815  00010040  20020004	addi	r2,r0,#4
17816  00010044  00200035	movi2fp	f0,r1
17817  00010048  00400835	movi2fp	f1,r2
17818  0001004c  0401000e	mult	f0,f0,f1
17819  00010050  00000834	movfp2i	r1,f0
17820  00010054  23c3fff8	addi	r3,r30,#-8
17821  00010058  00231020	add	r2,r1,r3
17822  0001005c  2041fed0	addi	r1,r2,#-304
17823  00010060  8fc2fee8	lw	r2,-280(r30)
17824  00010064  20030004	addi	r3,r0,#4
17825  00010068  00400035	movi2fp	f0,r2
17826  0001006c  00600835	movi2fp	f1,r3
17827  00010070  0401000e	mult	f0,f0,f1
17828  00010074  00001034	movfp2i	r2,f0
17829  00010078  8fc30000	lw	r3,(r30)
17830  0001007c  00431020	add	r2,r2,r3
17831  00010080  20430004	addi	r3,r2,#4
17832  00010084  8c620000	lw	r2,(r3)
17833  00010088  ac220000	sw	(r1),r2
17834  0001008c          	L100_LF6:
17835  0001008c  8fc2fee8	lw	r2,-280(r30)
17836  00010090  20410001	addi	r1,r2,#1
17837  00010094  00011020	add	r2,r0,r1
17838  00010098  afc2fee8	sw	-280(r30),r2
17839  0001009c  08000040	j	L73_LF6
17840  000100a0  54000000	nop; delay slot nop
17841  000100a4          	L101_LF6:
17842  000100a4  23bdfff8	addi	r29,r29,#-8
17843  000100a8  001d0820	add	r1,r0,r29
17844  000100ac  3c020002	lhi	r2,((LC10_LF6)>>16)&0xffff
17845  000100b0  244221c0	addui	r2,r2,(LC10_LF6)&0xffff
17846  000100b4  ac220000	sw	(r1),r2
17847  000100b8  23c2fef9	addi	r2,r30,#-263
17848  000100bc  8fc3fef0	lw	r3,-272(r30)
17849  000100c0  00431020	add	r2,r2,r3
17850  000100c4  90430000	lbu	r3,(r2)
17851  000100c8  ac230004	sw	4(r1),r3
17852  000100cc  0c0024ac	jal	_printf
17853  000100d0  54000000	nop; delay slot nop
17854  000100d4  23bd0008	addi	r29,r29,#8
17855  000100d8  080004bc	j	L62_LF6
17856  000100dc  54000000	nop; delay slot nop
17857  000100e0          	L76_LF6:
17858  000100e0          	L75_LF6:
17859  000100e0          	L73_LF6:
17860  000100e0  8fc2fef0	lw	r2,-272(r30)
17861  000100e4  20410001	addi	r1,r2,#1
17862  000100e8  00011020	add	r2,r0,r1
17863  000100ec  afc2fef0	sw	-272(r30),r2
17864  000100f0  0bfff8f8	j	L71_LF6
17865  000100f4  54000000	nop; delay slot nop
17866  000100f8          	L72_LF6:
17867  000100f8  8fc1fee8	lw	r1,-280(r30)
17868  000100fc  6c22000c	sgtui	r2,r1,#12
17869  00010100  1440046c	bnez	r2,L118_LF6
17870  00010104  54000000	nop; delay slot nop
17871  00010108  8fc1fee8	lw	r1,-280(r30)
17872  0001010c  00011020	add	r2,r0,r1
17873  00010110  50410002	slli	r1,r2,#0x2
17874  00010114  3c060002	lhi	r6,((L119_LF6)>>16)&0xffff
17875  00010118  24c6222c	addui	r6,r6,(L119_LF6)&0xffff
17876  0001011c  00261020	add	r2,r1,r6
17877  00010120  8c410000	lw	r1,(r2)
17878  00010124  48200000	jr	r1
17879  00010128  54000000	nop; delay slot nop
17880  0001012c          	.data
17881  0002222c          	.align 2
17882  0002222c          	L119_LF6:
17883  0002222c  0001012c	.word L105_LF6
17884  00022230  00010150	.word L106_LF6
17885  00022234  0001017c	.word L107_LF6
17886  00022238  000101b0	.word L108_LF6
17887  0002223c  000101ec	.word L109_LF6
17888  00022240  00010230	.word L110_LF6
17889  00022244  0001027c	.word L111_LF6
17890  00022248  000102d0	.word L112_LF6
17891  0002224c  0001032c	.word L113_LF6
17892  00022250  00010390	.word L114_LF6
17893  00022254  000103fc	.word L115_LF6
17894  00022258  00010470	.word L116_LF6
17895  0002225c  000104ec	.word L117_LF6
17896  00022260          	.text
17897  0001012c          	L105_LF6:
17898  0001012c  23bdfff8	addi	r29,r29,#-8
17899  00010130  001d0820	add	r1,r0,r29
17900  00010134  23c2fef8	addi	r2,r30,#-264
17901  00010138  ac220000	sw	(r1),r2
17902  0001013c  0c00243c	jal	_printf
17903  00010140  54000000	nop; delay slot nop
17904  00010144  23bd0008	addi	r29,r29,#8
17905  00010148  0800044c	j	L104_LF6
17906  0001014c  54000000	nop; delay slot nop
17907  00010150          	L106_LF6:
17908  00010150  23bdfff8	addi	r29,r29,#-8
17909  00010154  001d0820	add	r1,r0,r29
17910  00010158  23c2fef8	addi	r2,r30,#-264
17911  0001015c  ac220000	sw	(r1),r2
17912  00010160  8fc2fec8	lw	r2,-312(r30)
17913  00010164  ac220004	sw	4(r1),r2
17914  00010168  0c002410	jal	_printf
17915  0001016c  54000000	nop; delay slot nop
17916  00010170  23bd0008	addi	r29,r29,#8
17917  00010174  08000420	j	L104_LF6
17918  00010178  54000000	nop; delay slot nop
17919  0001017c          	L107_LF6:
17920  0001017c  23bdfff0	addi	r29,r29,#-16
17921  00010180  001d0820	add	r1,r0,r29
17922  00010184  23c2fef8	addi	r2,r30,#-264
17923  00010188  ac220000	sw	(r1),r2
17924  0001018c  8fc2fec8	lw	r2,-312(r30)
17925  00010190  ac220004	sw	4(r1),r2
17926  00010194  8fc2fecc	lw	r2,-308(r30)
17927  00010198  ac220008	sw	8(r1),r2
17928  0001019c  0c0023dc	jal	_printf
17929  000101a0  54000000	nop; delay slot nop
17930  000101a4  23bd0010	addi	r29,r29,#16
17931  000101a8  080003ec	j	L104_LF6
17932  000101ac  54000000	nop; delay slot nop
17933  000101b0          	L108_LF6:
17934  000101b0  23bdfff0	addi	r29,r29,#-16
17935  000101b4  001d0820	add	r1,r0,r29
17936  000101b8  23c2fef8	addi	r2,r30,#-264
17937  000101bc  ac220000	sw	(r1),r2
17938  000101c0  8fc2fec8	lw	r2,-312(r30)
17939  000101c4  ac220004	sw	4(r1),r2
17940  000101c8  8fc2fecc	lw	r2,-308(r30)
17941  000101cc  ac220008	sw	8(r1),r2
17942  000101d0  8fc2fed0	lw	r2,-304(r30)
17943  000101d4  ac22000c	sw	12(r1),r2
17944  000101d8  0c0023a0	jal	_printf
17945  000101dc  54000000	nop; delay slot nop
17946  000101e0  23bd0010	addi	r29,r29,#16
17947  000101e4  080003b0	j	L104_LF6
17948  000101e8  54000000	nop; delay slot nop
17949  000101ec          	L109_LF6:
17950  000101ec  23bdffe8	addi	r29,r29,#-24
17951  000101f0  001d0820	add	r1,r0,r29
17952  000101f4  23c2fef8	addi	r2,r30,#-264
17953  000101f8  ac220000	sw	(r1),r2
17954  000101fc  8fc2fec8	lw	r2,-312(r30)
17955  00010200  ac220004	sw	4(r1),r2
17956  00010204  8fc2fecc	lw	r2,-308(r30)
17957  00010208  ac220008	sw	8(r1),r2
17958  0001020c  8fc2fed0	lw	r2,-304(r30)
17959  00010210  ac22000c	sw	12(r1),r2
17960  00010214  8fc2fed4	lw	r2,-300(r30)
17961  00010218  ac220010	sw	16(r1),r2
17962  0001021c  0c00235c	jal	_printf
17963  00010220  54000000	nop; delay slot nop
17964  00010224  23bd0018	addi	r29,r29,#24
17965  00010228  0800036c	j	L104_LF6
17966  0001022c  54000000	nop; delay slot nop
17967  00010230          	L110_LF6:
17968  00010230  23bdffe8	addi	r29,r29,#-24
17969  00010234  001d0820	add	r1,r0,r29
17970  00010238  23c2fef8	addi	r2,r30,#-264
17971  0001023c  ac220000	sw	(r1),r2
17972  00010240  8fc2fec8	lw	r2,-312(r30)
17973  00010244  ac220004	sw	4(r1),r2
17974  00010248  8fc2fecc	lw	r2,-308(r30)
17975  0001024c  ac220008	sw	8(r1),r2
17976  00010250  8fc2fed0	lw	r2,-304(r30)
17977  00010254  ac22000c	sw	12(r1),r2
17978  00010258  8fc2fed4	lw	r2,-300(r30)
17979  0001025c  ac220010	sw	16(r1),r2
17980  00010260  8fc2fed8	lw	r2,-296(r30)
17981  00010264  ac220014	sw	20(r1),r2
17982  00010268  0c002310	jal	_printf
17983  0001026c  54000000	nop; delay slot nop
17984  00010270  23bd0018	addi	r29,r29,#24
17985  00010274  08000320	j	L104_LF6
17986  00010278  54000000	nop; delay slot nop
17987  0001027c          	L111_LF6:
17988  0001027c  23bdffe0	addi	r29,r29,#-32
17989  00010280  001d0820	add	r1,r0,r29
17990  00010284  23c2fef8	addi	r2,r30,#-264
17991  00010288  ac220000	sw	(r1),r2
17992  0001028c  8fc2fec8	lw	r2,-312(r30)
17993  00010290  ac220004	sw	4(r1),r2
17994  00010294  8fc2fecc	lw	r2,-308(r30)
17995  00010298  ac220008	sw	8(r1),r2
17996  0001029c  8fc2fed0	lw	r2,-304(r30)
17997  000102a0  ac22000c	sw	12(r1),r2
17998  000102a4  8fc2fed4	lw	r2,-300(r30)
17999  000102a8  ac220010	sw	16(r1),r2
18000  000102ac  8fc2fed8	lw	r2,-296(r30)
18001  000102b0  ac220014	sw	20(r1),r2
18002  000102b4  8fc2fedc	lw	r2,-292(r30)
18003  000102b8  ac220018	sw	24(r1),r2
18004  000102bc  0c0022bc	jal	_printf
18005  000102c0  54000000	nop; delay slot nop
18006  000102c4  23bd0020	addi	r29,r29,#32
18007  000102c8  080002cc	j	L104_LF6
18008  000102cc  54000000	nop; delay slot nop
18009  000102d0          	L112_LF6:
18010  000102d0  23bdffe0	addi	r29,r29,#-32
18011  000102d4  001d0820	add	r1,r0,r29
18012  000102d8  23c2fef8	addi	r2,r30,#-264
18013  000102dc  ac220000	sw	(r1),r2
18014  000102e0  8fc2fec8	lw	r2,-312(r30)
18015  000102e4  ac220004	sw	4(r1),r2
18016  000102e8  8fc2fecc	lw	r2,-308(r30)
18017  000102ec  ac220008	sw	8(r1),r2
18018  000102f0  8fc2fed0	lw	r2,-304(r30)
18019  000102f4  ac22000c	sw	12(r1),r2
18020  000102f8  8fc2fed4	lw	r2,-300(r30)
18021  000102fc  ac220010	sw	16(r1),r2
18022  00010300  8fc2fed8	lw	r2,-296(r30)
18023  00010304  ac220014	sw	20(r1),r2
18024  00010308  8fc2fedc	lw	r2,-292(r30)
18025  0001030c  ac220018	sw	24(r1),r2
18026  00010310  8fc2fee0	lw	r2,-288(r30)
18027  00010314  ac22001c	sw	28(r1),r2
18028  00010318  0c002260	jal	_printf
18029  0001031c  54000000	nop; delay slot nop
18030  00010320  23bd0020	addi	r29,r29,#32
18031  00010324  08000270	j	L104_LF6
18032  00010328  54000000	nop; delay slot nop
18033  0001032c          	L113_LF6:
18034  0001032c  23bdffd8	addi	r29,r29,#-40
18035  00010330  001d0820	add	r1,r0,r29
18036  00010334  23c2fef8	addi	r2,r30,#-264
18037  00010338  ac220000	sw	(r1),r2
18038  0001033c  8fc2fec8	lw	r2,-312(r30)
18039  00010340  ac220004	sw	4(r1),r2
18040  00010344  8fc2fecc	lw	r2,-308(r30)
18041  00010348  ac220008	sw	8(r1),r2
18042  0001034c  8fc2fed0	lw	r2,-304(r30)
18043  00010350  ac22000c	sw	12(r1),r2
18044  00010354  8fc2fed4	lw	r2,-300(r30)
18045  00010358  ac220010	sw	16(r1),r2
18046  0001035c  8fc2fed8	lw	r2,-296(r30)
18047  00010360  ac220014	sw	20(r1),r2
18048  00010364  8fc2fedc	lw	r2,-292(r30)
18049  00010368  ac220018	sw	24(r1),r2
18050  0001036c  8fc2fee0	lw	r2,-288(r30)
18051  00010370  ac22001c	sw	28(r1),r2
18052  00010374  8fc2fee4	lw	r2,-284(r30)
18053  00010378  ac220020	sw	32(r1),r2
18054  0001037c  0c0021fc	jal	_printf
18055  00010380  54000000	nop; delay slot nop
18056  00010384  23bd0028	addi	r29,r29,#40
18057  00010388  0800020c	j	L104_LF6
18058  0001038c  54000000	nop; delay slot nop
18059  00010390          	L114_LF6:
18060  00010390  23bdffd8	addi	r29,r29,#-40
18061  00010394  001d0820	add	r1,r0,r29
18062  00010398  23c2fef8	addi	r2,r30,#-264
18063  0001039c  ac220000	sw	(r1),r2
18064  000103a0  8fc2fec8	lw	r2,-312(r30)
18065  000103a4  ac220004	sw	4(r1),r2
18066  000103a8  8fc2fecc	lw	r2,-308(r30)
18067  000103ac  ac220008	sw	8(r1),r2
18068  000103b0  8fc2fed0	lw	r2,-304(r30)
18069  000103b4  ac22000c	sw	12(r1),r2
18070  000103b8  8fc2fed4	lw	r2,-300(r30)
18071  000103bc  ac220010	sw	16(r1),r2
18072  000103c0  8fc2fed8	lw	r2,-296(r30)
18073  000103c4  ac220014	sw	20(r1),r2
18074  000103c8  8fc2fedc	lw	r2,-292(r30)
18075  000103cc  ac220018	sw	24(r1),r2
18076  000103d0  8fc2fee0	lw	r2,-288(r30)
18077  000103d4  ac22001c	sw	28(r1),r2
18078  000103d8  8fc2fee4	lw	r2,-284(r30)
18079  000103dc  ac220020	sw	32(r1),r2
18080  000103e0  8fc2fee8	lw	r2,-280(r30)
18081  000103e4  ac220024	sw	36(r1),r2
18082  000103e8  0c002190	jal	_printf
18083  000103ec  54000000	nop; delay slot nop
18084  000103f0  23bd0028	addi	r29,r29,#40
18085  000103f4  080001a0	j	L104_LF6
18086  000103f8  54000000	nop; delay slot nop
18087  000103fc          	L115_LF6:
18088  000103fc  23bdffd0	addi	r29,r29,#-48
18089  00010400  001d0820	add	r1,r0,r29
18090  00010404  23c2fef8	addi	r2,r30,#-264
18091  00010408  ac220000	sw	(r1),r2
18092  0001040c  8fc2fec8	lw	r2,-312(r30)
18093  00010410  ac220004	sw	4(r1),r2
18094  00010414  8fc2fecc	lw	r2,-308(r30)
18095  00010418  ac220008	sw	8(r1),r2
18096  0001041c  8fc2fed0	lw	r2,-304(r30)
18097  00010420  ac22000c	sw	12(r1),r2
18098  00010424  8fc2fed4	lw	r2,-300(r30)
18099  00010428  ac220010	sw	16(r1),r2
18100  0001042c  8fc2fed8	lw	r2,-296(r30)
18101  00010430  ac220014	sw	20(r1),r2
18102  00010434  8fc2fedc	lw	r2,-292(r30)
18103  00010438  ac220018	sw	24(r1),r2
18104  0001043c  8fc2fee0	lw	r2,-288(r30)
18105  00010440  ac22001c	sw	28(r1),r2
18106  00010444  8fc2fee4	lw	r2,-284(r30)
18107  00010448  ac220020	sw	32(r1),r2
18108  0001044c  8fc2fee8	lw	r2,-280(r30)
18109  00010450  ac220024	sw	36(r1),r2
18110  00010454  8fc2feec	lw	r2,-276(r30)
18111  00010458  ac220028	sw	40(r1),r2
18112  0001045c  0c00211c	jal	_printf
18113  00010460  54000000	nop; delay slot nop
18114  00010464  23bd0030	addi	r29,r29,#48
18115  00010468  0800012c	j	L104_LF6
18116  0001046c  54000000	nop; delay slot nop
18117  00010470          	L116_LF6:
18118  00010470  23bdffd0	addi	r29,r29,#-48
18119  00010474  001d0820	add	r1,r0,r29
18120  00010478  23c2fef8	addi	r2,r30,#-264
18121  0001047c  ac220000	sw	(r1),r2
18122  00010480  8fc2fec8	lw	r2,-312(r30)
18123  00010484  ac220004	sw	4(r1),r2
18124  00010488  8fc2fecc	lw	r2,-308(r30)
18125  0001048c  ac220008	sw	8(r1),r2
18126  00010490  8fc2fed0	lw	r2,-304(r30)
18127  00010494  ac22000c	sw	12(r1),r2
18128  00010498  8fc2fed4	lw	r2,-300(r30)
18129  0001049c  ac220010	sw	16(r1),r2
18130  000104a0  8fc2fed8	lw	r2,-296(r30)
18131  000104a4  ac220014	sw	20(r1),r2
18132  000104a8  8fc2fedc	lw	r2,-292(r30)
18133  000104ac  ac220018	sw	24(r1),r2
18134  000104b0  8fc2fee0	lw	r2,-288(r30)
18135  000104b4  ac22001c	sw	28(r1),r2
18136  000104b8  8fc2fee4	lw	r2,-284(r30)
18137  000104bc  ac220020	sw	32(r1),r2
18138  000104c0  8fc2fee8	lw	r2,-280(r30)
18139  000104c4  ac220024	sw	36(r1),r2
18140  000104c8  8fc2feec	lw	r2,-276(r30)
18141  000104cc  ac220028	sw	40(r1),r2
18142  000104d0  8fc2fef0	lw	r2,-272(r30)
18143  000104d4  ac22002c	sw	44(r1),r2
18144  000104d8  0c0020a0	jal	_printf
18145  000104dc  54000000	nop; delay slot nop
18146  000104e0  23bd0030	addi	r29,r29,#48
18147  000104e4  080000b0	j	L104_LF6
18148  000104e8  54000000	nop; delay slot nop
18149  000104ec          	L117_LF6:
18150  000104ec  23bdffc8	addi	r29,r29,#-56
18151  000104f0  001d0820	add	r1,r0,r29
18152  000104f4  23c2fef8	addi	r2,r30,#-264
18153  000104f8  ac220000	sw	(r1),r2
18154  000104fc  8fc2fec8	lw	r2,-312(r30)
18155  00010500  ac220004	sw	4(r1),r2
18156  00010504  8fc2fecc	lw	r2,-308(r30)
18157  00010508  ac220008	sw	8(r1),r2
18158  0001050c  8fc2fed0	lw	r2,-304(r30)
18159  00010510  ac22000c	sw	12(r1),r2
18160  00010514  8fc2fed4	lw	r2,-300(r30)
18161  00010518  ac220010	sw	16(r1),r2
18162  0001051c  8fc2fed8	lw	r2,-296(r30)
18163  00010520  ac220014	sw	20(r1),r2
18164  00010524  8fc2fedc	lw	r2,-292(r30)
18165  00010528  ac220018	sw	24(r1),r2
18166  0001052c  8fc2fee0	lw	r2,-288(r30)
18167  00010530  ac22001c	sw	28(r1),r2
18168  00010534  8fc2fee4	lw	r2,-284(r30)
18169  00010538  ac220020	sw	32(r1),r2
18170  0001053c  8fc2fee8	lw	r2,-280(r30)
18171  00010540  ac220024	sw	36(r1),r2
18172  00010544  8fc2feec	lw	r2,-276(r30)
18173  00010548  ac220028	sw	40(r1),r2
18174  0001054c  8fc2fef0	lw	r2,-272(r30)
18175  00010550  ac22002c	sw	44(r1),r2
18176  00010554  8fc2fef4	lw	r2,-268(r30)
18177  00010558  ac220030	sw	48(r1),r2
18178  0001055c  0c00201c	jal	_printf
18179  00010560  54000000	nop; delay slot nop
18180  00010564  23bd0038	addi	r29,r29,#56
18181  00010568  0800002c	j	L104_LF6
18182  0001056c  54000000	nop; delay slot nop
18183  00010570          	L118_LF6:
18184  00010570  23bdfff8	addi	r29,r29,#-8
18185  00010574  001d0820	add	r1,r0,r29
18186  00010578  3c020002	lhi	r2,((LC11_LF6)>>16)&0xffff
18187  0001057c  244221f8	addui	r2,r2,(LC11_LF6)&0xffff
18188  00010580  ac220000	sw	(r1),r2
18189  00010584  8fc2fee8	lw	r2,-280(r30)
18190  00010588  ac220004	sw	4(r1),r2
18191  0001058c  0c001fec	jal	_printf
18192  00010590  54000000	nop; delay slot nop
18193  00010594  23bd0008	addi	r29,r29,#8
18194  00010598          	L104_LF6:
18195  00010598          	L62_LF6:
18196  00010598  8fa20000	lw	r2,0(r29)
18197  0001059c  8fa30004	lw	r3,4(r29)
18198  000105a0  8fa40008	lw	r4,8(r29)
18199  000105a4  8fa5000c	lw	r5,12(r29)
18200  000105a8  8fa60010	lw	r6,16(r29)
18201  000105ac  8fdffff8	lw	r31,-8(r30)
18202  000105b0  001ee820	add	r29,r0,r30
18203  000105b4  8fdefffc	lw	r30,-4(r30)
18204  000105b8  4be00000	jr	r31
18205  000105bc  54000000	nop
18206  000105c0          	.endproc _TrapPrintfHandler_LF6
18207  000105c0          	.data
18208  00022260          	.align 2
18209  00022260          	LC12_LF6:
18210  00022260  496e7465	.ascii "Interrupt cause=0x%x iar=0x%x isr=0x%x args=0x%08x.\n\000"
18210  00022264  72727570	
18210  00022268  74206361	
18210  0002226c  7573653d	
18210  00022270  30782578	
18210  00022274  20696172	
18210  00022278  3d307825	
18210  0002227c  78206973	
18210  00022280  723d3078	
18210  00022284  25782061	
18210  00022288  7267733d	
18210  0002228c  30782530	
18210  00022290  38782e0a	
18210  00022294  00      	
18211  00022295          	.align 2
18212  00022298          	LC13_LF6:
18213  00022298  476f7420	.ascii "Got a context switch trap!\n\000"
18213  0002229c  6120636f	
18213  000222a0  6e746578	
18213  000222a4  74207377	
18213  000222a8  69746368	
18213  000222ac  20747261	
18213  000222b0  70210a00	
18214  000222b4          	.align 2
18215  000222b4          	LC14_LF6:
18216  000222b4  476f7420	.ascii "Got an exit trap!\n\000"
18216  000222b8  616e2065	
18216  000222bc  78697420	
18216  000222c0  74726170	
18216  000222c4  210a00  	
18217  000222c7          	.align 2
18218  000222c8          	LC15_LF6:
18219  000222c8  476f7420	.ascii "Got a fork trap!\n\000"
18219  000222cc  6120666f	
18219  000222d0  726b2074	
18219  000222d4  72617021	
18219  000222d8  0a00    	
18220  000222da          	.align 2
18221  000222dc          	LC16_LF6:
18222  000222dc  476f7420	.ascii "Got a process sleep trap!\n\000"
18222  000222e0  61207072	
18222  000222e4  6f636573	
18222  000222e8  7320736c	
18222  000222ec  65657020	
18222  000222f0  74726170	
18222  000222f4  210a00  	
18223  000222f7          	.align 2
18224  000222f8          	LC17_LF6:
18225  000222f8  476f7420	.ascii "Got a printf trap!\n\000"
18225  000222fc  61207072	
18225  00022300  696e7466	
18225  00022304  20747261	
18225  00022308  70210a00	
18226  0002230c          	.align 2
18227  0002230c          	LC18_LF6:
18228  0002230c  476f7420	.ascii "Got an open with parameters (\'%s\',0x%x)\n\000"
18228  00022310  616e206f	
18228  00022314  70656e20	
18228  00022318  77697468	
18228  0002231c  20706172	
18228  00022320  616d6574	
18228  00022324  65727320	
18228  00022328  28272573	
18228  0002232c  272c3078	
18228  00022330  2578290a	
18228  00022334  00      	
18229  00022335          	.align 2
18230  00022338          	LC19_LF6:
18231  00022338  476f7420	.ascii "Got an unrecognized trap (0x%x) - exiting!\n\000"
18231  0002233c  616e2075	
18231  00022340  6e726563	
18231  00022344  6f676e69	
18231  00022348  7a656420	
18231  0002234c  74726170	
18231  00022350  20283078	
18231  00022354  25782920	
18231  00022358  2d206578	
18231  0002235c  6974696e	
18231  00022360  67210a00	
18232  00022364          	.align 2
18233  00022364          	LC20_LF6:
18234  00022364  476f7420	.ascii "Got a timer interrupt!\n\000"
18234  00022368  61207469	
18234  0002236c  6d657220	
18234  00022370  696e7465	
18234  00022374  72727570	
18234  00022378  74210a00	
18235  0002237c          	.align 2
18236  0002237c          	LC21_LF6:
18237  0002237c  476f7420	.ascii "Got a keyboard interrupt (char=0x%x(%c), nleft=%d)!\n\000"
18237  00022380  61206b65	
18237  00022384  79626f61	
18237  00022388  72642069	
18237  0002238c  6e746572	
18237  00022390  72757074	
18237  00022394  20286368	
18237  00022398  61723d30	
18237  0002239c  78257828	
18237  000223a0  2563292c	
18237  000223a4  206e6c65	
18237  000223a8  66743d25	
18237  000223ac  6429210a	
18237  000223b0  00      	
18238  000223b1          	.align 2
18239  000223b4          	LC22_LF6:
18240  000223b4  45786974	.ascii "Exiting after illegal access at iar=0x%x, isr=0x%x\n\000"
18240  000223b8  696e6720	
18240  000223bc  61667465	
18240  000223c0  7220696c	
18240  000223c4  6c656761	
18240  000223c8  6c206163	
18240  000223cc  63657373	
18240  000223d0  20617420	
18240  000223d4  6961723d	
18240  000223d8  30782578	
18240  000223dc  2c206973	
18240  000223e0  723d3078	
18240  000223e4  25780a00	
18241  000223e8          	.align 2
18242  000223e8          	LC23_LF6:
18243  000223e8  45786974	.ascii "Exiting after illegal address at iar=0x%x, isr=0x%x\n\000"
18243  000223ec  696e6720	
18243  000223f0  61667465	
18243  000223f4  7220696c	
18243  000223f8  6c656761	
18243  000223fc  6c206164	
18243  00022400  64726573	
18243  00022404  73206174	
18243  00022408  20696172	
18243  0002240c  3d307825	
18243  00022410  782c2069	
18243  00022414  73723d30	
18243  00022418  7825780a	
18243  0002241c  00      	
18244  0002241d          	.align 2
18245  00022420          	LC24_LF6:
18246  00022420  45786974	.ascii "Exiting after illegal instruction at iar=0x%x, isr=0x%x\n\000"
18246  00022424  696e6720	
18246  00022428  61667465	
18246  0002242c  7220696c	
18246  00022430  6c656761	
18246  00022434  6c20696e	
18246  00022438  73747275	
18246  0002243c  6374696f	
18246  00022440  6e206174	
18246  00022444  20696172	
18246  00022448  3d307825	
18246  0002244c  782c2069	
18246  00022450  73723d30	
18246  00022454  7825780a	
18246  00022458  00      	
18247  00022459          	.align 2
18248  0002245c          	LC25_LF6:
18249  0002245c  476f7420	.ascii "Got an unrecognized system interrupt (0x%x) - exiting!\n\000"
18249  00022460  616e2075	
18249  00022464  6e726563	
18249  00022468  6f676e69	
18249  0002246c  7a656420	
18249  00022470  73797374	
18249  00022474  656d2069	
18249  00022478  6e746572	
18249  0002247c  72757074	
18249  00022480  20283078	
18249  00022484  25782920	
18249  00022488  2d206578	
18249  0002248c  6974696e	
18249  00022490  67210a00	
18250  00022494          	.align 2
18251  00022494          	LC26_LF6:
18252  00022494  41626f75	.ascii "About to return from dointerrupt.\n\000"
18252  00022498  7420746f	
18252  0002249c  20726574	
18252  000224a0  75726e20	
18252  000224a4  66726f6d	
18252  000224a8  20646f69	
18252  000224ac  6e746572	
18252  000224b0  72757074	
18252  000224b4  2e0a00  	
18253  000224b7          	.text
18254  000105c0          	.align 2
18255  000105c0          	.proc _dointerrupt
18256  000105c0          	.global _dointerrupt
18257  000105c0          	_dointerrupt:
18258                      ;  Function 'dointerrupt'; 72 bytes of locals, 4 regs to save.
18259  000105c0  afbefffc	sw	-4(r29),r30; push fp
18260  000105c4  001df020	add	r30,r0,r29; fp = sp
18261  000105c8  afbffff8	sw	-8(r29),r31; push ret addr
18262  000105cc  2fbd0060	subui	r29,r29,#96; alloc local storage
18263  000105d0  afa20000	sw	0(r29),r2
18264  000105d4  afa30004	sw	4(r29),r3
18265  000105d8  afa40008	sw	8(r29),r4
18266  000105dc  afa5000c	sw	12(r29),r5
18267  000105e0  23bdfff8	addi	r29,r29,#-8
18268  000105e4  001d0820	add	r1,r0,r29
18269  000105e8  3c020001	lhi	r2,((_debugstr)>>16)&0xffff
18270  000105ec  244261cb	addui	r2,r2,(_debugstr)&0xffff
18271  000105f0  ac220000	sw	(r1),r2
18272  000105f4  20020074	addi	r2,r0,#116
18273  000105f8  ac220004	sw	4(r1),r2
18274  000105fc  0fff3e54	jal	_dindex
18275  00010600  54000000	nop; delay slot nop
18276  00010604  23bd0008	addi	r29,r29,#8
18277  00010608  64220000	snei	r2,r1,#0
18278  0001060c  10400044	beqz	r2,L121_LF6
18279  00010610  54000000	nop; delay slot nop
18280  00010614  23bdffe8	addi	r29,r29,#-24
18281  00010618  001d0820	add	r1,r0,r29
18282  0001061c  3c020002	lhi	r2,((LC12_LF6)>>16)&0xffff
18283  00010620  24422260	addui	r2,r2,(LC12_LF6)&0xffff
18284  00010624  ac220000	sw	(r1),r2
18285  00010628  8fc20000	lw	r2,(r30)
18286  0001062c  ac220004	sw	4(r1),r2
18287  00010630  8fc20004	lw	r2,4(r30)
18288  00010634  ac220008	sw	8(r1),r2
18289  00010638  8fc20008	lw	r2,8(r30)
18290  0001063c  ac22000c	sw	12(r1),r2
18291  00010640  8fc2000c	lw	r2,12(r30)
18292  00010644  ac220010	sw	16(r1),r2
18293  00010648  0c001f30	jal	_printf
18294  0001064c  54000000	nop; delay slot nop
18295  00010650  23bd0018	addi	r29,r29,#24
18296  00010654          	L121_LF6:
18297  00010654  23bdfff8	addi	r29,r29,#-8
18298  00010658  001d0820	add	r1,r0,r29
18299  0001065c  3c020001	lhi	r2,((_debugstr)>>16)&0xffff
18300  00010660  244261cb	addui	r2,r2,(_debugstr)&0xffff
18301  00010664  ac220000	sw	(r1),r2
18302  00010668  2002002b	addi	r2,r0,#43
18303  0001066c  ac220004	sw	4(r1),r2
18304  00010670  0fff3de0	jal	_dindex
18305  00010674  54000000	nop; delay slot nop
18306  00010678  23bd0008	addi	r29,r29,#8
18307  0001067c  64220000	snei	r2,r1,#0
18308  00010680  10400044	beqz	r2,L122_LF6
18309  00010684  54000000	nop; delay slot nop
18310  00010688  23bdffe8	addi	r29,r29,#-24
18311  0001068c  001d0820	add	r1,r0,r29
18312  00010690  3c020002	lhi	r2,((LC12_LF6)>>16)&0xffff
18313  00010694  24422260	addui	r2,r2,(LC12_LF6)&0xffff
18314  00010698  ac220000	sw	(r1),r2
18315  0001069c  8fc20000	lw	r2,(r30)
18316  000106a0  ac220004	sw	4(r1),r2
18317  000106a4  8fc20004	lw	r2,4(r30)
18318  000106a8  ac220008	sw	8(r1),r2
18319  000106ac  8fc20008	lw	r2,8(r30)
18320  000106b0  ac22000c	sw	12(r1),r2
18321  000106b4  8fc2000c	lw	r2,12(r30)
18322  000106b8  ac220010	sw	16(r1),r2
18323  000106bc  0c001ebc	jal	_printf
18324  000106c0  54000000	nop; delay slot nop
18325  000106c4  23bd0018	addi	r29,r29,#24
18326  000106c8          	L122_LF6:
18327  000106c8  8fc20000	lw	r2,(r30)
18328  000106cc  3c050800	lhi	r5,#2048
18329  000106d0  24a50000	addui	r5,r5,#0
18330  000106d4  00450824	and	r1,r2,r5
18331  000106d8  64220000	snei	r2,r1,#0
18332  000106dc  10400ffc	beqz	r2,L123_LF6
18333  000106e0  54000000	nop; delay slot nop
18334  000106e4  8fc10000	lw	r1,(r30)
18335  000106e8  3c05f7ff	lhi	r5,#-2049
18336  000106ec  24a5ffff	addui	r5,r5,#65535
18337  000106f0  00251024	and	r2,r1,r5
18338  000106f4  afc20000	sw	(r30),r2
18339  000106f8  8fc10000	lw	r1,(r30)
18340  000106fc  60220450	seqi	r2,r1,#1104
18341  00010700  144009b0	bnez	r2,L151_LF6
18342  00010704  54000000	nop; delay slot nop
18343  00010708  6c220450	sgtui	r2,r1,#1104
18344  0001070c  144000ec	bnez	r2,L165_LF6
18345  00010710  54000000	nop; delay slot nop
18346  00010714  60220214	seqi	r2,r1,#532
18347  00010718  1440074c	bnez	r2,L144_LF6
18348  0001071c  54000000	nop; delay slot nop
18349  00010720  6c220214	sgtui	r2,r1,#532
18350  00010724  1440005c	bnez	r2,L166_LF6
18351  00010728  54000000	nop; delay slot nop
18352  0001072c  60220211	seqi	r2,r1,#529
18353  00010730  144007f4	bnez	r2,L146_LF6
18354  00010734  54000000	nop; delay slot nop
18355  00010738  6c220211	sgtui	r2,r1,#529
18356  0001073c  14400024	bnez	r2,L167_LF6
18357  00010740  54000000	nop; delay slot nop
18358  00010744  60220201	seqi	r2,r1,#513
18359  00010748  144004e8	bnez	r2,L138_LF6
18360  0001074c  54000000	nop; delay slot nop
18361  00010750  60220210	seqi	r2,r1,#528
18362  00010754  14400770	bnez	r2,L145_LF6
18363  00010758  54000000	nop; delay slot nop
18364  0001075c  08000f38	j	L163_LF6
18365  00010760  54000000	nop; delay slot nop
18366  00010764          	L167_LF6:
18367  00010764  60220212	seqi	r2,r1,#530
18368  00010768  1440087c	bnez	r2,L148_LF6
18369  0001076c  54000000	nop; delay slot nop
18370  00010770  60220213	seqi	r2,r1,#531
18371  00010774  14400594	bnez	r2,L141_LF6
18372  00010778  54000000	nop; delay slot nop
18373  0001077c  08000f18	j	L163_LF6
18374  00010780  54000000	nop; delay slot nop
18375  00010784          	L166_LF6:
18376  00010784  60220410	seqi	r2,r1,#1040
18377  00010788  144003bc	bnez	r2,L135_LF6
18378  0001078c  54000000	nop; delay slot nop
18379  00010790  6c220410	sgtui	r2,r1,#1040
18380  00010794  14400024	bnez	r2,L168_LF6
18381  00010798  54000000	nop; delay slot nop
18382  0001079c  60220300	seqi	r2,r1,#768
18383  000107a0  14400208	bnez	r2,L129_LF6
18384  000107a4  54000000	nop; delay slot nop
18385  000107a8  60220400	seqi	r2,r1,#1024
18386  000107ac  14400134	bnez	r2,L125_LF6
18387  000107b0  54000000	nop; delay slot nop
18388  000107b4  08000ee0	j	L163_LF6
18389  000107b8  54000000	nop; delay slot nop
18390  000107bc          	L168_LF6:
18391  000107bc  60220431	seqi	r2,r1,#1073
18392  000107c0  14400884	bnez	r2,L149_LF6
18393  000107c4  54000000	nop; delay slot nop
18394  000107c8  6c220431	sgtui	r2,r1,#1073
18395  000107cc  14400018	bnez	r2,L169_LF6
18396  000107d0  54000000	nop; delay slot nop
18397  000107d4  60220430	seqi	r2,r1,#1072
18398  000107d8  144002bc	bnez	r2,L132_LF6
18399  000107dc  54000000	nop; delay slot nop
18400  000107e0  08000eb4	j	L163_LF6
18401  000107e4  54000000	nop; delay slot nop
18402  000107e8          	L169_LF6:
18403  000107e8  60220432	seqi	r2,r1,#1074
18404  000107ec  14400894	bnez	r2,L150_LF6
18405  000107f0  54000000	nop; delay slot nop
18406  000107f4  08000ea0	j	L163_LF6
18407  000107f8  54000000	nop; delay slot nop
18408  000107fc          	L165_LF6:
18409  000107fc  60220457	seqi	r2,r1,#1111
18410  00010800  14400d14	bnez	r2,L160_LF6
18411  00010804  54000000	nop; delay slot nop
18412  00010808  6c220457	sgtui	r2,r1,#1111
18413  0001080c  1440005c	bnez	r2,L170_LF6
18414  00010810  54000000	nop; delay slot nop
18415  00010814  60220453	seqi	r2,r1,#1107
18416  00010818  14400b38	bnez	r2,L156_LF6
18417  0001081c  54000000	nop; delay slot nop
18418  00010820  6c220453	sgtui	r2,r1,#1107
18419  00010824  14400024	bnez	r2,L171_LF6
18420  00010828  54000000	nop; delay slot nop
18421  0001082c  60220451	seqi	r2,r1,#1105
18422  00010830  14400900	bnez	r2,L152_LF6
18423  00010834  54000000	nop; delay slot nop
18424  00010838  60220452	seqi	r2,r1,#1106
18425  0001083c  14400974	bnez	r2,L153_LF6
18426  00010840  54000000	nop; delay slot nop
18427  00010844  08000e50	j	L163_LF6
18428  00010848  54000000	nop; delay slot nop
18429  0001084c          	L171_LF6:
18430  0001084c  60220455	seqi	r2,r1,#1109
18431  00010850  14400bc4	bnez	r2,L158_LF6
18432  00010854  54000000	nop; delay slot nop
18433  00010858  6c220455	sgtui	r2,r1,#1109
18434  0001085c  14400c38	bnez	r2,L159_LF6
18435  00010860  54000000	nop; delay slot nop
18436  00010864  08000b30	j	L157_LF6
18437  00010868  54000000	nop; delay slot nop
18438  0001086c          	L170_LF6:
18439  0001086c  60220467	seqi	r2,r1,#1127
18440  00010870  144009c0	bnez	r2,L154_LF6
18441  00010874  54000000	nop; delay slot nop
18442  00010878  6c220467	sgtui	r2,r1,#1127
18443  0001087c  14400024	bnez	r2,L172_LF6
18444  00010880  54000000	nop; delay slot nop
18445  00010884  60220458	seqi	r2,r1,#1112
18446  00010888  14400d0c	bnez	r2,L161_LF6
18447  0001088c  54000000	nop; delay slot nop
18448  00010890  60220459	seqi	r2,r1,#1113
18449  00010894  14400d80	bnez	r2,L162_LF6
18450  00010898  54000000	nop; delay slot nop
18451  0001089c  08000df8	j	L163_LF6
18452  000108a0  54000000	nop; delay slot nop
18453  000108a4          	L172_LF6:
18454  000108a4  60220500	seqi	r2,r1,#1280
18455  000108a8  14400100	bnez	r2,L129_LF6
18456  000108ac  54000000	nop; delay slot nop
18457  000108b0  6c220500	sgtui	r2,r1,#1280
18458  000108b4  14400018	bnez	r2,L173_LF6
18459  000108b8  54000000	nop; delay slot nop
18460  000108bc  60220468	seqi	r2,r1,#1128
18461  000108c0  14400a00	bnez	r2,L155_LF6
18462  000108c4  54000000	nop; delay slot nop
18463  000108c8  08000dcc	j	L163_LF6
18464  000108cc  54000000	nop; delay slot nop
18465  000108d0          	L173_LF6:
18466  000108d0  60210580	seqi	r1,r1,#1408
18467  000108d4  142006b0	bnez	r1,L147_LF6
18468  000108d8  54000000	nop; delay slot nop
18469  000108dc  08000db8	j	L163_LF6
18470  000108e0  54000000	nop; delay slot nop
18471  000108e4          	L125_LF6:
18472  000108e4  23bdfff8	addi	r29,r29,#-8
18473  000108e8  001d0820	add	r1,r0,r29
18474  000108ec  3c020001	lhi	r2,((_debugstr)>>16)&0xffff
18475  000108f0  244261cb	addui	r2,r2,(_debugstr)&0xffff
18476  000108f4  ac220000	sw	(r1),r2
18477  000108f8  20020074	addi	r2,r0,#116
18478  000108fc  ac220004	sw	4(r1),r2
18479  00010900  0fff3b50	jal	_dindex
18480  00010904  54000000	nop; delay slot nop
18481  00010908  23bd0008	addi	r29,r29,#8
18482  0001090c  64220000	snei	r2,r1,#0
18483  00010910  10400024	beqz	r2,L126_LF6
18484  00010914  54000000	nop; delay slot nop
18485  00010918  23bdfff8	addi	r29,r29,#-8
18486  0001091c  001d0820	add	r1,r0,r29
18487  00010920  3c020002	lhi	r2,((LC13_LF6)>>16)&0xffff
18488  00010924  24422298	addui	r2,r2,(LC13_LF6)&0xffff
18489  00010928  ac220000	sw	(r1),r2
18490  0001092c  0c001c4c	jal	_printf
18491  00010930  54000000	nop; delay slot nop
18492  00010934  23bd0008	addi	r29,r29,#8
18493  00010938          	L126_LF6:
18494  00010938  23bdfff8	addi	r29,r29,#-8
18495  0001093c  001d0820	add	r1,r0,r29
18496  00010940  3c020001	lhi	r2,((_debugstr)>>16)&0xffff
18497  00010944  244261cb	addui	r2,r2,(_debugstr)&0xffff
18498  00010948  ac220000	sw	(r1),r2
18499  0001094c  2002002b	addi	r2,r0,#43
18500  00010950  ac220004	sw	4(r1),r2
18501  00010954  0fff3afc	jal	_dindex
18502  00010958  54000000	nop; delay slot nop
18503  0001095c  23bd0008	addi	r29,r29,#8
18504  00010960  64220000	snei	r2,r1,#0
18505  00010964  10400024	beqz	r2,L127_LF6
18506  00010968  54000000	nop; delay slot nop
18507  0001096c  23bdfff8	addi	r29,r29,#-8
18508  00010970  001d0820	add	r1,r0,r29
18509  00010974  3c020002	lhi	r2,((LC13_LF6)>>16)&0xffff
18510  00010978  24422298	addui	r2,r2,(LC13_LF6)&0xffff
18511  0001097c  ac220000	sw	(r1),r2
18512  00010980  0c001bf8	jal	_printf
18513  00010984  54000000	nop; delay slot nop
18514  00010988  23bd0008	addi	r29,r29,#8
18515  0001098c          	L127_LF6:
18516  0001098c  001d1020	add	r2,r0,r29
18517  00010990  0fff4cb0	jal	_ProcessSchedule
18518  00010994  54000000	nop; delay slot nop
18519  00010998  001d1020	add	r2,r0,r29
18520  0001099c  0c0017f0	jal	_ClkResetProcess
18521  000109a0  54000000	nop; delay slot nop
18522  000109a4  08000d2c	j	L124_LF6
18523  000109a8  54000000	nop; delay slot nop
18524  000109ac          	L128_LF6:
18525  000109ac          	L129_LF6:
18526  000109ac  23bdfff8	addi	r29,r29,#-8
18527  000109b0  001d0820	add	r1,r0,r29
18528  000109b4  3c020001	lhi	r2,((_debugstr)>>16)&0xffff
18529  000109b8  244261cb	addui	r2,r2,(_debugstr)&0xffff
18530  000109bc  ac220000	sw	(r1),r2
18531  000109c0  20020074	addi	r2,r0,#116
18532  000109c4  ac220004	sw	4(r1),r2
18533  000109c8  0fff3a88	jal	_dindex
18534  000109cc  54000000	nop; delay slot nop
18535  000109d0  23bd0008	addi	r29,r29,#8
18536  000109d4  64220000	snei	r2,r1,#0
18537  000109d8  10400024	beqz	r2,L130_LF6
18538  000109dc  54000000	nop; delay slot nop
18539  000109e0  23bdfff8	addi	r29,r29,#-8
18540  000109e4  001d0820	add	r1,r0,r29
18541  000109e8  3c020002	lhi	r2,((LC14_LF6)>>16)&0xffff
18542  000109ec  244222b4	addui	r2,r2,(LC14_LF6)&0xffff
18543  000109f0  ac220000	sw	(r1),r2
18544  000109f4  0c001b84	jal	_printf
18545  000109f8  54000000	nop; delay slot nop
18546  000109fc  23bd0008	addi	r29,r29,#8
18547  00010a00          	L130_LF6:
18548  00010a00  23bdfff8	addi	r29,r29,#-8
18549  00010a04  001d0820	add	r1,r0,r29
18550  00010a08  3c020001	lhi	r2,((_debugstr)>>16)&0xffff
18551  00010a0c  244261cb	addui	r2,r2,(_debugstr)&0xffff
18552  00010a10  ac220000	sw	(r1),r2
18553  00010a14  2002002b	addi	r2,r0,#43
18554  00010a18  ac220004	sw	4(r1),r2
18555  00010a1c  0fff3a34	jal	_dindex
18556  00010a20  54000000	nop; delay slot nop
18557  00010a24  23bd0008	addi	r29,r29,#8
18558  00010a28  64220000	snei	r2,r1,#0
18559  00010a2c  10400024	beqz	r2,L131_LF6
18560  00010a30  54000000	nop; delay slot nop
18561  00010a34  23bdfff8	addi	r29,r29,#-8
18562  00010a38  001d0820	add	r1,r0,r29
18563  00010a3c  3c020002	lhi	r2,((LC14_LF6)>>16)&0xffff
18564  00010a40  244222b4	addui	r2,r2,(LC14_LF6)&0xffff
18565  00010a44  ac220000	sw	(r1),r2
18566  00010a48  0c001b30	jal	_printf
18567  00010a4c  54000000	nop; delay slot nop
18568  00010a50  23bd0008	addi	r29,r29,#8
18569  00010a54          	L131_LF6:
18570  00010a54  23bdfff8	addi	r29,r29,#-8
18571  00010a58  001d0820	add	r1,r0,r29
18572  00010a5c  3c020001	lhi	r2,((_currentPCB)>>16)&0xffff
18573  00010a60  24426294	addui	r2,r2,(_currentPCB)&0xffff
18574  00010a64  8c430000	lw	r3,(r2)
18575  00010a68  ac230000	sw	(r1),r3
18576  00010a6c  0fff570c	jal	_ProcessDestroy
18577  00010a70  54000000	nop; delay slot nop
18578  00010a74  23bd0008	addi	r29,r29,#8
18579  00010a78  001d1020	add	r2,r0,r29
18580  00010a7c  0fff4bc4	jal	_ProcessSchedule
18581  00010a80  54000000	nop; delay slot nop
18582  00010a84  001d1020	add	r2,r0,r29
18583  00010a88  0c001704	jal	_ClkResetProcess
18584  00010a8c  54000000	nop; delay slot nop
18585  00010a90  08000c40	j	L124_LF6
18586  00010a94  54000000	nop; delay slot nop
18587  00010a98          	L132_LF6:
18588  00010a98  23bdfff8	addi	r29,r29,#-8
18589  00010a9c  001d0820	add	r1,r0,r29
18590  00010aa0  3c020001	lhi	r2,((_debugstr)>>16)&0xffff
18591  00010aa4  244261cb	addui	r2,r2,(_debugstr)&0xffff
18592  00010aa8  ac220000	sw	(r1),r2
18593  00010aac  20020074	addi	r2,r0,#116
18594  00010ab0  ac220004	sw	4(r1),r2
18595  00010ab4  0fff399c	jal	_dindex
18596  00010ab8  54000000	nop; delay slot nop
18597  00010abc  23bd0008	addi	r29,r29,#8
18598  00010ac0  64220000	snei	r2,r1,#0
18599  00010ac4  10400024	beqz	r2,L133_LF6
18600  00010ac8  54000000	nop; delay slot nop
18601  00010acc  23bdfff8	addi	r29,r29,#-8
18602  00010ad0  001d0820	add	r1,r0,r29
18603  00010ad4  3c020002	lhi	r2,((LC15_LF6)>>16)&0xffff
18604  00010ad8  244222c8	addui	r2,r2,(LC15_LF6)&0xffff
18605  00010adc  ac220000	sw	(r1),r2
18606  00010ae0  0c001a98	jal	_printf
18607  00010ae4  54000000	nop; delay slot nop
18608  00010ae8  23bd0008	addi	r29,r29,#8
18609  00010aec          	L133_LF6:
18610  00010aec  23bdfff8	addi	r29,r29,#-8
18611  00010af0  001d0820	add	r1,r0,r29
18612  00010af4  3c020001	lhi	r2,((_debugstr)>>16)&0xffff
18613  00010af8  244261cb	addui	r2,r2,(_debugstr)&0xffff
18614  00010afc  ac220000	sw	(r1),r2
18615  00010b00  2002002b	addi	r2,r0,#43
18616  00010b04  ac220004	sw	4(r1),r2
18617  00010b08  0fff3948	jal	_dindex
18618  00010b0c  54000000	nop; delay slot nop
18619  00010b10  23bd0008	addi	r29,r29,#8
18620  00010b14  64220000	snei	r2,r1,#0
18621  00010b18  10400024	beqz	r2,L134_LF6
18622  00010b1c  54000000	nop; delay slot nop
18623  00010b20  23bdfff8	addi	r29,r29,#-8
18624  00010b24  001d0820	add	r1,r0,r29
18625  00010b28  3c020002	lhi	r2,((LC15_LF6)>>16)&0xffff
18626  00010b2c  244222c8	addui	r2,r2,(LC15_LF6)&0xffff
18627  00010b30  ac220000	sw	(r1),r2
18628  00010b34  0c001a44	jal	_printf
18629  00010b38  54000000	nop; delay slot nop
18630  00010b3c  23bd0008	addi	r29,r29,#8
18631  00010b40          	L134_LF6:
18632  00010b40  08000b90	j	L124_LF6
18633  00010b44  54000000	nop; delay slot nop
18634  00010b48          	L135_LF6:
18635  00010b48  23bdfff8	addi	r29,r29,#-8
18636  00010b4c  001d0820	add	r1,r0,r29
18637  00010b50  3c020001	lhi	r2,((_debugstr)>>16)&0xffff
18638  00010b54  244261cb	addui	r2,r2,(_debugstr)&0xffff
18639  00010b58  ac220000	sw	(r1),r2
18640  00010b5c  20020074	addi	r2,r0,#116
18641  00010b60  ac220004	sw	4(r1),r2
18642  00010b64  0fff38ec	jal	_dindex
18643  00010b68  54000000	nop; delay slot nop
18644  00010b6c  23bd0008	addi	r29,r29,#8
18645  00010b70  64220000	snei	r2,r1,#0
18646  00010b74  10400024	beqz	r2,L136_LF6
18647  00010b78  54000000	nop; delay slot nop
18648  00010b7c  23bdfff8	addi	r29,r29,#-8
18649  00010b80  001d0820	add	r1,r0,r29
18650  00010b84  3c020002	lhi	r2,((LC16_LF6)>>16)&0xffff
18651  00010b88  244222dc	addui	r2,r2,(LC16_LF6)&0xffff
18652  00010b8c  ac220000	sw	(r1),r2
18653  00010b90  0c0019e8	jal	_printf
18654  00010b94  54000000	nop; delay slot nop
18655  00010b98  23bd0008	addi	r29,r29,#8
18656  00010b9c          	L136_LF6:
18657  00010b9c  23bdfff8	addi	r29,r29,#-8
18658  00010ba0  001d0820	add	r1,r0,r29
18659  00010ba4  3c020001	lhi	r2,((_debugstr)>>16)&0xffff
18660  00010ba8  244261cb	addui	r2,r2,(_debugstr)&0xffff
18661  00010bac  ac220000	sw	(r1),r2
18662  00010bb0  2002002b	addi	r2,r0,#43
18663  00010bb4  ac220004	sw	4(r1),r2
18664  00010bb8  0fff3898	jal	_dindex
18665  00010bbc  54000000	nop; delay slot nop
18666  00010bc0  23bd0008	addi	r29,r29,#8
18667  00010bc4  64220000	snei	r2,r1,#0
18668  00010bc8  10400024	beqz	r2,L137_LF6
18669  00010bcc  54000000	nop; delay slot nop
18670  00010bd0  23bdfff8	addi	r29,r29,#-8
18671  00010bd4  001d0820	add	r1,r0,r29
18672  00010bd8  3c020002	lhi	r2,((LC16_LF6)>>16)&0xffff
18673  00010bdc  244222dc	addui	r2,r2,(LC16_LF6)&0xffff
18674  00010be0  ac220000	sw	(r1),r2
18675  00010be4  0c001994	jal	_printf
18676  00010be8  54000000	nop; delay slot nop
18677  00010bec  23bd0008	addi	r29,r29,#8
18678  00010bf0          	L137_LF6:
18679  00010bf0  23bdfff8	addi	r29,r29,#-8
18680  00010bf4  001d0820	add	r1,r0,r29
18681  00010bf8  3c020001	lhi	r2,((_currentPCB)>>16)&0xffff
18682  00010bfc  24426294	addui	r2,r2,(_currentPCB)&0xffff
18683  00010c00  8c430000	lw	r3,(r2)
18684  00010c04  ac230000	sw	(r1),r3
18685  00010c08  0fff4ff4	jal	_ProcessSuspend
18686  00010c0c  54000000	nop; delay slot nop
18687  00010c10  23bd0008	addi	r29,r29,#8
18688  00010c14  001d1020	add	r2,r0,r29
18689  00010c18  0fff4a28	jal	_ProcessSchedule
18690  00010c1c  54000000	nop; delay slot nop
18691  00010c20  001d1020	add	r2,r0,r29
18692  00010c24  0c001568	jal	_ClkResetProcess
18693  00010c28  54000000	nop; delay slot nop
18694  00010c2c  08000aa4	j	L124_LF6
18695  00010c30  54000000	nop; delay slot nop
18696  00010c34          	L138_LF6:
18697  00010c34  23bdfff8	addi	r29,r29,#-8
18698  00010c38  001d0820	add	r1,r0,r29
18699  00010c3c  3c020001	lhi	r2,((_debugstr)>>16)&0xffff
18700  00010c40  244261cb	addui	r2,r2,(_debugstr)&0xffff
18701  00010c44  ac220000	sw	(r1),r2
18702  00010c48  20020074	addi	r2,r0,#116
18703  00010c4c  ac220004	sw	4(r1),r2
18704  00010c50  0fff3800	jal	_dindex
18705  00010c54  54000000	nop; delay slot nop
18706  00010c58  23bd0008	addi	r29,r29,#8
18707  00010c5c  64220000	snei	r2,r1,#0
18708  00010c60  10400024	beqz	r2,L139_LF6
18709  00010c64  54000000	nop; delay slot nop
18710  00010c68  23bdfff8	addi	r29,r29,#-8
18711  00010c6c  001d0820	add	r1,r0,r29
18712  00010c70  3c020002	lhi	r2,((LC17_LF6)>>16)&0xffff
18713  00010c74  244222f8	addui	r2,r2,(LC17_LF6)&0xffff
18714  00010c78  ac220000	sw	(r1),r2
18715  00010c7c  0c0018fc	jal	_printf
18716  00010c80  54000000	nop; delay slot nop
18717  00010c84  23bd0008	addi	r29,r29,#8
18718  00010c88          	L139_LF6:
18719  00010c88  23bdfff8	addi	r29,r29,#-8
18720  00010c8c  001d0820	add	r1,r0,r29
18721  00010c90  3c020001	lhi	r2,((_debugstr)>>16)&0xffff
18722  00010c94  244261cb	addui	r2,r2,(_debugstr)&0xffff
18723  00010c98  ac220000	sw	(r1),r2
18724  00010c9c  2002002b	addi	r2,r0,#43
18725  00010ca0  ac220004	sw	4(r1),r2
18726  00010ca4  0fff37ac	jal	_dindex
18727  00010ca8  54000000	nop; delay slot nop
18728  00010cac  23bd0008	addi	r29,r29,#8
18729  00010cb0  64220000	snei	r2,r1,#0
18730  00010cb4  10400024	beqz	r2,L140_LF6
18731  00010cb8  54000000	nop; delay slot nop
18732  00010cbc  23bdfff8	addi	r29,r29,#-8
18733  00010cc0  001d0820	add	r1,r0,r29
18734  00010cc4  3c020002	lhi	r2,((LC17_LF6)>>16)&0xffff
18735  00010cc8  244222f8	addui	r2,r2,(LC17_LF6)&0xffff
18736  00010ccc  ac220000	sw	(r1),r2
18737  00010cd0  0c0018a8	jal	_printf
18738  00010cd4  54000000	nop; delay slot nop
18739  00010cd8  23bd0008	addi	r29,r29,#8
18740  00010cdc          	L140_LF6:
18741  00010cdc  23bdfff8	addi	r29,r29,#-8
18742  00010ce0  001d0820	add	r1,r0,r29
18743  00010ce4  8fc2000c	lw	r2,12(r30)
18744  00010ce8  ac220000	sw	(r1),r2
18745  00010cec  8fc20008	lw	r2,8(r30)
18746  00010cf0  30430040	andi	r3,r2,#64
18747  00010cf4  ac230004	sw	4(r1),r3
18748  00010cf8  0fffeb3c	jal	_TrapPrintfHandler_LF6
18749  00010cfc  54000000	nop; delay slot nop
18750  00010d00  23bd0008	addi	r29,r29,#8
18751  00010d04  080009cc	j	L124_LF6
18752  00010d08  54000000	nop; delay slot nop
18753  00010d0c          	L141_LF6:
18754  00010d0c  8fc20008	lw	r2,8(r30)
18755  00010d10  30410040	andi	r1,r2,#64
18756  00010d14  64220000	snei	r2,r1,#0
18757  00010d18  10400028	beqz	r2,L142_LF6
18758  00010d1c  54000000	nop; delay slot nop
18759  00010d20  8fc1000c	lw	r1,12(r30)
18760  00010d24  8c220000	lw	r2,(r1)
18761  00010d28  afc2ffe0	sw	-32(r30),r2
18762  00010d2c  8fc2000c	lw	r2,12(r30)
18763  00010d30  20410004	addi	r1,r2,#4
18764  00010d34  8c220000	lw	r2,(r1)
18765  00010d38  afc2ffe4	sw	-28(r30),r2
18766  00010d3c  0800008c	j	L143_LF6
18767  00010d40  54000000	nop; delay slot nop
18768  00010d44          	L142_LF6:
18769  00010d44  23bdfff0	addi	r29,r29,#-16
18770  00010d48  001d0820	add	r1,r0,r29
18771  00010d4c  3c020001	lhi	r2,((_currentPCB)>>16)&0xffff
18772  00010d50  24426294	addui	r2,r2,(_currentPCB)&0xffff
18773  00010d54  8c430000	lw	r3,(r2)
18774  00010d58  ac230000	sw	(r1),r3
18775  00010d5c  8fc2000c	lw	r2,12(r30)
18776  00010d60  ac220004	sw	4(r1),r2
18777  00010d64  23c2ffe0	addi	r2,r30,#-32
18778  00010d68  ac220008	sw	8(r1),r2
18779  00010d6c  20020008	addi	r2,r0,#8
18780  00010d70  ac22000c	sw	12(r1),r2
18781  00010d74  0fff25e0	jal	_MemoryCopyUserToSystem
18782  00010d78  54000000	nop; delay slot nop
18783  00010d7c  23bd0010	addi	r29,r29,#16
18784  00010d80  23bdfff0	addi	r29,r29,#-16
18785  00010d84  001d0820	add	r1,r0,r29
18786  00010d88  3c020001	lhi	r2,((_currentPCB)>>16)&0xffff
18787  00010d8c  24426294	addui	r2,r2,(_currentPCB)&0xffff
18788  00010d90  8c430000	lw	r3,(r2)
18789  00010d94  ac230000	sw	(r1),r3
18790  00010d98  8fc2ffe0	lw	r2,-32(r30)
18791  00010d9c  ac220004	sw	4(r1),r2
18792  00010da0  23c2ffb0	addi	r2,r30,#-80
18793  00010da4  ac220008	sw	8(r1),r2
18794  00010da8  2002001f	addi	r2,r0,#31
18795  00010dac  ac22000c	sw	12(r1),r2
18796  00010db0  0fff25a4	jal	_MemoryCopyUserToSystem
18797  00010db4  54000000	nop; delay slot nop
18798  00010db8  23bd0010	addi	r29,r29,#16
18799  00010dbc  20010000	addi	r1,r0,(#0x0)&0xff
18800  00010dc0  a3c1ffcf	sb	-49(r30),r1
18801  00010dc4  23c1ffb0	addi	r1,r30,#-80
18802  00010dc8  afc1ffe0	sw	-32(r30),r1
18803  00010dcc          	L143_LF6:
18804  00010dcc  001d1020	add	r2,r0,r29
18805  00010dd0  0c000e90	jal	_EnableIntrs
18806  00010dd4  54000000	nop; delay slot nop
18807  00010dd8  afc1ffdc	sw	-36(r30),r1
18808  00010ddc  23bdfff8	addi	r29,r29,#-8
18809  00010de0  001d0820	add	r1,r0,r29
18810  00010de4  3c020001	lhi	r2,((_currentPCB)>>16)&0xffff
18811  00010de8  24426294	addui	r2,r2,(_currentPCB)&0xffff
18812  00010dec  8c430000	lw	r3,(r2)
18813  00010df0  ac230000	sw	(r1),r3
18814  00010df4  8fc2ffe4	lw	r2,-28(r30)
18815  00010df8  3c050001	lhi	r5,#1
18816  00010dfc  24a50000	addui	r5,r5,#0
18817  00010e00  00451820	add	r3,r2,r5
18818  00010e04  ac230004	sw	4(r1),r3
18819  00010e08  0fff47f8	jal	_ProcessSetResult
18820  00010e0c  54000000	nop; delay slot nop
18821  00010e10  23bd0008	addi	r29,r29,#8
18822  00010e14  23bdfff0	addi	r29,r29,#-16
18823  00010e18  001d0820	add	r1,r0,r29
18824  00010e1c  3c020002	lhi	r2,((LC18_LF6)>>16)&0xffff
18825  00010e20  2442230c	addui	r2,r2,(LC18_LF6)&0xffff
18826  00010e24  ac220000	sw	(r1),r2
18827  00010e28  8fc2ffe0	lw	r2,-32(r30)
18828  00010e2c  ac220004	sw	4(r1),r2
18829  00010e30  8fc2ffe4	lw	r2,-28(r30)
18830  00010e34  ac220008	sw	8(r1),r2
18831  00010e38  0c001740	jal	_printf
18832  00010e3c  54000000	nop; delay slot nop
18833  00010e40  23bd0010	addi	r29,r29,#16
18834  00010e44  23bdfff8	addi	r29,r29,#-8
18835  00010e48  001d0820	add	r1,r0,r29
18836  00010e4c  8fc2ffdc	lw	r2,-36(r30)
18837  00010e50  ac220000	sw	(r1),r2
18838  00010e54  0c000e64	jal	_RestoreIntrs
18839  00010e58  54000000	nop; delay slot nop
18840  00010e5c  23bd0008	addi	r29,r29,#8
18841  00010e60  08000870	j	L124_LF6
18842  00010e64  54000000	nop; delay slot nop
18843  00010e68          	L144_LF6:
18844  00010e68  001d1020	add	r2,r0,r29
18845  00010e6c  0c000df4	jal	_EnableIntrs
18846  00010e70  54000000	nop; delay slot nop
18847  00010e74  afc1ffdc	sw	-36(r30),r1
18848  00010e78  23bdfff8	addi	r29,r29,#-8
18849  00010e7c  001d0820	add	r1,r0,r29
18850  00010e80  3c020001	lhi	r2,((_currentPCB)>>16)&0xffff
18851  00010e84  24426294	addui	r2,r2,(_currentPCB)&0xffff
18852  00010e88  8c430000	lw	r3,(r2)
18853  00010e8c  ac230000	sw	(r1),r3
18854  00010e90  2002ffff	addi	r2,r0,#-1
18855  00010e94  ac220004	sw	4(r1),r2
18856  00010e98  0fff4768	jal	_ProcessSetResult
18857  00010e9c  54000000	nop; delay slot nop
18858  00010ea0  23bd0008	addi	r29,r29,#8
18859  00010ea4  23bdfff8	addi	r29,r29,#-8
18860  00010ea8  001d0820	add	r1,r0,r29
18861  00010eac  8fc2ffdc	lw	r2,-36(r30)
18862  00010eb0  ac220000	sw	(r1),r2
18863  00010eb4  0c000e04	jal	_RestoreIntrs
18864  00010eb8  54000000	nop; delay slot nop
18865  00010ebc  23bd0008	addi	r29,r29,#8
18866  00010ec0  08000810	j	L124_LF6
18867  00010ec4  54000000	nop; delay slot nop
18868  00010ec8          	L145_LF6:
18869  00010ec8  001d1020	add	r2,r0,r29
18870  00010ecc  0c000d94	jal	_EnableIntrs
18871  00010ed0  54000000	nop; delay slot nop
18872  00010ed4  afc1ffdc	sw	-36(r30),r1
18873  00010ed8  23bdfff8	addi	r29,r29,#-8
18874  00010edc  001d0820	add	r1,r0,r29
18875  00010ee0  3c020001	lhi	r2,((_currentPCB)>>16)&0xffff
18876  00010ee4  24426294	addui	r2,r2,(_currentPCB)&0xffff
18877  00010ee8  8c430000	lw	r3,(r2)
18878  00010eec  ac230000	sw	(r1),r3
18879  00010ef0  2002ffff	addi	r2,r0,#-1
18880  00010ef4  ac220004	sw	4(r1),r2
18881  00010ef8  0fff4708	jal	_ProcessSetResult
18882  00010efc  54000000	nop; delay slot nop
18883  00010f00  23bd0008	addi	r29,r29,#8
18884  00010f04  23bdfff8	addi	r29,r29,#-8
18885  00010f08  001d0820	add	r1,r0,r29
18886  00010f0c  8fc2ffdc	lw	r2,-36(r30)
18887  00010f10  ac220000	sw	(r1),r2
18888  00010f14  0c000da4	jal	_RestoreIntrs
18889  00010f18  54000000	nop; delay slot nop
18890  00010f1c  23bd0008	addi	r29,r29,#8
18891  00010f20  080007b0	j	L124_LF6
18892  00010f24  54000000	nop; delay slot nop
18893  00010f28          	L146_LF6:
18894  00010f28  001d1020	add	r2,r0,r29
18895  00010f2c  0c000d34	jal	_EnableIntrs
18896  00010f30  54000000	nop; delay slot nop
18897  00010f34  afc1ffdc	sw	-36(r30),r1
18898  00010f38  23bdfff8	addi	r29,r29,#-8
18899  00010f3c  001d0820	add	r1,r0,r29
18900  00010f40  3c020001	lhi	r2,((_currentPCB)>>16)&0xffff
18901  00010f44  24426294	addui	r2,r2,(_currentPCB)&0xffff
18902  00010f48  8c430000	lw	r3,(r2)
18903  00010f4c  ac230000	sw	(r1),r3
18904  00010f50  2002ffff	addi	r2,r0,#-1
18905  00010f54  ac220004	sw	4(r1),r2
18906  00010f58  0fff46a8	jal	_ProcessSetResult
18907  00010f5c  54000000	nop; delay slot nop
18908  00010f60  23bd0008	addi	r29,r29,#8
18909  00010f64  23bdfff8	addi	r29,r29,#-8
18910  00010f68  001d0820	add	r1,r0,r29
18911  00010f6c  8fc2ffdc	lw	r2,-36(r30)
18912  00010f70  ac220000	sw	(r1),r2
18913  00010f74  0c000d44	jal	_RestoreIntrs
18914  00010f78  54000000	nop; delay slot nop
18915  00010f7c  23bd0008	addi	r29,r29,#8
18916  00010f80  08000750	j	L124_LF6
18917  00010f84  54000000	nop; delay slot nop
18918  00010f88          	L147_LF6:
18919  00010f88  001d1020	add	r2,r0,r29
18920  00010f8c  0c000cd4	jal	_EnableIntrs
18921  00010f90  54000000	nop; delay slot nop
18922  00010f94  afc1ffdc	sw	-36(r30),r1
18923  00010f98  23bdfff8	addi	r29,r29,#-8
18924  00010f9c  001d0820	add	r1,r0,r29
18925  00010fa0  3c020001	lhi	r2,((_currentPCB)>>16)&0xffff
18926  00010fa4  24426294	addui	r2,r2,(_currentPCB)&0xffff
18927  00010fa8  8c430000	lw	r3,(r2)
18928  00010fac  ac230000	sw	(r1),r3
18929  00010fb0  2002ffff	addi	r2,r0,#-1
18930  00010fb4  ac220004	sw	4(r1),r2
18931  00010fb8  0fff4648	jal	_ProcessSetResult
18932  00010fbc  54000000	nop; delay slot nop
18933  00010fc0  23bd0008	addi	r29,r29,#8
18934  00010fc4  23bdfff8	addi	r29,r29,#-8
18935  00010fc8  001d0820	add	r1,r0,r29
18936  00010fcc  8fc2ffdc	lw	r2,-36(r30)
18937  00010fd0  ac220000	sw	(r1),r2
18938  00010fd4  0c000ce4	jal	_RestoreIntrs
18939  00010fd8  54000000	nop; delay slot nop
18940  00010fdc  23bd0008	addi	r29,r29,#8
18941  00010fe0  080006f0	j	L124_LF6
18942  00010fe4  54000000	nop; delay slot nop
18943  00010fe8          	L148_LF6:
18944  00010fe8  001d1020	add	r2,r0,r29
18945  00010fec  0c000c74	jal	_EnableIntrs
18946  00010ff0  54000000	nop; delay slot nop
18947  00010ff4  afc1ffdc	sw	-36(r30),r1
18948  00010ff8  23bdfff8	addi	r29,r29,#-8
18949  00010ffc  001d0820	add	r1,r0,r29
18950  00011000  3c020001	lhi	r2,((_currentPCB)>>16)&0xffff
18951  00011004  24426294	addui	r2,r2,(_currentPCB)&0xffff
18952  00011008  8c430000	lw	r3,(r2)
18953  0001100c  ac230000	sw	(r1),r3
18954  00011010  2002ffff	addi	r2,r0,#-1
18955  00011014  ac220004	sw	4(r1),r2
18956  00011018  0fff45e8	jal	_ProcessSetResult
18957  0001101c  54000000	nop; delay slot nop
18958  00011020  23bd0008	addi	r29,r29,#8
18959  00011024  23bdfff8	addi	r29,r29,#-8
18960  00011028  001d0820	add	r1,r0,r29
18961  0001102c  8fc2ffdc	lw	r2,-36(r30)
18962  00011030  ac220000	sw	(r1),r2
18963  00011034  0c000c84	jal	_RestoreIntrs
18964  00011038  54000000	nop; delay slot nop
18965  0001103c  23bd0008	addi	r29,r29,#8
18966  00011040  08000690	j	L124_LF6
18967  00011044  54000000	nop; delay slot nop
18968  00011048          	L149_LF6:
18969  00011048  001d1020	add	r2,r0,r29
18970  0001104c  0fff86d0	jal	_GetCurrentPid
18971  00011050  54000000	nop; delay slot nop
18972  00011054  23bdfff8	addi	r29,r29,#-8
18973  00011058  001d1020	add	r2,r0,r29
18974  0001105c  3c030001	lhi	r3,((_currentPCB)>>16)&0xffff
18975  00011060  24636294	addui	r3,r3,(_currentPCB)&0xffff
18976  00011064  8c640000	lw	r4,(r3)
18977  00011068  ac440000	sw	(r2),r4
18978  0001106c  ac410004	sw	4(r2),r1
18979  00011070  0fff4590	jal	_ProcessSetResult
18980  00011074  54000000	nop; delay slot nop
18981  00011078  23bd0008	addi	r29,r29,#8
18982  0001107c  08000654	j	L124_LF6
18983  00011080  54000000	nop; delay slot nop
18984  00011084          	L150_LF6:
18985  00011084  23bdfff8	addi	r29,r29,#-8
18986  00011088  001d0820	add	r1,r0,r29
18987  0001108c  8fc2000c	lw	r2,12(r30)
18988  00011090  ac220000	sw	(r1),r2
18989  00011094  8fc20008	lw	r2,8(r30)
18990  00011098  30430040	andi	r3,r2,#64
18991  0001109c  ac230004	sw	4(r1),r3
18992  000110a0  0fffdea4	jal	_TrapProcessCreateHandler_LF6
18993  000110a4  54000000	nop; delay slot nop
18994  000110a8  23bd0008	addi	r29,r29,#8
18995  000110ac  08000624	j	L124_LF6
18996  000110b0  54000000	nop; delay slot nop
18997  000110b4          	L151_LF6:
18998  000110b4  23bdfff8	addi	r29,r29,#-8
18999  000110b8  001d0820	add	r1,r0,r29
19000  000110bc  8fc2000c	lw	r2,12(r30)
19001  000110c0  ac220000	sw	(r1),r2
19002  000110c4  8fc20008	lw	r2,8(r30)
19003  000110c8  30430040	andi	r3,r2,#64
19004  000110cc  ac230004	sw	4(r1),r3
19005  000110d0  0fffddb4	jal	_GetIntFromTrapArg_LF6
19006  000110d4  54000000	nop; delay slot nop
19007  000110d8  23bd0008	addi	r29,r29,#8
19008  000110dc  afc1ffd4	sw	-44(r30),r1
19009  000110e0  23bdfff8	addi	r29,r29,#-8
19010  000110e4  001d0820	add	r1,r0,r29
19011  000110e8  8fc2ffd4	lw	r2,-44(r30)
19012  000110ec  ac220000	sw	(r1),r2
19013  000110f0  0fffa884	jal	_SemCreate
19014  000110f4  54000000	nop; delay slot nop
19015  000110f8  23bd0008	addi	r29,r29,#8
19016  000110fc  afc1ffd4	sw	-44(r30),r1
19017  00011100  23bdfff8	addi	r29,r29,#-8
19018  00011104  001d0820	add	r1,r0,r29
19019  00011108  3c020001	lhi	r2,((_currentPCB)>>16)&0xffff
19020  0001110c  24426294	addui	r2,r2,(_currentPCB)&0xffff
19021  00011110  8c430000	lw	r3,(r2)
19022  00011114  ac230000	sw	(r1),r3
19023  00011118  8fc2ffd4	lw	r2,-44(r30)
19024  0001111c  ac220004	sw	4(r1),r2
19025  00011120  0fff44e0	jal	_ProcessSetResult
19026  00011124  54000000	nop; delay slot nop
19027  00011128  23bd0008	addi	r29,r29,#8
19028  0001112c  080005a4	j	L124_LF6
19029  00011130  54000000	nop; delay slot nop
19030  00011134          	L152_LF6:
19031  00011134  23bdfff8	addi	r29,r29,#-8
19032  00011138  001d0820	add	r1,r0,r29
19033  0001113c  8fc2000c	lw	r2,12(r30)
19034  00011140  ac220000	sw	(r1),r2
19035  00011144  8fc20008	lw	r2,8(r30)
19036  00011148  30430040	andi	r3,r2,#64
19037  0001114c  ac230004	sw	4(r1),r3
19038  00011150  0fffdd34	jal	_GetIntFromTrapArg_LF6
19039  00011154  54000000	nop; delay slot nop
19040  00011158  23bd0008	addi	r29,r29,#8
19041  0001115c  afc1ffd4	sw	-44(r30),r1
19042  00011160  23bdfff8	addi	r29,r29,#-8
19043  00011164  001d0820	add	r1,r0,r29
19044  00011168  8fc2ffd4	lw	r2,-44(r30)
19045  0001116c  ac220000	sw	(r1),r2
19046  00011170  0fffaf18	jal	_SemHandleWait
19047  00011174  54000000	nop; delay slot nop
19048  00011178  23bd0008	addi	r29,r29,#8
19049  0001117c  afc1ffd8	sw	-40(r30),r1
19050  00011180  23bdfff8	addi	r29,r29,#-8
19051  00011184  001d0820	add	r1,r0,r29
19052  00011188  3c020001	lhi	r2,((_currentPCB)>>16)&0xffff
19053  0001118c  24426294	addui	r2,r2,(_currentPCB)&0xffff
19054  00011190  8c430000	lw	r3,(r2)
19055  00011194  ac230000	sw	(r1),r3
19056  00011198  8fc2ffd8	lw	r2,-40(r30)
19057  0001119c  ac220004	sw	4(r1),r2
19058  000111a0  0fff4460	jal	_ProcessSetResult
19059  000111a4  54000000	nop; delay slot nop
19060  000111a8  23bd0008	addi	r29,r29,#8
19061  000111ac  08000524	j	L124_LF6
19062  000111b0  54000000	nop; delay slot nop
19063  000111b4          	L153_LF6:
19064  000111b4  23bdfff8	addi	r29,r29,#-8
19065  000111b8  001d0820	add	r1,r0,r29
19066  000111bc  8fc2000c	lw	r2,12(r30)
19067  000111c0  ac220000	sw	(r1),r2
19068  000111c4  8fc20008	lw	r2,8(r30)
19069  000111c8  30430040	andi	r3,r2,#64
19070  000111cc  ac230004	sw	4(r1),r3
19071  000111d0  0fffdcb4	jal	_GetIntFromTrapArg_LF6
19072  000111d4  54000000	nop; delay slot nop
19073  000111d8  23bd0008	addi	r29,r29,#8
19074  000111dc  afc1ffd4	sw	-44(r30),r1
19075  000111e0  23bdfff8	addi	r29,r29,#-8
19076  000111e4  001d0820	add	r1,r0,r29
19077  000111e8  8fc2ffd4	lw	r2,-44(r30)
19078  000111ec  ac220000	sw	(r1),r2
19079  000111f0  0fffb37c	jal	_SemHandleSignal
19080  000111f4  54000000	nop; delay slot nop
19081  000111f8  23bd0008	addi	r29,r29,#8
19082  000111fc  afc1ffd8	sw	-40(r30),r1
19083  00011200  23bdfff8	addi	r29,r29,#-8
19084  00011204  001d0820	add	r1,r0,r29
19085  00011208  3c020001	lhi	r2,((_currentPCB)>>16)&0xffff
19086  0001120c  24426294	addui	r2,r2,(_currentPCB)&0xffff
19087  00011210  8c430000	lw	r3,(r2)
19088  00011214  ac230000	sw	(r1),r3
19089  00011218  8fc2ffd8	lw	r2,-40(r30)
19090  0001121c  ac220004	sw	4(r1),r2
19091  00011220  0fff43e0	jal	_ProcessSetResult
19092  00011224  54000000	nop; delay slot nop
19093  00011228  23bd0008	addi	r29,r29,#8
19094  0001122c  080004a4	j	L124_LF6
19095  00011230  54000000	nop; delay slot nop
19096  00011234          	L154_LF6:
19097  00011234  23bdfff8	addi	r29,r29,#-8
19098  00011238  001d0820	add	r1,r0,r29
19099  0001123c  8fc2000c	lw	r2,12(r30)
19100  00011240  ac220000	sw	(r1),r2
19101  00011244  8fc20008	lw	r2,8(r30)
19102  00011248  30430040	andi	r3,r2,#64
19103  0001124c  ac230004	sw	4(r1),r3
19104  00011250  0fffdc34	jal	_GetIntFromTrapArg_LF6
19105  00011254  54000000	nop; delay slot nop
19106  00011258  23bd0008	addi	r29,r29,#8
19107  0001125c  afc1ffd4	sw	-44(r30),r1
19108  00011260  23bdfff8	addi	r29,r29,#-8
19109  00011264  001d0820	add	r1,r0,r29
19110  00011268  3c020001	lhi	r2,((_currentPCB)>>16)&0xffff
19111  0001126c  24426294	addui	r2,r2,(_currentPCB)&0xffff
19112  00011270  8c430000	lw	r3,(r2)
19113  00011274  ac230000	sw	(r1),r3
19114  00011278  8fc2ffd4	lw	r2,-44(r30)
19115  0001127c  ac220004	sw	4(r1),r2
19116  00011280  0fff2a94	jal	_malloc
19117  00011284  54000000	nop; delay slot nop
19118  00011288  23bd0008	addi	r29,r29,#8
19119  0001128c  afc1ffd4	sw	-44(r30),r1
19120  00011290  23bdfff8	addi	r29,r29,#-8
19121  00011294  001d0820	add	r1,r0,r29
19122  00011298  3c020001	lhi	r2,((_currentPCB)>>16)&0xffff
19123  0001129c  24426294	addui	r2,r2,(_currentPCB)&0xffff
19124  000112a0  8c430000	lw	r3,(r2)
19125  000112a4  ac230000	sw	(r1),r3
19126  000112a8  8fc2ffd4	lw	r2,-44(r30)
19127  000112ac  ac220004	sw	4(r1),r2
19128  000112b0  0fff4350	jal	_ProcessSetResult
19129  000112b4  54000000	nop; delay slot nop
19130  000112b8  23bd0008	addi	r29,r29,#8
19131  000112bc  08000414	j	L124_LF6
19132  000112c0  54000000	nop; delay slot nop
19133  000112c4          	L155_LF6:
19134  000112c4  23bdfff8	addi	r29,r29,#-8
19135  000112c8  001d0820	add	r1,r0,r29
19136  000112cc  8fc2000c	lw	r2,12(r30)
19137  000112d0  ac220000	sw	(r1),r2
19138  000112d4  8fc20008	lw	r2,8(r30)
19139  000112d8  30430040	andi	r3,r2,#64
19140  000112dc  ac230004	sw	4(r1),r3
19141  000112e0  0fffdba4	jal	_GetIntFromTrapArg_LF6
19142  000112e4  54000000	nop; delay slot nop
19143  000112e8  23bd0008	addi	r29,r29,#8
19144  000112ec  afc1ffd4	sw	-44(r30),r1
19145  000112f0  23bdfff8	addi	r29,r29,#-8
19146  000112f4  001d0820	add	r1,r0,r29
19147  000112f8  3c020001	lhi	r2,((_currentPCB)>>16)&0xffff
19148  000112fc  24426294	addui	r2,r2,(_currentPCB)&0xffff
19149  00011300  8c430000	lw	r3,(r2)
19150  00011304  ac230000	sw	(r1),r3
19151  00011308  8fc2ffd4	lw	r2,-44(r30)
19152  0001130c  ac220004	sw	4(r1),r2
19153  00011310  0fff2a34	jal	_mfree
19154  00011314  54000000	nop; delay slot nop
19155  00011318  23bd0008	addi	r29,r29,#8
19156  0001131c  afc1ffd4	sw	-44(r30),r1
19157  00011320  23bdfff8	addi	r29,r29,#-8
19158  00011324  001d0820	add	r1,r0,r29
19159  00011328  3c020001	lhi	r2,((_currentPCB)>>16)&0xffff
19160  0001132c  24426294	addui	r2,r2,(_currentPCB)&0xffff
19161  00011330  8c430000	lw	r3,(r2)
19162  00011334  ac230000	sw	(r1),r3
19163  00011338  8fc2ffd4	lw	r2,-44(r30)
19164  0001133c  ac220004	sw	4(r1),r2
19165  00011340  0fff42c0	jal	_ProcessSetResult
19166  00011344  54000000	nop; delay slot nop
19167  00011348  23bd0008	addi	r29,r29,#8
19168  0001134c  08000384	j	L124_LF6
19169  00011350  54000000	nop; delay slot nop
19170  00011354          	L156_LF6:
19171  00011354  001d1020	add	r2,r0,r29
19172  00011358  0fffb314	jal	_LockCreate
19173  0001135c  54000000	nop; delay slot nop
19174  00011360  afc1ffd4	sw	-44(r30),r1
19175  00011364  23bdfff8	addi	r29,r29,#-8
19176  00011368  001d0820	add	r1,r0,r29
19177  0001136c  3c020001	lhi	r2,((_currentPCB)>>16)&0xffff
19178  00011370  24426294	addui	r2,r2,(_currentPCB)&0xffff
19179  00011374  8c430000	lw	r3,(r2)
19180  00011378  ac230000	sw	(r1),r3
19181  0001137c  8fc2ffd4	lw	r2,-44(r30)
19182  00011380  ac220004	sw	4(r1),r2
19183  00011384  0fff427c	jal	_ProcessSetResult
19184  00011388  54000000	nop; delay slot nop
19185  0001138c  23bd0008	addi	r29,r29,#8
19186  00011390  08000340	j	L124_LF6
19187  00011394  54000000	nop; delay slot nop
19188  00011398          	L157_LF6:
19189  00011398  23bdfff8	addi	r29,r29,#-8
19190  0001139c  001d0820	add	r1,r0,r29
19191  000113a0  8fc2000c	lw	r2,12(r30)
19192  000113a4  ac220000	sw	(r1),r2
19193  000113a8  8fc20008	lw	r2,8(r30)
19194  000113ac  30430040	andi	r3,r2,#64
19195  000113b0  ac230004	sw	4(r1),r3
19196  000113b4  0fffdad0	jal	_GetIntFromTrapArg_LF6
19197  000113b8  54000000	nop; delay slot nop
19198  000113bc  23bd0008	addi	r29,r29,#8
19199  000113c0  afc1ffd4	sw	-44(r30),r1
19200  000113c4  23bdfff8	addi	r29,r29,#-8
19201  000113c8  001d0820	add	r1,r0,r29
19202  000113cc  8fc2ffd4	lw	r2,-44(r30)
19203  000113d0  ac220000	sw	(r1),r2
19204  000113d4  0fffbb58	jal	_LockHandleAcquire
19205  000113d8  54000000	nop; delay slot nop
19206  000113dc  23bd0008	addi	r29,r29,#8
19207  000113e0  afc1ffd8	sw	-40(r30),r1
19208  000113e4  23bdfff8	addi	r29,r29,#-8
19209  000113e8  001d0820	add	r1,r0,r29
19210  000113ec  3c020001	lhi	r2,((_currentPCB)>>16)&0xffff
19211  000113f0  24426294	addui	r2,r2,(_currentPCB)&0xffff
19212  000113f4  8c430000	lw	r3,(r2)
19213  000113f8  ac230000	sw	(r1),r3
19214  000113fc  8fc2ffd8	lw	r2,-40(r30)
19215  00011400  ac220004	sw	4(r1),r2
19216  00011404  0fff41fc	jal	_ProcessSetResult
19217  00011408  54000000	nop; delay slot nop
19218  0001140c  23bd0008	addi	r29,r29,#8
19219  00011410  080002c0	j	L124_LF6
19220  00011414  54000000	nop; delay slot nop
19221  00011418          	L158_LF6:
19222  00011418  23bdfff8	addi	r29,r29,#-8
19223  0001141c  001d0820	add	r1,r0,r29
19224  00011420  8fc2000c	lw	r2,12(r30)
19225  00011424  ac220000	sw	(r1),r2
19226  00011428  8fc20008	lw	r2,8(r30)
19227  0001142c  30430040	andi	r3,r2,#64
19228  00011430  ac230004	sw	4(r1),r3
19229  00011434  0fffda50	jal	_GetIntFromTrapArg_LF6
19230  00011438  54000000	nop; delay slot nop
19231  0001143c  23bd0008	addi	r29,r29,#8
19232  00011440  afc1ffd4	sw	-44(r30),r1
19233  00011444  23bdfff8	addi	r29,r29,#-8
19234  00011448  001d0820	add	r1,r0,r29
19235  0001144c  8fc2ffd4	lw	r2,-44(r30)
19236  00011450  ac220000	sw	(r1),r2
19237  00011454  0fffc0ec	jal	_LockHandleRelease
19238  00011458  54000000	nop; delay slot nop
19239  0001145c  23bd0008	addi	r29,r29,#8
19240  00011460  afc1ffd8	sw	-40(r30),r1
19241  00011464  23bdfff8	addi	r29,r29,#-8
19242  00011468  001d0820	add	r1,r0,r29
19243  0001146c  3c020001	lhi	r2,((_currentPCB)>>16)&0xffff
19244  00011470  24426294	addui	r2,r2,(_currentPCB)&0xffff
19245  00011474  8c430000	lw	r3,(r2)
19246  00011478  ac230000	sw	(r1),r3
19247  0001147c  8fc2ffd8	lw	r2,-40(r30)
19248  00011480  ac220004	sw	4(r1),r2
19249  00011484  0fff417c	jal	_ProcessSetResult
19250  00011488  54000000	nop; delay slot nop
19251  0001148c  23bd0008	addi	r29,r29,#8
19252  00011490  08000240	j	L124_LF6
19253  00011494  54000000	nop; delay slot nop
19254  00011498          	L159_LF6:
19255  00011498  23bdfff8	addi	r29,r29,#-8
19256  0001149c  001d0820	add	r1,r0,r29
19257  000114a0  8fc2000c	lw	r2,12(r30)
19258  000114a4  ac220000	sw	(r1),r2
19259  000114a8  8fc20008	lw	r2,8(r30)
19260  000114ac  30430040	andi	r3,r2,#64
19261  000114b0  ac230004	sw	4(r1),r3
19262  000114b4  0fffd9d0	jal	_GetIntFromTrapArg_LF6
19263  000114b8  54000000	nop; delay slot nop
19264  000114bc  23bd0008	addi	r29,r29,#8
19265  000114c0  afc1ffd4	sw	-44(r30),r1
19266  000114c4  23bdfff8	addi	r29,r29,#-8
19267  000114c8  001d0820	add	r1,r0,r29
19268  000114cc  8fc2ffd4	lw	r2,-44(r30)
19269  000114d0  ac220000	sw	(r1),r2
19270  000114d4  0fffc16c	jal	_CondCreate
19271  000114d8  54000000	nop; delay slot nop
19272  000114dc  23bd0008	addi	r29,r29,#8
19273  000114e0  afc1ffd4	sw	-44(r30),r1
19274  000114e4  23bdfff8	addi	r29,r29,#-8
19275  000114e8  001d0820	add	r1,r0,r29
19276  000114ec  3c020001	lhi	r2,((_currentPCB)>>16)&0xffff
19277  000114f0  24426294	addui	r2,r2,(_currentPCB)&0xffff
19278  000114f4  8c430000	lw	r3,(r2)
19279  000114f8  ac230000	sw	(r1),r3
19280  000114fc  8fc2ffd4	lw	r2,-44(r30)
19281  00011500  ac220004	sw	4(r1),r2
19282  00011504  0fff40fc	jal	_ProcessSetResult
19283  00011508  54000000	nop; delay slot nop
19284  0001150c  23bd0008	addi	r29,r29,#8
19285  00011510  080001c0	j	L124_LF6
19286  00011514  54000000	nop; delay slot nop
19287  00011518          	L160_LF6:
19288  00011518  23bdfff8	addi	r29,r29,#-8
19289  0001151c  001d0820	add	r1,r0,r29
19290  00011520  8fc2000c	lw	r2,12(r30)
19291  00011524  ac220000	sw	(r1),r2
19292  00011528  8fc20008	lw	r2,8(r30)
19293  0001152c  30430040	andi	r3,r2,#64
19294  00011530  ac230004	sw	4(r1),r3
19295  00011534  0fffd950	jal	_GetIntFromTrapArg_LF6
19296  00011538  54000000	nop; delay slot nop
19297  0001153c  23bd0008	addi	r29,r29,#8
19298  00011540  afc1ffd4	sw	-44(r30),r1
19299  00011544  23bdfff8	addi	r29,r29,#-8
19300  00011548  001d0820	add	r1,r0,r29
19301  0001154c  8fc2ffd4	lw	r2,-44(r30)
19302  00011550  ac220000	sw	(r1),r2
19303  00011554  0fffc884	jal	_CondHandleWait
19304  00011558  54000000	nop; delay slot nop
19305  0001155c  23bd0008	addi	r29,r29,#8
19306  00011560  afc1ffd4	sw	-44(r30),r1
19307  00011564  23bdfff8	addi	r29,r29,#-8
19308  00011568  001d0820	add	r1,r0,r29
19309  0001156c  3c020001	lhi	r2,((_currentPCB)>>16)&0xffff
19310  00011570  24426294	addui	r2,r2,(_currentPCB)&0xffff
19311  00011574  8c430000	lw	r3,(r2)
19312  00011578  ac230000	sw	(r1),r3
19313  0001157c  8fc2ffd4	lw	r2,-44(r30)
19314  00011580  ac220004	sw	4(r1),r2
19315  00011584  0fff407c	jal	_ProcessSetResult
19316  00011588  54000000	nop; delay slot nop
19317  0001158c  23bd0008	addi	r29,r29,#8
19318  00011590  08000140	j	L124_LF6
19319  00011594  54000000	nop; delay slot nop
19320  00011598          	L161_LF6:
19321  00011598  23bdfff8	addi	r29,r29,#-8
19322  0001159c  001d0820	add	r1,r0,r29
19323  000115a0  8fc2000c	lw	r2,12(r30)
19324  000115a4  ac220000	sw	(r1),r2
19325  000115a8  8fc20008	lw	r2,8(r30)
19326  000115ac  30430040	andi	r3,r2,#64
19327  000115b0  ac230004	sw	4(r1),r3
19328  000115b4  0fffd8d0	jal	_GetIntFromTrapArg_LF6
19329  000115b8  54000000	nop; delay slot nop
19330  000115bc  23bd0008	addi	r29,r29,#8
19331  000115c0  afc1ffd4	sw	-44(r30),r1
19332  000115c4  23bdfff8	addi	r29,r29,#-8
19333  000115c8  001d0820	add	r1,r0,r29
19334  000115cc  8fc2ffd4	lw	r2,-44(r30)
19335  000115d0  ac220000	sw	(r1),r2
19336  000115d4  0fffcebc	jal	_CondHandleSignal
19337  000115d8  54000000	nop; delay slot nop
19338  000115dc  23bd0008	addi	r29,r29,#8
19339  000115e0  afc1ffd4	sw	-44(r30),r1
19340  000115e4  23bdfff8	addi	r29,r29,#-8
19341  000115e8  001d0820	add	r1,r0,r29
19342  000115ec  3c020001	lhi	r2,((_currentPCB)>>16)&0xffff
19343  000115f0  24426294	addui	r2,r2,(_currentPCB)&0xffff
19344  000115f4  8c430000	lw	r3,(r2)
19345  000115f8  ac230000	sw	(r1),r3
19346  000115fc  8fc2ffd4	lw	r2,-44(r30)
19347  00011600  ac220004	sw	4(r1),r2
19348  00011604  0fff3ffc	jal	_ProcessSetResult
19349  00011608  54000000	nop; delay slot nop
19350  0001160c  23bd0008	addi	r29,r29,#8
19351  00011610  080000c0	j	L124_LF6
19352  00011614  54000000	nop; delay slot nop
19353  00011618          	L162_LF6:
19354  00011618  23bdfff8	addi	r29,r29,#-8
19355  0001161c  001d0820	add	r1,r0,r29
19356  00011620  8fc2000c	lw	r2,12(r30)
19357  00011624  ac220000	sw	(r1),r2
19358  00011628  8fc20008	lw	r2,8(r30)
19359  0001162c  30430040	andi	r3,r2,#64
19360  00011630  ac230004	sw	4(r1),r3
19361  00011634  0fffd850	jal	_GetIntFromTrapArg_LF6
19362  00011638  54000000	nop; delay slot nop
19363  0001163c  23bd0008	addi	r29,r29,#8
19364  00011640  afc1ffd4	sw	-44(r30),r1
19365  00011644  23bdfff8	addi	r29,r29,#-8
19366  00011648  001d0820	add	r1,r0,r29
19367  0001164c  8fc2ffd4	lw	r2,-44(r30)
19368  00011650  ac220000	sw	(r1),r2
19369  00011654  0fffd3d4	jal	_CondHandleBroadcast
19370  00011658  54000000	nop; delay slot nop
19371  0001165c  23bd0008	addi	r29,r29,#8
19372  00011660  afc1ffd4	sw	-44(r30),r1
19373  00011664  23bdfff8	addi	r29,r29,#-8
19374  00011668  001d0820	add	r1,r0,r29
19375  0001166c  3c020001	lhi	r2,((_currentPCB)>>16)&0xffff
19376  00011670  24426294	addui	r2,r2,(_currentPCB)&0xffff
19377  00011674  8c430000	lw	r3,(r2)
19378  00011678  ac230000	sw	(r1),r3
19379  0001167c  8fc2ffd4	lw	r2,-44(r30)
19380  00011680  ac220004	sw	4(r1),r2
19381  00011684  0fff3f7c	jal	_ProcessSetResult
19382  00011688  54000000	nop; delay slot nop
19383  0001168c  23bd0008	addi	r29,r29,#8
19384  00011690  08000040	j	L124_LF6
19385  00011694  54000000	nop; delay slot nop
19386  00011698          	L163_LF6:
19387  00011698  23bdfff8	addi	r29,r29,#-8
19388  0001169c  001d0820	add	r1,r0,r29
19389  000116a0  3c020002	lhi	r2,((LC19_LF6)>>16)&0xffff
19390  000116a4  24422338	addui	r2,r2,(LC19_LF6)&0xffff
19391  000116a8  ac220000	sw	(r1),r2
19392  000116ac  8fc20000	lw	r2,(r30)
19393  000116b0  ac220004	sw	4(r1),r2
19394  000116b4  0c000ec4	jal	_printf
19395  000116b8  54000000	nop; delay slot nop
19396  000116bc  23bd0008	addi	r29,r29,#8
19397  000116c0  001d1020	add	r2,r0,r29
19398  000116c4  0c000e9c	jal	_exitsim
19399  000116c8  54000000	nop; delay slot nop
19400  000116cc  08000004	j	L124_LF6
19401  000116d0  54000000	nop; delay slot nop
19402  000116d4          	L124_LF6:
19403  000116d4  0800030c	j	L174_LF6
19404  000116d8  54000000	nop; delay slot nop
19405  000116dc          	L123_LF6:
19406  000116dc  8fc10000	lw	r1,(r30)
19407  000116e0  60220003	seqi	r2,r1,#3
19408  000116e4  144001c8	bnez	r2,L185_LF6
19409  000116e8  54000000	nop; delay slot nop
19410  000116ec  6c220003	sgtui	r2,r1,#3
19411  000116f0  14400024	bnez	r2,L191_LF6
19412  000116f4  54000000	nop; delay slot nop
19413  000116f8  60220001	seqi	r2,r1,#1
19414  000116fc  14400238	bnez	r2,L187_LF6
19415  00011700  54000000	nop; delay slot nop
19416  00011704  60220002	seqi	r2,r1,#2
19417  00011708  144001e8	bnez	r2,L186_LF6
19418  0001170c  54000000	nop; delay slot nop
19419  00011710  08000294	j	L189_LF6
19420  00011714  54000000	nop; delay slot nop
19421  00011718          	L191_LF6:
19422  00011718  60220040	seqi	r2,r1,#64
19423  0001171c  14400038	bnez	r2,L176_LF6
19424  00011720  54000000	nop; delay slot nop
19425  00011724  6c220040	sgtui	r2,r1,#64
19426  00011728  14400018	bnez	r2,L192_LF6
19427  0001172c  54000000	nop; delay slot nop
19428  00011730  60220020	seqi	r2,r1,#32
19429  00011734  14400244	bnez	r2,L188_LF6
19430  00011738  54000000	nop; delay slot nop
19431  0001173c  08000268	j	L189_LF6
19432  00011740  54000000	nop; delay slot nop
19433  00011744          	L192_LF6:
19434  00011744  60210048	seqi	r1,r1,#72
19435  00011748  142000e0	bnez	r1,L180_LF6
19436  0001174c  54000000	nop; delay slot nop
19437  00011750  08000254	j	L189_LF6
19438  00011754  54000000	nop; delay slot nop
19439  00011758          	L176_LF6:
19440  00011758  23bdfff8	addi	r29,r29,#-8
19441  0001175c  001d0820	add	r1,r0,r29
19442  00011760  3c020001	lhi	r2,((_debugstr)>>16)&0xffff
19443  00011764  244261cb	addui	r2,r2,(_debugstr)&0xffff
19444  00011768  ac220000	sw	(r1),r2
19445  0001176c  20020074	addi	r2,r0,#116
19446  00011770  ac220004	sw	4(r1),r2
19447  00011774  0fff2cdc	jal	_dindex
19448  00011778  54000000	nop; delay slot nop
19449  0001177c  23bd0008	addi	r29,r29,#8
19450  00011780  64220000	snei	r2,r1,#0
19451  00011784  10400024	beqz	r2,L177_LF6
19452  00011788  54000000	nop; delay slot nop
19453  0001178c  23bdfff8	addi	r29,r29,#-8
19454  00011790  001d0820	add	r1,r0,r29
19455  00011794  3c020002	lhi	r2,((LC20_LF6)>>16)&0xffff
19456  00011798  24422364	addui	r2,r2,(LC20_LF6)&0xffff
19457  0001179c  ac220000	sw	(r1),r2
19458  000117a0  0c000dd8	jal	_printf
19459  000117a4  54000000	nop; delay slot nop
19460  000117a8  23bd0008	addi	r29,r29,#8
19461  000117ac          	L177_LF6:
19462  000117ac  23bdfff8	addi	r29,r29,#-8
19463  000117b0  001d0820	add	r1,r0,r29
19464  000117b4  3c020001	lhi	r2,((_debugstr)>>16)&0xffff
19465  000117b8  244261cb	addui	r2,r2,(_debugstr)&0xffff
19466  000117bc  ac220000	sw	(r1),r2
19467  000117c0  2002002b	addi	r2,r0,#43
19468  000117c4  ac220004	sw	4(r1),r2
19469  000117c8  0fff2c88	jal	_dindex
19470  000117cc  54000000	nop; delay slot nop
19471  000117d0  23bd0008	addi	r29,r29,#8
19472  000117d4  64220000	snei	r2,r1,#0
19473  000117d8  10400024	beqz	r2,L178_LF6
19474  000117dc  54000000	nop; delay slot nop
19475  000117e0  23bdfff8	addi	r29,r29,#-8
19476  000117e4  001d0820	add	r1,r0,r29
19477  000117e8  3c020002	lhi	r2,((LC20_LF6)>>16)&0xffff
19478  000117ec  24422364	addui	r2,r2,(LC20_LF6)&0xffff
19479  000117f0  ac220000	sw	(r1),r2
19480  000117f4  0c000d84	jal	_printf
19481  000117f8  54000000	nop; delay slot nop
19482  000117fc  23bd0008	addi	r29,r29,#8
19483  00011800          	L178_LF6:
19484  00011800  001d1020	add	r2,r0,r29
19485  00011804  0c0006b0	jal	_ClkInterrupt
19486  00011808  54000000	nop; delay slot nop
19487  0001180c  64220000	snei	r2,r1,#0
19488  00011810  10400010	beqz	r2,L179_LF6
19489  00011814  54000000	nop; delay slot nop
19490  00011818  001d1020	add	r2,r0,r29
19491  0001181c  0fff3e24	jal	_ProcessSchedule
19492  00011820  54000000	nop; delay slot nop
19493  00011824          	L179_LF6:
19494  00011824  080001bc	j	L174_LF6
19495  00011828  54000000	nop; delay slot nop
19496  0001182c          	L180_LF6:
19497  0001182c  54000000	nop
19498  00011830          	L181_LF6:
19499  00011830  3c01fff0	lhi	r1,#-16
19500  00011834  242101a0	addui	r1,r1,#416
19501  00011838  8c220000	lw	r2,(r1)
19502  0001183c  afc2fff0	sw	-16(r30),r2
19503  00011840  3c01fff0	lhi	r1,#-16
19504  00011844  24210180	addui	r1,r1,#384
19505  00011848  8c220000	lw	r2,(r1)
19506  0001184c  afc2fff4	sw	-12(r30),r2
19507  00011850  23bdfff0	addi	r29,r29,#-16
19508  00011854  001d0820	add	r1,r0,r29
19509  00011858  3c020002	lhi	r2,((LC21_LF6)>>16)&0xffff
19510  0001185c  2442237c	addui	r2,r2,(LC21_LF6)&0xffff
19511  00011860  ac220000	sw	(r1),r2
19512  00011864  8fc2fff4	lw	r2,-12(r30)
19513  00011868  ac220004	sw	4(r1),r2
19514  0001186c  8fc2fff4	lw	r2,-12(r30)
19515  00011870  ac220008	sw	8(r1),r2
19516  00011874  8fc2fff0	lw	r2,-16(r30)
19517  00011878  ac22000c	sw	12(r1),r2
19518  0001187c  0c000cfc	jal	_printf
19519  00011880  54000000	nop; delay slot nop
19520  00011884  23bd0010	addi	r29,r29,#16
19521  00011888          	L183_LF6:
19522  00011888  8fc1fff0	lw	r1,-16(r30)
19523  0001188c  6c220001	sgti	r2,r1,#1
19524  00011890  1440000c	bnez	r2,L184_LF6
19525  00011894  54000000	nop; delay slot nop
19526  00011898  0800000c	j	L182_LF6
19527  0001189c  54000000	nop; delay slot nop
19528  000118a0          	L184_LF6:
19529  000118a0  0bffff8c	j	L181_LF6
19530  000118a4  54000000	nop; delay slot nop
19531  000118a8          	L182_LF6:
19532  000118a8  08000138	j	L174_LF6
19533  000118ac  54000000	nop; delay slot nop
19534  000118b0          	L185_LF6:
19535  000118b0  23bdfff0	addi	r29,r29,#-16
19536  000118b4  001d0820	add	r1,r0,r29
19537  000118b8  3c020002	lhi	r2,((LC22_LF6)>>16)&0xffff
19538  000118bc  244223b4	addui	r2,r2,(LC22_LF6)&0xffff
19539  000118c0  ac220000	sw	(r1),r2
19540  000118c4  8fc20004	lw	r2,4(r30)
19541  000118c8  ac220004	sw	4(r1),r2
19542  000118cc  8fc20008	lw	r2,8(r30)
19543  000118d0  ac220008	sw	8(r1),r2
19544  000118d4  0c000ca4	jal	_printf
19545  000118d8  54000000	nop; delay slot nop
19546  000118dc  23bd0010	addi	r29,r29,#16
19547  000118e0  001d1020	add	r2,r0,r29
19548  000118e4  0c000c7c	jal	_exitsim
19549  000118e8  54000000	nop; delay slot nop
19550  000118ec  080000f4	j	L174_LF6
19551  000118f0  54000000	nop; delay slot nop
19552  000118f4          	L186_LF6:
19553  000118f4  23bdfff0	addi	r29,r29,#-16
19554  000118f8  001d0820	add	r1,r0,r29
19555  000118fc  3c020002	lhi	r2,((LC23_LF6)>>16)&0xffff
19556  00011900  244223e8	addui	r2,r2,(LC23_LF6)&0xffff
19557  00011904  ac220000	sw	(r1),r2
19558  00011908  8fc20004	lw	r2,4(r30)
19559  0001190c  ac220004	sw	4(r1),r2
19560  00011910  8fc20008	lw	r2,8(r30)
19561  00011914  ac220008	sw	8(r1),r2
19562  00011918  0c000c60	jal	_printf
19563  0001191c  54000000	nop; delay slot nop
19564  00011920  23bd0010	addi	r29,r29,#16
19565  00011924  001d1020	add	r2,r0,r29
19566  00011928  0c000c38	jal	_exitsim
19567  0001192c  54000000	nop; delay slot nop
19568  00011930  080000b0	j	L174_LF6
19569  00011934  54000000	nop; delay slot nop
19570  00011938          	L187_LF6:
19571  00011938  23bdfff0	addi	r29,r29,#-16
19572  0001193c  001d0820	add	r1,r0,r29
19573  00011940  3c020002	lhi	r2,((LC24_LF6)>>16)&0xffff
19574  00011944  24422420	addui	r2,r2,(LC24_LF6)&0xffff
19575  00011948  ac220000	sw	(r1),r2
19576  0001194c  8fc20004	lw	r2,4(r30)
19577  00011950  ac220004	sw	4(r1),r2
19578  00011954  8fc20008	lw	r2,8(r30)
19579  00011958  ac220008	sw	8(r1),r2
19580  0001195c  0c000c1c	jal	_printf
19581  00011960  54000000	nop; delay slot nop
19582  00011964  23bd0010	addi	r29,r29,#16
19583  00011968  001d1020	add	r2,r0,r29
19584  0001196c  0c000bf4	jal	_exitsim
19585  00011970  54000000	nop; delay slot nop
19586  00011974  0800006c	j	L174_LF6
19587  00011978  54000000	nop; delay slot nop
19588  0001197c          	L188_LF6:
19589  0001197c  23bdfff8	addi	r29,r29,#-8
19590  00011980  001d0820	add	r1,r0,r29
19591  00011984  3c020001	lhi	r2,((_currentPCB)>>16)&0xffff
19592  00011988  24426294	addui	r2,r2,(_currentPCB)&0xffff
19593  0001198c  8c430000	lw	r3,(r2)
19594  00011990  ac230000	sw	(r1),r3
19595  00011994  0fff1a38	jal	_MemoryPageFaultHandler
19596  00011998  54000000	nop; delay slot nop
19597  0001199c  23bd0008	addi	r29,r29,#8
19598  000119a0  08000040	j	L174_LF6
19599  000119a4  54000000	nop; delay slot nop
19600  000119a8          	L189_LF6:
19601  000119a8  23bdfff8	addi	r29,r29,#-8
19602  000119ac  001d0820	add	r1,r0,r29
19603  000119b0  3c020002	lhi	r2,((LC25_LF6)>>16)&0xffff
19604  000119b4  2442245c	addui	r2,r2,(LC25_LF6)&0xffff
19605  000119b8  ac220000	sw	(r1),r2
19606  000119bc  8fc20000	lw	r2,(r30)
19607  000119c0  ac220004	sw	4(r1),r2
19608  000119c4  0c000bb4	jal	_printf
19609  000119c8  54000000	nop; delay slot nop
19610  000119cc  23bd0008	addi	r29,r29,#8
19611  000119d0  001d1020	add	r2,r0,r29
19612  000119d4  0c000b8c	jal	_exitsim
19613  000119d8  54000000	nop; delay slot nop
19614  000119dc  08000004	j	L174_LF6
19615  000119e0  54000000	nop; delay slot nop
19616  000119e4          	L175_LF6:
19617  000119e4          	L174_LF6:
19618  000119e4  23bdfff8	addi	r29,r29,#-8
19619  000119e8  001d0820	add	r1,r0,r29
19620  000119ec  3c020001	lhi	r2,((_debugstr)>>16)&0xffff
19621  000119f0  244261cb	addui	r2,r2,(_debugstr)&0xffff
19622  000119f4  ac220000	sw	(r1),r2
19623  000119f8  20020074	addi	r2,r0,#116
19624  000119fc  ac220004	sw	4(r1),r2
19625  00011a00  0fff2a50	jal	_dindex
19626  00011a04  54000000	nop; delay slot nop
19627  00011a08  23bd0008	addi	r29,r29,#8
19628  00011a0c  64220000	snei	r2,r1,#0
19629  00011a10  10400024	beqz	r2,L193_LF6
19630  00011a14  54000000	nop; delay slot nop
19631  00011a18  23bdfff8	addi	r29,r29,#-8
19632  00011a1c  001d0820	add	r1,r0,r29
19633  00011a20  3c020002	lhi	r2,((LC26_LF6)>>16)&0xffff
19634  00011a24  24422494	addui	r2,r2,(LC26_LF6)&0xffff
19635  00011a28  ac220000	sw	(r1),r2
19636  00011a2c  0c000b4c	jal	_printf
19637  00011a30  54000000	nop; delay slot nop
19638  00011a34  23bd0008	addi	r29,r29,#8
19639  00011a38          	L193_LF6:
19640  00011a38  23bdfff8	addi	r29,r29,#-8
19641  00011a3c  001d0820	add	r1,r0,r29
19642  00011a40  3c020001	lhi	r2,((_debugstr)>>16)&0xffff
19643  00011a44  244261cb	addui	r2,r2,(_debugstr)&0xffff
19644  00011a48  ac220000	sw	(r1),r2
19645  00011a4c  2002002b	addi	r2,r0,#43
19646  00011a50  ac220004	sw	4(r1),r2
19647  00011a54  0fff29fc	jal	_dindex
19648  00011a58  54000000	nop; delay slot nop
19649  00011a5c  23bd0008	addi	r29,r29,#8
19650  00011a60  64220000	snei	r2,r1,#0
19651  00011a64  10400024	beqz	r2,L194_LF6
19652  00011a68  54000000	nop; delay slot nop
19653  00011a6c  23bdfff8	addi	r29,r29,#-8
19654  00011a70  001d0820	add	r1,r0,r29
19655  00011a74  3c020002	lhi	r2,((LC26_LF6)>>16)&0xffff
19656  00011a78  24422494	addui	r2,r2,(LC26_LF6)&0xffff
19657  00011a7c  ac220000	sw	(r1),r2
19658  00011a80  0c000af8	jal	_printf
19659  00011a84  54000000	nop; delay slot nop
19660  00011a88  23bd0008	addi	r29,r29,#8
19661  00011a8c          	L194_LF6:
19662  00011a8c  001d1020	add	r2,r0,r29
19663  00011a90  0c0008c8	jal	_intrreturn
19664  00011a94  54000000	nop; delay slot nop
19665  00011a98          	L120_LF6:
19666  00011a98  8fa20000	lw	r2,0(r29)
19667  00011a9c  8fa30004	lw	r3,4(r29)
19668  00011aa0  8fa40008	lw	r4,8(r29)
19669  00011aa4  8fa5000c	lw	r5,12(r29)
19670  00011aa8  8fdffff8	lw	r31,-8(r30)
19671  00011aac  001ee820	add	r29,r0,r30
19672  00011ab0  8fdefffc	lw	r30,-4(r30)
19673  00011ab4  4be00000	jr	r31
19674  00011ab8  54000000	nop
19675  00011abc          	.endproc _dointerrupt
19676                      ; Compiled by GCC
19677                      ; Compiled by GCC
19679  00011abc          	.align 2
19680  00011abc          	.proc _isspace
19681  00011abc          	.global _isspace
19682  00011abc          	_isspace:
19683                      ;  Function 'isspace'; 0 bytes of locals, 3 regs to save.
19684  00011abc  afbefffc	sw	-4(r29),r30; push fp
19685  00011ac0  001df020	add	r30,r0,r29; fp = sp
19686  00011ac4  afbffff8	sw	-8(r29),r31; push ret addr
19687  00011ac8  2fbd0018	subui	r29,r29,#24; alloc local storage
19688  00011acc  afa20000	sw	0(r29),r2
19689  00011ad0  afa30004	sw	4(r29),r3
19690  00011ad4  afa40008	sw	8(r29),r4
19691  00011ad8  83c20003	lb	r2,3(r30)
19692  00011adc  20010000	addi	r1,r0,#0
19693  00011ae0  304300ff	andi	r3,r2,#0x00ff
19694  00011ae4  60640020	seqi	r4,r3,#32
19695  00011ae8  1480002c	bnez	r4,L3_LF8
19696  00011aec  54000000	nop; delay slot nop
19697  00011af0  304300ff	andi	r3,r2,#0x00ff
19698  00011af4  60640009	seqi	r4,r3,#9
19699  00011af8  1480001c	bnez	r4,L3_LF8
19700  00011afc  54000000	nop; delay slot nop
19701  00011b00  304300ff	andi	r3,r2,#0x00ff
19702  00011b04  6064000a	seqi	r4,r3,#10
19703  00011b08  1480000c	bnez	r4,L3_LF8
19704  00011b0c  54000000	nop; delay slot nop
19705  00011b10  08000008	j	L2_LF8
19706  00011b14  54000000	nop; delay slot nop
19707  00011b18          	L3_LF8:
19708  00011b18  20010001	addi	r1,r0,#1
19709  00011b1c          	L2_LF8:
19710  00011b1c  08000004	j	L1_LF8
19711  00011b20  54000000	nop; delay slot nop
19712  00011b24          	L1_LF8:
19713  00011b24  8fa20000	lw	r2,0(r29)
19714  00011b28  8fa30004	lw	r3,4(r29)
19715  00011b2c  8fa40008	lw	r4,8(r29)
19716  00011b30  8fdffff8	lw	r31,-8(r30)
19717  00011b34  001ee820	add	r29,r0,r30
19718  00011b38  8fdefffc	lw	r30,-4(r30)
19719  00011b3c  4be00000	jr	r31
19720  00011b40  54000000	nop
19721  00011b44          	.endproc _isspace
19722  00011b44          	.align 2
19723  00011b44          	.proc _isxdigit
19724  00011b44          	.global _isxdigit
19725  00011b44          	_isxdigit:
19726                      ;  Function 'isxdigit'; 0 bytes of locals, 3 regs to save.
19727  00011b44  afbefffc	sw	-4(r29),r30; push fp
19728  00011b48  001df020	add	r30,r0,r29; fp = sp
19729  00011b4c  afbffff8	sw	-8(r29),r31; push ret addr
19730  00011b50  2fbd0018	subui	r29,r29,#24; alloc local storage
19731  00011b54  afa20000	sw	0(r29),r2
19732  00011b58  afa30004	sw	4(r29),r3
19733  00011b5c  afa40008	sw	8(r29),r4
19734  00011b60  83c20003	lb	r2,3(r30)
19735  00011b64  20010000	addi	r1,r0,#0
19736  00011b68  304300ff	andi	r3,r2,#0x00ff
19737  00011b6c  6c64002f	sgtui	r4,r3,#47
19738  00011b70  1080001c	beqz	r4,L7_LF8
19739  00011b74  54000000	nop; delay slot nop
19740  00011b78  304300ff	andi	r3,r2,#0x00ff
19741  00011b7c  70640039	sleui	r4,r3,#57
19742  00011b80  1480005c	bnez	r4,L6_LF8
19743  00011b84  54000000	nop; delay slot nop
19744  00011b88  08000004	j	L7_LF8
19745  00011b8c  54000000	nop; delay slot nop
19746  00011b90          	L7_LF8:
19747  00011b90  304300ff	andi	r3,r2,#0x00ff
19748  00011b94  6c640060	sgtui	r4,r3,#96
19749  00011b98  1080001c	beqz	r4,L8_LF8
19750  00011b9c  54000000	nop; delay slot nop
19751  00011ba0  304300ff	andi	r3,r2,#0x00ff
19752  00011ba4  70640066	sleui	r4,r3,#102
19753  00011ba8  14800034	bnez	r4,L6_LF8
19754  00011bac  54000000	nop; delay slot nop
19755  00011bb0  08000004	j	L8_LF8
19756  00011bb4  54000000	nop; delay slot nop
19757  00011bb8          	L8_LF8:
19758  00011bb8  304300ff	andi	r3,r2,#0x00ff
19759  00011bbc  6c640040	sgtui	r4,r3,#64
19760  00011bc0  10800020	beqz	r4,L5_LF8
19761  00011bc4  54000000	nop; delay slot nop
19762  00011bc8  304300ff	andi	r3,r2,#0x00ff
19763  00011bcc  70640041	sleui	r4,r3,#65
19764  00011bd0  1480000c	bnez	r4,L6_LF8
19765  00011bd4  54000000	nop; delay slot nop
19766  00011bd8  08000008	j	L5_LF8
19767  00011bdc  54000000	nop; delay slot nop
19768  00011be0          	L6_LF8:
19769  00011be0  20010001	addi	r1,r0,#1
19770  00011be4          	L5_LF8:
19771  00011be4  08000004	j	L4_LF8
19772  00011be8  54000000	nop; delay slot nop
19773  00011bec          	L4_LF8:
19774  00011bec  8fa20000	lw	r2,0(r29)
19775  00011bf0  8fa30004	lw	r3,4(r29)
19776  00011bf4  8fa40008	lw	r4,8(r29)
19777  00011bf8  8fdffff8	lw	r31,-8(r30)
19778  00011bfc  001ee820	add	r29,r0,r30
19779  00011c00  8fdefffc	lw	r30,-4(r30)
19780  00011c04  4be00000	jr	r31
19781  00011c08  54000000	nop
19782  00011c0c          	.endproc _isxdigit
19783  00011c0c          	.align 2
19784  00011c0c          	.proc _DisableIntrs
19785  00011c0c          	.global _DisableIntrs
19786  00011c0c          	_DisableIntrs:
19787                      ;  Function 'DisableIntrs'; 0 bytes of locals, 1 regs to save.
19788  00011c0c  afbefffc	sw	-4(r29),r30; push fp
19789  00011c10  001df020	add	r30,r0,r29; fp = sp
19790  00011c14  afbffff8	sw	-8(r29),r31; push ret addr
19791  00011c18  2fbd0010	subui	r29,r29,#16; alloc local storage
19792  00011c1c  afa20000	sw	0(r29),r2
19793  00011c20  23bdfff8	addi	r29,r29,#-8
19794  00011c24  001d0820	add	r1,r0,r29
19795  00011c28  2002000f	addi	r2,r0,#15
19796  00011c2c  ac220000	sw	(r1),r2
19797  00011c30  0c000848	jal	_SetIntrs
19798  00011c34  54000000	nop; delay slot nop
19799  00011c38  23bd0008	addi	r29,r29,#8
19800  00011c3c  00011020	add	r2,r0,r1
19801  00011c40  00020820	add	r1,r0,r2
19802  00011c44  08000004	j	L9_LF8
19803  00011c48  54000000	nop; delay slot nop
19804  00011c4c          	L9_LF8:
19805  00011c4c  8fa20000	lw	r2,0(r29)
19806  00011c50  8fdffff8	lw	r31,-8(r30)
19807  00011c54  001ee820	add	r29,r0,r30
19808  00011c58  8fdefffc	lw	r30,-4(r30)
19809  00011c5c  4be00000	jr	r31
19810  00011c60  54000000	nop
19811  00011c64          	.endproc _DisableIntrs
19812  00011c64          	.align 2
19813  00011c64          	.proc _EnableIntrs
19814  00011c64          	.global _EnableIntrs
19815  00011c64          	_EnableIntrs:
19816                      ;  Function 'EnableIntrs'; 0 bytes of locals, 1 regs to save.
19817  00011c64  afbefffc	sw	-4(r29),r30; push fp
19818  00011c68  001df020	add	r30,r0,r29; fp = sp
19819  00011c6c  afbffff8	sw	-8(r29),r31; push ret addr
19820  00011c70  2fbd0010	subui	r29,r29,#16; alloc local storage
19821  00011c74  afa20000	sw	0(r29),r2
19822  00011c78  23bdfff8	addi	r29,r29,#-8
19823  00011c7c  001d0820	add	r1,r0,r29
19824  00011c80  20020000	addi	r2,r0,#0
19825  00011c84  ac220000	sw	(r1),r2
19826  00011c88  0c0007f0	jal	_SetIntrs
19827  00011c8c  54000000	nop; delay slot nop
19828  00011c90  23bd0008	addi	r29,r29,#8
19829  00011c94  00011020	add	r2,r0,r1
19830  00011c98  00020820	add	r1,r0,r2
19831  00011c9c  08000004	j	L10_LF8
19832  00011ca0  54000000	nop; delay slot nop
19833  00011ca4          	L10_LF8:
19834  00011ca4  8fa20000	lw	r2,0(r29)
19835  00011ca8  8fdffff8	lw	r31,-8(r30)
19836  00011cac  001ee820	add	r29,r0,r30
19837  00011cb0  8fdefffc	lw	r30,-4(r30)
19838  00011cb4  4be00000	jr	r31
19839  00011cb8  54000000	nop
19840  00011cbc          	.endproc _EnableIntrs
19841  00011cbc          	.align 2
19842  00011cbc          	.proc _RestoreIntrs
19843  00011cbc          	.global _RestoreIntrs
19844  00011cbc          	_RestoreIntrs:
19845                      ;  Function 'RestoreIntrs'; 0 bytes of locals, 2 regs to save.
19846  00011cbc  afbefffc	sw	-4(r29),r30; push fp
19847  00011cc0  001df020	add	r30,r0,r29; fp = sp
19848  00011cc4  afbffff8	sw	-8(r29),r31; push ret addr
19849  00011cc8  2fbd0010	subui	r29,r29,#16; alloc local storage
19850  00011ccc  afa20000	sw	0(r29),r2
19851  00011cd0  afa30004	sw	4(r29),r3
19852  00011cd4  8fc20000	lw	r2,(r30)
19853  00011cd8  23bdfff8	addi	r29,r29,#-8
19854  00011cdc  001d0820	add	r1,r0,r29
19855  00011ce0  ac220000	sw	(r1),r2
19856  00011ce4  0c000794	jal	_SetIntrs
19857  00011ce8  54000000	nop; delay slot nop
19858  00011cec  23bd0008	addi	r29,r29,#8
19859  00011cf0  00011820	add	r3,r0,r1
19860  00011cf4  00030820	add	r1,r0,r3
19861  00011cf8  08000004	j	L11_LF8
19862  00011cfc  54000000	nop; delay slot nop
19863  00011d00          	L11_LF8:
19864  00011d00  8fa20000	lw	r2,0(r29)
19865  00011d04  8fa30004	lw	r3,4(r29)
19866  00011d08  8fdffff8	lw	r31,-8(r30)
19867  00011d0c  001ee820	add	r29,r0,r30
19868  00011d10  8fdefffc	lw	r30,-4(r30)
19869  00011d14  4be00000	jr	r31
19870  00011d18  54000000	nop
19871  00011d1c          	.endproc _RestoreIntrs
19872  00011d1c          	.data
19873  000224b7          	.align 2
19874  000224b8          	_curtime_LF8:
19875  000224b8  00000000	.word 0
19876  000224bc          	.align 2
19877  000224bc          	_clock_resolution_LF8:
19878  000224bc  000003e8	.word 1000
19879  000224c0          	.align 2
19880  000224c0          	_clock_running_LF8:
19881  000224c0  00000000	.word 0
19882  000224c4          	.align 2
19883  000224c4          	_last_trigger_jiffies_LF8:
19884  000224c4  00000000	.word 0
19885  000224c8          	.text
19886  00011d1c          	.align 2
19887  00011d1c          	.proc _ClkModuleInit
19888  00011d1c          	.global _ClkModuleInit
19889  00011d1c          	_ClkModuleInit:
19890                      ;  Function 'ClkModuleInit'; 0 bytes of locals, 1 regs to save.
19891  00011d1c  afbefffc	sw	-4(r29),r30; push fp
19892  00011d20  001df020	add	r30,r0,r29; fp = sp
19893  00011d24  afbffff8	sw	-8(r29),r31; push ret addr
19894  00011d28  2fbd0010	subui	r29,r29,#16; alloc local storage
19895  00011d2c  afa20000	sw	0(r29),r2
19896  00011d30  3c010002	lhi	r1,((_curtime_LF8)>>16)&0xffff
19897  00011d34  242124b8	addui	r1,r1,(_curtime_LF8)&0xffff
19898  00011d38  20020000	addi	r2,r0,#0
19899  00011d3c  ac220000	sw	(r1),r2
19900  00011d40  3c010002	lhi	r1,((_clock_resolution_LF8)>>16)&0xffff
19901  00011d44  242124bc	addui	r1,r1,(_clock_resolution_LF8)&0xffff
19902  00011d48  200203e8	addi	r2,r0,#1000
19903  00011d4c  ac220000	sw	(r1),r2
19904  00011d50  3c010002	lhi	r1,((_clock_running_LF8)>>16)&0xffff
19905  00011d54  242124c0	addui	r1,r1,(_clock_running_LF8)&0xffff
19906  00011d58  20020000	addi	r2,r0,#0
19907  00011d5c  ac220000	sw	(r1),r2
19908  00011d60          	L12_LF8:
19909  00011d60  8fa20000	lw	r2,0(r29)
19910  00011d64  8fdffff8	lw	r31,-8(r30)
19911  00011d68  001ee820	add	r29,r0,r30
19912  00011d6c  8fdefffc	lw	r30,-4(r30)
19913  00011d70  4be00000	jr	r31
19914  00011d74  54000000	nop
19915  00011d78          	.endproc _ClkModuleInit
19916  00011d78          	.data
19917  000224c8          	.align 2
19918  000224c8          	LC0_LF8:
19919  000224c8  436c6b53	.ascii "ClkStart: clock started\n\000"
19919  000224cc  74617274	
19919  000224d0  3a20636c	
19919  000224d4  6f636b20	
19919  000224d8  73746172	
19919  000224dc  7465640a	
19919  000224e0  00      	
19920  000224e1          	.text
19921  00011d78          	.align 2
19922  00011d78          	.proc _ClkStart
19923  00011d78          	.global _ClkStart
19924  00011d78          	_ClkStart:
19925                      ;  Function 'ClkStart'; 0 bytes of locals, 2 regs to save.
19926  00011d78  afbefffc	sw	-4(r29),r30; push fp
19927  00011d7c  001df020	add	r30,r0,r29; fp = sp
19928  00011d80  afbffff8	sw	-8(r29),r31; push ret addr
19929  00011d84  2fbd0010	subui	r29,r29,#16; alloc local storage
19930  00011d88  afa20000	sw	0(r29),r2
19931  00011d8c  afa30004	sw	4(r29),r3
19932  00011d90  3c010002	lhi	r1,((_clock_running_LF8)>>16)&0xffff
19933  00011d94  242124c0	addui	r1,r1,(_clock_running_LF8)&0xffff
19934  00011d98  20020001	addi	r2,r0,#1
19935  00011d9c  ac220000	sw	(r1),r2
19936  00011da0  3c01fff0	lhi	r1,#-16
19937  00011da4  24210010	addui	r1,r1,#16
19938  00011da8  3c020002	lhi	r2,((_clock_resolution_LF8)>>16)&0xffff
19939  00011dac  244224bc	addui	r2,r2,(_clock_resolution_LF8)&0xffff
19940  00011db0  8c430000	lw	r3,(r2)
19941  00011db4  ac230000	sw	(r1),r3
19942  00011db8  23bdfff8	addi	r29,r29,#-8
19943  00011dbc  001d0820	add	r1,r0,r29
19944  00011dc0  3c020001	lhi	r2,((_debugstr)>>16)&0xffff
19945  00011dc4  244261cb	addui	r2,r2,(_debugstr)&0xffff
19946  00011dc8  ac220000	sw	(r1),r2
19947  00011dcc  20020063	addi	r2,r0,#99
19948  00011dd0  ac220004	sw	4(r1),r2
19949  00011dd4  0fff267c	jal	_dindex
19950  00011dd8  54000000	nop; delay slot nop
19951  00011ddc  23bd0008	addi	r29,r29,#8
19952  00011de0  64220000	snei	r2,r1,#0
19953  00011de4  10400024	beqz	r2,L14_LF8
19954  00011de8  54000000	nop; delay slot nop
19955  00011dec  23bdfff8	addi	r29,r29,#-8
19956  00011df0  001d0820	add	r1,r0,r29
19957  00011df4  3c020002	lhi	r2,((LC0_LF8)>>16)&0xffff
19958  00011df8  244224c8	addui	r2,r2,(LC0_LF8)&0xffff
19959  00011dfc  ac220000	sw	(r1),r2
19960  00011e00  0c000778	jal	_printf
19961  00011e04  54000000	nop; delay slot nop
19962  00011e08  23bd0008	addi	r29,r29,#8
19963  00011e0c          	L14_LF8:
19964  00011e0c  23bdfff8	addi	r29,r29,#-8
19965  00011e10  001d0820	add	r1,r0,r29
19966  00011e14  3c020001	lhi	r2,((_debugstr)>>16)&0xffff
19967  00011e18  244261cb	addui	r2,r2,(_debugstr)&0xffff
19968  00011e1c  ac220000	sw	(r1),r2
19969  00011e20  2002002b	addi	r2,r0,#43
19970  00011e24  ac220004	sw	4(r1),r2
19971  00011e28  0fff2628	jal	_dindex
19972  00011e2c  54000000	nop; delay slot nop
19973  00011e30  23bd0008	addi	r29,r29,#8
19974  00011e34  64220000	snei	r2,r1,#0
19975  00011e38  10400024	beqz	r2,L15_LF8
19976  00011e3c  54000000	nop; delay slot nop
19977  00011e40  23bdfff8	addi	r29,r29,#-8
19978  00011e44  001d0820	add	r1,r0,r29
19979  00011e48  3c020002	lhi	r2,((LC0_LF8)>>16)&0xffff
19980  00011e4c  244224c8	addui	r2,r2,(LC0_LF8)&0xffff
19981  00011e50  ac220000	sw	(r1),r2
19982  00011e54  0c000724	jal	_printf
19983  00011e58  54000000	nop; delay slot nop
19984  00011e5c  23bd0008	addi	r29,r29,#8
19985  00011e60          	L15_LF8:
19986  00011e60          	L13_LF8:
19987  00011e60  8fa20000	lw	r2,0(r29)
19988  00011e64  8fa30004	lw	r3,4(r29)
19989  00011e68  8fdffff8	lw	r31,-8(r30)
19990  00011e6c  001ee820	add	r29,r0,r30
19991  00011e70  8fdefffc	lw	r30,-4(r30)
19992  00011e74  4be00000	jr	r31
19993  00011e78  54000000	nop
19994  00011e7c          	.endproc _ClkStart
19995  00011e7c          	.align 2
19996  00011e7c          	.proc _ClkStop
19997  00011e7c          	.global _ClkStop
19998  00011e7c          	_ClkStop:
19999                      ;  Function 'ClkStop'; 0 bytes of locals, 1 regs to save.
20000  00011e7c  afbefffc	sw	-4(r29),r30; push fp
20001  00011e80  001df020	add	r30,r0,r29; fp = sp
20002  00011e84  afbffff8	sw	-8(r29),r31; push ret addr
20003  00011e88  2fbd0010	subui	r29,r29,#16; alloc local storage
20004  00011e8c  afa20000	sw	0(r29),r2
20005  00011e90  3c010002	lhi	r1,((_clock_running_LF8)>>16)&0xffff
20006  00011e94  242124c0	addui	r1,r1,(_clock_running_LF8)&0xffff
20007  00011e98  20020000	addi	r2,r0,#0
20008  00011e9c  ac220000	sw	(r1),r2
20009  00011ea0          	L16_LF8:
20010  00011ea0  8fa20000	lw	r2,0(r29)
20011  00011ea4  8fdffff8	lw	r31,-8(r30)
20012  00011ea8  001ee820	add	r29,r0,r30
20013  00011eac  8fdefffc	lw	r30,-4(r30)
20014  00011eb0  4be00000	jr	r31
20015  00011eb4  54000000	nop
20016  00011eb8          	.endproc _ClkStop
20017  00011eb8          	.data
20018  000224e1          	.align 2
20019  000224e4          	LC1_LF8:
20020  000224e4  436c6b49	.ascii "ClkInterrupt: calling ProcessSchedule\n\000"
20020  000224e8  6e746572	
20020  000224ec  72757074	
20020  000224f0  3a206361	
20020  000224f4  6c6c696e	
20020  000224f8  67205072	
20020  000224fc  6f636573	
20020  00022500  73536368	
20020  00022504  6564756c	
20020  00022508  650a00  	
20021  0002250b          	.text
20022  00011eb8          	.align 2
20023  00011eb8          	.proc _ClkInterrupt
20024  00011eb8          	.global _ClkInterrupt
20025  00011eb8          	_ClkInterrupt:
20026                      ;  Function 'ClkInterrupt'; 0 bytes of locals, 2 regs to save.
20027  00011eb8  afbefffc	sw	-4(r29),r30; push fp
20028  00011ebc  001df020	add	r30,r0,r29; fp = sp
20029  00011ec0  afbffff8	sw	-8(r29),r31; push ret addr
20030  00011ec4  2fbd0010	subui	r29,r29,#16; alloc local storage
20031  00011ec8  afa20000	sw	0(r29),r2
20032  00011ecc  afa30004	sw	4(r29),r3
20033  00011ed0  3c010002	lhi	r1,((_clock_running_LF8)>>16)&0xffff
20034  00011ed4  242124c0	addui	r1,r1,(_clock_running_LF8)&0xffff
20035  00011ed8  8c220000	lw	r2,(r1)
20036  00011edc  64410000	snei	r1,r2,#0
20037  00011ee0  10200144	beqz	r1,L18_LF8
20038  00011ee4  54000000	nop; delay slot nop
20039  00011ee8  3c020002	lhi	r2,((_curtime_LF8)>>16)&0xffff
20040  00011eec  244224b8	addui	r2,r2,(_curtime_LF8)&0xffff
20041  00011ef0  3c010002	lhi	r1,((_curtime_LF8)>>16)&0xffff
20042  00011ef4  242124b8	addui	r1,r1,(_curtime_LF8)&0xffff
20043  00011ef8  3c020002	lhi	r2,((_curtime_LF8)>>16)&0xffff
20044  00011efc  244224b8	addui	r2,r2,(_curtime_LF8)&0xffff
20045  00011f00  8c430000	lw	r3,(r2)
20046  00011f04  20620001	addi	r2,r3,#1
20047  00011f08  00021820	add	r3,r0,r2
20048  00011f0c  ac230000	sw	(r1),r3
20049  00011f10  3c01fff0	lhi	r1,#-16
20050  00011f14  24210010	addui	r1,r1,#16
20051  00011f18  3c020002	lhi	r2,((_clock_resolution_LF8)>>16)&0xffff
20052  00011f1c  244224bc	addui	r2,r2,(_clock_resolution_LF8)&0xffff
20053  00011f20  8c430000	lw	r3,(r2)
20054  00011f24  ac230000	sw	(r1),r3
20055  00011f28  3c010002	lhi	r1,((_curtime_LF8)>>16)&0xffff
20056  00011f2c  242124b8	addui	r1,r1,(_curtime_LF8)&0xffff
20057  00011f30  3c020002	lhi	r2,((_last_trigger_jiffies_LF8)>>16)&0xffff
20058  00011f34  244224c4	addui	r2,r2,(_last_trigger_jiffies_LF8)&0xffff
20059  00011f38  8c210000	lw	r1,(r1)
20060  00011f3c  8c420000	lw	r2,(r2)
20061  00011f40  00220822	sub	r1,r1,r2
20062  00011f44  6c22000a	sgti	r2,r1,#10
20063  00011f48  104000d0	beqz	r2,L19_LF8
20064  00011f4c  54000000	nop; delay slot nop
20065  00011f50  3c010002	lhi	r1,((_last_trigger_jiffies_LF8)>>16)&0xffff
20066  00011f54  242124c4	addui	r1,r1,(_last_trigger_jiffies_LF8)&0xffff
20067  00011f58  3c020002	lhi	r2,((_curtime_LF8)>>16)&0xffff
20068  00011f5c  244224b8	addui	r2,r2,(_curtime_LF8)&0xffff
20069  00011f60  8c430000	lw	r3,(r2)
20070  00011f64  ac230000	sw	(r1),r3
20071  00011f68  23bdfff8	addi	r29,r29,#-8
20072  00011f6c  001d0820	add	r1,r0,r29
20073  00011f70  3c020001	lhi	r2,((_debugstr)>>16)&0xffff
20074  00011f74  244261cb	addui	r2,r2,(_debugstr)&0xffff
20075  00011f78  ac220000	sw	(r1),r2
20076  00011f7c  20020063	addi	r2,r0,#99
20077  00011f80  ac220004	sw	4(r1),r2
20078  00011f84  0fff24cc	jal	_dindex
20079  00011f88  54000000	nop; delay slot nop
20080  00011f8c  23bd0008	addi	r29,r29,#8
20081  00011f90  64220000	snei	r2,r1,#0
20082  00011f94  10400024	beqz	r2,L20_LF8
20083  00011f98  54000000	nop; delay slot nop
20084  00011f9c  23bdfff8	addi	r29,r29,#-8
20085  00011fa0  001d0820	add	r1,r0,r29
20086  00011fa4  3c020002	lhi	r2,((LC1_LF8)>>16)&0xffff
20087  00011fa8  244224e4	addui	r2,r2,(LC1_LF8)&0xffff
20088  00011fac  ac220000	sw	(r1),r2
20089  00011fb0  0c0005c8	jal	_printf
20090  00011fb4  54000000	nop; delay slot nop
20091  00011fb8  23bd0008	addi	r29,r29,#8
20092  00011fbc          	L20_LF8:
20093  00011fbc  23bdfff8	addi	r29,r29,#-8
20094  00011fc0  001d0820	add	r1,r0,r29
20095  00011fc4  3c020001	lhi	r2,((_debugstr)>>16)&0xffff
20096  00011fc8  244261cb	addui	r2,r2,(_debugstr)&0xffff
20097  00011fcc  ac220000	sw	(r1),r2
20098  00011fd0  2002002b	addi	r2,r0,#43
20099  00011fd4  ac220004	sw	4(r1),r2
20100  00011fd8  0fff2478	jal	_dindex
20101  00011fdc  54000000	nop; delay slot nop
20102  00011fe0  23bd0008	addi	r29,r29,#8
20103  00011fe4  64220000	snei	r2,r1,#0
20104  00011fe8  10400024	beqz	r2,L21_LF8
20105  00011fec  54000000	nop; delay slot nop
20106  00011ff0  23bdfff8	addi	r29,r29,#-8
20107  00011ff4  001d0820	add	r1,r0,r29
20108  00011ff8  3c020002	lhi	r2,((LC1_LF8)>>16)&0xffff
20109  00011ffc  244224e4	addui	r2,r2,(LC1_LF8)&0xffff
20110  00012000  ac220000	sw	(r1),r2
20111  00012004  0c000574	jal	_printf
20112  00012008  54000000	nop; delay slot nop
20113  0001200c  23bd0008	addi	r29,r29,#8
20114  00012010          	L21_LF8:
20115  00012010  20010001	addi	r1,r0,#1
20116  00012014  0800001c	j	L17_LF8
20117  00012018  54000000	nop; delay slot nop
20118  0001201c          	L19_LF8:
20119  0001201c  20010000	addi	r1,r0,#0
20120  00012020  08000010	j	L17_LF8
20121  00012024  54000000	nop; delay slot nop
20122  00012028          	L18_LF8:
20123  00012028  20010000	addi	r1,r0,#0
20124  0001202c  08000004	j	L17_LF8
20125  00012030  54000000	nop; delay slot nop
20126  00012034          	L17_LF8:
20127  00012034  8fa20000	lw	r2,0(r29)
20128  00012038  8fa30004	lw	r3,4(r29)
20129  0001203c  8fdffff8	lw	r31,-8(r30)
20130  00012040  001ee820	add	r29,r0,r30
20131  00012044  8fdefffc	lw	r30,-4(r30)
20132  00012048  4be00000	jr	r31
20133  0001204c  54000000	nop
20134  00012050          	.endproc _ClkInterrupt
20135  00012050          	.align 2
20136  00012050          	.proc _ClkSetResolution
20137  00012050          	.global _ClkSetResolution
20138  00012050          	_ClkSetResolution:
20139                      ;  Function 'ClkSetResolution'; 0 bytes of locals, 1 regs to save.
20140  00012050  afbefffc	sw	-4(r29),r30; push fp
20141  00012054  001df020	add	r30,r0,r29; fp = sp
20142  00012058  afbffff8	sw	-8(r29),r31; push ret addr
20143  0001205c  2fbd0010	subui	r29,r29,#16; alloc local storage
20144  00012060  afa20000	sw	0(r29),r2
20145  00012064  8fc10000	lw	r1,(r30)
20146  00012068  3c020002	lhi	r2,((_clock_resolution_LF8)>>16)&0xffff
20147  0001206c  244224bc	addui	r2,r2,(_clock_resolution_LF8)&0xffff
20148  00012070  ac410000	sw	(r2),r1
20149  00012074          	L22_LF8:
20150  00012074  8fa20000	lw	r2,0(r29)
20151  00012078  8fdffff8	lw	r31,-8(r30)
20152  0001207c  001ee820	add	r29,r0,r30
20153  00012080  8fdefffc	lw	r30,-4(r30)
20154  00012084  4be00000	jr	r31
20155  00012088  54000000	nop
20156  0001208c          	.endproc _ClkSetResolution
20157  0001208c          	.align 2
20158  0001208c          	.proc _ClkGetResolution
20159  0001208c          	.global _ClkGetResolution
20160  0001208c          	_ClkGetResolution:
20161                      ;  Function 'ClkGetResolution'; 0 bytes of locals, 1 regs to save.
20162  0001208c  afbefffc	sw	-4(r29),r30; push fp
20163  00012090  001df020	add	r30,r0,r29; fp = sp
20164  00012094  afbffff8	sw	-8(r29),r31; push ret addr
20165  00012098  2fbd0010	subui	r29,r29,#16; alloc local storage
20166  0001209c  afa20000	sw	0(r29),r2
20167  000120a0  3c020002	lhi	r2,((_clock_resolution_LF8)>>16)&0xffff
20168  000120a4  244224bc	addui	r2,r2,(_clock_resolution_LF8)&0xffff
20169  000120a8  8c410000	lw	r1,(r2)
20170  000120ac  08000004	j	L23_LF8
20171  000120b0  54000000	nop; delay slot nop
20172  000120b4          	L23_LF8:
20173  000120b4  8fa20000	lw	r2,0(r29)
20174  000120b8  8fdffff8	lw	r31,-8(r30)
20175  000120bc  001ee820	add	r29,r0,r30
20176  000120c0  8fdefffc	lw	r30,-4(r30)
20177  000120c4  4be00000	jr	r31
20178  000120c8  54000000	nop
20179  000120cc          	.endproc _ClkGetResolution
20180  000120cc          	.data
20181  0002250b          	.align 3
20182  00022510          	LC2_LF8:
20183  00022510  412e8480	.word 0x412e8480, 0x00000000
20183  00022514  00000000	
20184                      ;;     1.0000000000000000e+06
20185  00022518          	.text
20186  000120cc          	.align 2
20187  000120cc          	.proc _ClkGetCurTime
20188  000120cc          	.global _ClkGetCurTime
20189  000120cc          	_ClkGetCurTime:
20190                      ;  Function 'ClkGetCurTime'; 0 bytes of locals, 5 regs to save.
20191  000120cc  afbefffc	sw	-4(r29),r30; push fp
20192  000120d0  001df020	add	r30,r0,r29; fp = sp
20193  000120d4  afbffff8	sw	-8(r29),r31; push ret addr
20194  000120d8  2fbd0020	subui	r29,r29,#32; alloc local storage
20195  000120dc  afa20000	sw	0(r29),r2
20196  000120e0  bfa20008	sd	8(r29),f2
20197  000120e4  bfa40010	sd	16(r29),f4
20198  000120e8  3c010002	lhi	r1,((_clock_resolution_LF8)>>16)&0xffff
20199  000120ec  242124bc	addui	r1,r1,(_clock_resolution_LF8)&0xffff
20200  000120f0  8c220000	lw	r2,(r1)
20201  000120f4  00400035	movi2fp	f0,r2
20202  000120f8  0400000d	cvti2d	f0,f0
20203  000120fc  3c010002	lhi	r1,((LC2_LF8)>>16)&0xffff
20204  00012100  24212510	addui	r1,r1,(LC2_LF8)&0xffff
20205  00012104  9c220000	ld	f2,(r1)
20206  00012108  04020007	divd	f0,f0,f2
20207  0001210c  3c010002	lhi	r1,((_curtime_LF8)>>16)&0xffff
20208  00012110  242124b8	addui	r1,r1,(_curtime_LF8)&0xffff
20209  00012114  8c220000	lw	r2,(r1)
20210  00012118  00401035	movi2fp	f2,r2
20211  0001211c  0440100d	cvti2d	f2,f2
20212  00012120  04022006	multd	f4,f0,f2
20213  00012124  00800033	movd	f0,f4
20214  00012128  08000004	j	L24_LF8
20215  0001212c  54000000	nop; delay slot nop
20216  00012130          	L24_LF8:
20217  00012130  8fa20000	lw	r2,0(r29)
20218  00012134  9fa20008	ld	f2,8(r29)
20219  00012138  9fa40010	ld	f4,16(r29)
20220  0001213c  8fdffff8	lw	r31,-8(r30)
20221  00012140  001ee820	add	r29,r0,r30
20222  00012144  8fdefffc	lw	r30,-4(r30)
20223  00012148  4be00000	jr	r31
20224  0001214c  54000000	nop
20225  00012150          	.endproc _ClkGetCurTime
20226  00012150          	.align 2
20227  00012150          	.proc _ClkGetCurJiffies
20228  00012150          	.global _ClkGetCurJiffies
20229  00012150          	_ClkGetCurJiffies:
20230                      ;  Function 'ClkGetCurJiffies'; 0 bytes of locals, 1 regs to save.
20231  00012150  afbefffc	sw	-4(r29),r30; push fp
20232  00012154  001df020	add	r30,r0,r29; fp = sp
20233  00012158  afbffff8	sw	-8(r29),r31; push ret addr
20234  0001215c  2fbd0010	subui	r29,r29,#16; alloc local storage
20235  00012160  afa20000	sw	0(r29),r2
20236  00012164  3c020002	lhi	r2,((_curtime_LF8)>>16)&0xffff
20237  00012168  244224b8	addui	r2,r2,(_curtime_LF8)&0xffff
20238  0001216c  8c410000	lw	r1,(r2)
20239  00012170  08000004	j	L25_LF8
20240  00012174  54000000	nop; delay slot nop
20241  00012178          	L25_LF8:
20242  00012178  8fa20000	lw	r2,0(r29)
20243  0001217c  8fdffff8	lw	r31,-8(r30)
20244  00012180  001ee820	add	r29,r0,r30
20245  00012184  8fdefffc	lw	r30,-4(r30)
20246  00012188  4be00000	jr	r31
20247  0001218c  54000000	nop
20248  00012190          	.endproc _ClkGetCurJiffies
20249  00012190          	.align 2
20250  00012190          	.proc _ClkResetProcess
20251  00012190          	.global _ClkResetProcess
20252  00012190          	_ClkResetProcess:
20253                      ;  Function 'ClkResetProcess'; 0 bytes of locals, 2 regs to save.
20254  00012190  afbefffc	sw	-4(r29),r30; push fp
20255  00012194  001df020	add	r30,r0,r29; fp = sp
20256  00012198  afbffff8	sw	-8(r29),r31; push ret addr
20257  0001219c  2fbd0010	subui	r29,r29,#16; alloc local storage
20258  000121a0  afa20000	sw	0(r29),r2
20259  000121a4  afa30004	sw	4(r29),r3
20260  000121a8  3c010002	lhi	r1,((_last_trigger_jiffies_LF8)>>16)&0xffff
20261  000121ac  242124c4	addui	r1,r1,(_last_trigger_jiffies_LF8)&0xffff
20262  000121b0  3c020002	lhi	r2,((_curtime_LF8)>>16)&0xffff
20263  000121b4  244224b8	addui	r2,r2,(_curtime_LF8)&0xffff
20264  000121b8  8c430000	lw	r3,(r2)
20265  000121bc  ac230000	sw	(r1),r3
20266  000121c0          	L26_LF8:
20267  000121c0  8fa20000	lw	r2,0(r29)
20268  000121c4  8fa30004	lw	r3,4(r29)
20269  000121c8  8fdffff8	lw	r31,-8(r30)
20270  000121cc  001ee820	add	r29,r0,r30
20271  000121d0  8fdefffc	lw	r30,-4(r30)
20272  000121d4  4be00000	jr	r31
20273  000121d8  54000000	nop
20274  000121dc          	.endproc _ClkResetProcess
20275                      ;;; This file just includes a single variable that contains the last address
20276                      ;;; in the operating system.  The rest of memory is available for use by
20277                      ;;; processes.
20278  000121dc          	.data
20279  00022518          	.align 2
20280  00022518          	.global _lastosaddress
20281  00022518          	_lastosaddress:
20282  00022518  00022520	.word _lastosaddress+8
20283                      ;
20284                      ; Stub functions for DLX traps.
20285                      ;
20286                      ; Aaron Sawdey 1996; released to the Public Domain.
20287                      ;
20288  0002251c          	.text
20289  000121dc          	.align 2
20290  000121dc          	.proc _random
20291  000121dc          	.global _random
20292  000121dc          	_random:
20293  000121dc  44002020	trap	#0x2020
20294  000121e0  4be00000	jr	r31
20295  000121e4  54000000	nop
20296  000121e8          	.endproc _random
20298  000121e8          	.proc _srandom
20299  000121e8          	.global _srandom
20300  000121e8          	_srandom:
20301  000121e8  44002021	trap	#0x2021
20302  000121ec  4be00000	jr	r31
20303  000121f0  54000000	nop
20304  000121f4          	.endproc _srandom
20306                      ;;; 
20307                      ;;; Initialization code for programs running in the DLX simulator.
20308                      ;;; Copyright (c) 1999 by Ethan Miller
20309                      ;;; 
20310                      ;;;
20313  000121f4          	.align 2
20315                      ;;;----------------------------------------------------------------------
20316                      ;;; osinit
20317                      ;;;
20318                      ;;; This is the first function called by the simulator, even before main.
20319                      ;;; Since it's called BEFORE any "real" routines, we can use any registers
20320                      ;;; we want as long as we don't mess up the stack or frame pointers.
20321                      ;;;
20322                      ;;; This routine loads the interrupt vector to point to the interrupt
20323                      ;;; handler later in this file.  It should never return, because _main
20324                      ;;; should call exitsim() or exit() rather than returning here.
20325                      ;;; 
20326                      ;;; After initialization is done, this routine jumps to _main to start the
20327                      ;;; C code portion of the operating system.
20328                      ;;;----------------------------------------------------------------------
20329  000121f4          	.proc _osinit
20330  000121f4          	.global _osinit
20331  000121f4          	_osinit:
20332                      ;; Set up the interrupt handler
20333  000121f4  3c010001	lhi	r1,(_intrhandler>>16)&0xffff
20334  000121f8  24212204	addui	r1,r1,_intrhandler&0xffff
20335  000121fc  00204030	movi2s	intrvec,r1
20336                      ;; Never returns because exitsim is called first
20337  00012200  0bff6460	j	_main
20338  00012204          	.endproc _osinit
20340                      ;;;----------------------------------------------------------------------
20341                      ;;; intrhandler
20342                      ;;;
20343                      ;;; Called when an interrupt or trap is received by the CPU.  It stores the
20344                      ;;; current register set on the system stack.  It then pushes the parameters
20345                      ;;; to the C interrupt handler onto the stack: the ISR, IAR, and CAUSE
20346                      ;;; registers along with the original stack pointer.  The C interrupt
20347                      ;;; handler can then copy arguments from the original stack, performing
20348                      ;;; user -> system translations if necessary.
20349                      ;;; 
20350                      ;;;----------------------------------------------------------------------
20351  00012204          	.proc _intrhandler
20352  00012204          	.global _intrhandler
20353  00012204          	_intrhandler:
20354                      ;; We can use r31 as scratch space because its value was saved in
20355                      ;; ir31.  However, we must save the "real" value of r31 on the
20356                      ;; stack.
20358                      ;; Always store the registers on the system stack.  This way, we don't
20359                      ;; have to worry about translating things from user -> system.  We
20360                      ;; use r31 as the base register because its value was saved in ir31.
20362                      ;; If this was a user process, load r29 with the current system
20363                      ;; stack pointer.  If it was a system process, just use the
20364                      ;; current stack pointer.
20365  00012204  0060f831	movs2i	r31,isr
20366  00012208  33ff0040	andi	r31,r31,0x40
20367  0001220c  17e0001c	bnez	r31,intrSystem_LF11
20368  00012210  3c1f0001	lhi	r31,(_currentPCB>>16)&0xffff
20369  00012214  27ff6294	addui	r31,r31,_currentPCB&0xffff
20370  00012218  8fff0000	lw	r31,(r31)
20371  0001221c  8fff0004	lw	r31,4(r31)
20372                      ;; Save the original (user) stack pointer
20373  00012220  affdff48	sw	-184(r31),r29; we haven't yet bumped SP, and 156-340 = -184
20374                      ;; Copy the system stack pointer into r29 (current stack pointer)
20375  00012224  37fd0000	ori	r29,r31,0
20376  00012228  10000004	beqz	r0,intrSaveReg_LF11; skip over the system part....
20377  0001222c          	intrSystem_LF11:
20378                      ;; Use the stack pointer we're already using
20379                      ;; Save r29 because we won't save it later
20380  0001222c  afbdff48	sw	-184(r29),r29; we haven't yet bumped SP, and 156-340 = -184
20381  00012230          	intrSaveReg_LF11:
20382                      ;; Adjust stack pointer for all the stuff we're going to push.  This
20383                      ;; is a bit more space than we need currently, but it leaves room
20384                      ;; for more stuff if needed.
20385  00012230  2fbd0154	subui	r29,r29,#340
20386                      ;; Push all the stuff onto the stack
20387  00012234  afa1002c	sw	44(r29),r1
20388  00012238  afa20030	sw	48(r29),r2
20389  0001223c  afa30034	sw	52(r29),r3
20390  00012240  afa40038	sw	56(r29),r4
20391  00012244  afa5003c	sw	60(r29),r5
20392  00012248  afa60040	sw	64(r29),r6
20393  0001224c  afa70044	sw	68(r29),r7
20394  00012250  afa80048	sw	72(r29),r8
20395  00012254  afa9004c	sw	76(r29),r9
20396  00012258  afaa0050	sw	80(r29),r10
20397  0001225c  afab0054	sw	84(r29),r11
20398  00012260  afac0058	sw	88(r29),r12
20399  00012264  afad005c	sw	92(r29),r13
20400  00012268  afae0060	sw	96(r29),r14
20401  0001226c  afaf0064	sw	100(r29),r15
20402  00012270  afb00068	sw	104(r29),r16
20403  00012274  afb1006c	sw	108(r29),r17
20404  00012278  afb20070	sw	112(r29),r18
20405  0001227c  afb30074	sw	116(r29),r19
20406  00012280  afb40078	sw	120(r29),r20
20407  00012284  afb5007c	sw	124(r29),r21
20408  00012288  afb60080	sw	128(r29),r22
20409  0001228c  afb70084	sw	132(r29),r23
20410  00012290  afb80088	sw	136(r29),r24
20411  00012294  afb9008c	sw	140(r29),r25
20412  00012298  afba0090	sw	144(r29),r26
20413  0001229c  afbb0094	sw	148(r29),r27
20414  000122a0  afbc0098	sw	152(r29),r28
20415                      ;; Skip r29 - stored earlier!
20416  000122a4  afbe00a0	sw	160(r29),r30
20417                      ;; Load the value of r31 from the special register and then save it
20418  000122a8  00401831	movs2i	r3,ir31
20419  000122ac  afa300a4	sw	164(r29),r3
20420                      ;; Store the floating-point registers
20421  000122b0  bfa000a8	sd	168(r29),f0
20422  000122b4  bfa200b0	sd	176(r29),f2
20423  000122b8  bfa400b8	sd	184(r29),f4
20424  000122bc  bfa600c0	sd	192(r29),f6
20425  000122c0  bfa800c8	sd	200(r29),f8
20426  000122c4  bfaa00d0	sd	208(r29),f10
20427  000122c8  bfac00d8	sd	216(r29),f12
20428  000122cc  bfae00e0	sd	224(r29),f14
20429  000122d0  bfb000e8	sd	232(r29),f16
20430  000122d4  bfb200f0	sd	240(r29),f18
20431  000122d8  bfb400f8	sd	248(r29),f20
20432  000122dc  bfb60100	sd	256(r29),f22
20433  000122e0  bfb80108	sd	264(r29),f24
20434  000122e4  bfba0110	sd	272(r29),f26
20435  000122e8  bfbc0118	sd	280(r29),f28
20436  000122ec  bfbe0120	sd	288(r29),f30
20437                      ;; NOTE: we don't save the interrupt vector register because it
20438                      ;; doesn't change from process to process.
20439                      ;; NOTE: we don't save the status register because most of the flags
20440                      ;; are the same from process to process if they're in the interrupt
20441                      ;; handler.  Of course, we DO save the ISR.
20442  000122f0  00802031	movs2i	r4,iar
20443  000122f4  afa40128	sw	296(r29),r4
20444  000122f8  00602831	movs2i	r5,isr
20445  000122fc  afa5012c	sw	300(r29),r5
20446  00012300  00c03031	movs2i	r6,cause
20447  00012304  afa60130	sw	304(r29),r6
20448  00012308  01201831	movs2i	r3,fault
20449  0001230c  afa30134	sw	308(r29),r3
20450  00012310  01801831	movs2i	r3,ptbase
20451  00012314  afa30138	sw	312(r29),r3
20452  00012318  01a01831	movs2i	r3,ptsize
20453  0001231c  afa3013c	sw	316(r29),r3
20454  00012320  01c01831	movs2i	r3,ptbits
20455  00012324  afa30140	sw	320(r29),r3
20457                      ;; Push the interrupt information onto the stack
20458  00012328  afa60000	sw	0(r29),r6; push CAUSE
20459  0001232c  afa40004	sw	4(r29),r4; push IAR
20460  00012330  afa50008	sw	8(r29),r5; push ISR
20461                      ;; Get the original stack pointer
20462  00012334  8fa1009c	lw	r1,156(r29)
20463  00012338  afa1000c	sw	12(r29),r1
20464                      ;; Save the previous interrupt stack frame address in the current frame
20465  0001233c  3c010001	lhi	r1,(_currentPCB>>16)&0xffff
20466  00012340  24216294	addui	r1,r1,_currentPCB&0xffff
20467  00012344  8c210000	lw	r1,(r1)
20468  00012348  8c220000	lw	r2,0(r1)
20469  0001234c  afa20028	sw	40(r29),r2
20470                      ;; Save this frame address in the PCB.  This is used so the OS can
20471                      ;; easily access the current interrupt save frame
20472  00012350  ac3d0000	sw	0(r1),r29
20473                      ;; Call the "real" interrupt handler.  This will possibly switch
20474                      ;; contexts.  This call never returns; instead, a separate routine
20475                      ;; (_intrreturn) is called to return from interrupts after restoring
20476                      ;; the current context.
20477  00012354  0bffe268	j	_dointerrupt
20478  00012358  54000000	nop
20479  0001235c          	.endproc _intrhandler
20481                      ;;;----------------------------------------------------------------------
20482                      ;;; intrreturn
20483                      ;;;
20484                      ;;; Return from an interrupt or trap.  This restores all of the previously
20485                      ;;; saved registers and then returns to where the program left off.  The
20486                      ;;; current contents of the registers are destroyed.  This routine uses
20487                      ;;; the saved interrupt frame pointer, so the stack pointer need not
20488                      ;;; be correct.  Note, though, that the register contents from the previous
20489                      ;;; process must have previously been saved - in other words, call this
20490                      ;;; routine from a trap or interrupt handler.
20491                      ;;;----------------------------------------------------------------------
20492  0001235c          	.proc _intrreturn
20493  0001235c          	.global _intrreturn
20494  0001235c          	_intrreturn:
20495                      ;; Disable interrupts - this routine must be atomic, and interrupts
20496                      ;; may not be currently disabled.  Don't worry about saving registers
20497                      ;; because we're about to reload them anyway.
20498  0001235c  0ffff8ac	jal	_DisableIntrs
20499                      ;; Get our interrupt stack frame location and load it into the stack
20500                      ;; pointer.
20501  00012360  3c010001	lhi	r1,(_currentPCB>>16)&0xffff
20502  00012364  24216294	addui	r1,r1,_currentPCB&0xffff
20503  00012368  8c210000	lw	r1,0(r1)
20504  0001236c  8c3d0000	lw	r29,0(r1)
20505                      ;; Get the previous interrupt stack frame location and make it the
20506                      ;; current interrupt save frame.
20507  00012370  8fa20028	lw	r2,40(r29)
20508  00012374  ac220000	sw	0(r1),r2
20510                      ;; Reload the registers for the new process.  We don't have to
20511                      ;; load in the exact opposite order as long as we're careful to
20512                      ;; get the right values back in.
20513  00012378  8fa30128	lw	r3,296(r29)
20514  0001237c  00602030	movi2s	iar,r3
20515  00012380  8fa3012c	lw	r3,300(r29)
20516  00012384  00601830	movi2s	isr,r3
20517  00012388  8fa30130	lw	r3,304(r29)
20518  0001238c  00603030	movi2s	cause,r3
20519  00012390  8fa30134	lw	r3,308(r29)
20520  00012394  00604830	movi2s	fault,r3
20521  00012398  8fa30138	lw	r3,312(r29)
20522  0001239c  00606030	movi2s	ptbase,r3
20523  000123a0  8fa3013c	lw	r3,316(r29)
20524  000123a4  00606830	movi2s	ptsize,r3
20525  000123a8  8fa30140	lw	r3,320(r29)
20526  000123ac  00607030	movi2s	ptbits,r3
20528                      ;; Reload the floating point registers
20529  000123b0  9fa000a8	ld	f0,168(r29)
20530  000123b4  9fa200b0	ld	f2,176(r29)
20531  000123b8  9fa400b8	ld	f4,184(r29)
20532  000123bc  9fa600c0	ld	f6,192(r29)
20533  000123c0  9fa800c8	ld	f8,200(r29)
20534  000123c4  9faa00d0	ld	f10,208(r29)
20535  000123c8  9fac00d8	ld	f12,216(r29)
20536  000123cc  9fae00e0	ld	f14,224(r29)
20537  000123d0  9fb000e8	ld	f16,232(r29)
20538  000123d4  9fb200f0	ld	f18,240(r29)
20539  000123d8  9fb400f8	ld	f20,248(r29)
20540  000123dc  9fb60100	ld	f22,256(r29)
20541  000123e0  9fb80108	ld	f24,264(r29)
20542  000123e4  9fba0110	ld	f26,272(r29)
20543  000123e8  9fbc0118	ld	f28,280(r29)
20544  000123ec  9fbe0120	ld	f30,288(r29)
20546                      ;; Reload the integer registers.  We don't reload r0 because it's
20547                      ;; always 0.  We won't reload r29 here because we're using it as
20548                      ;; the stack pointer.  The same goes for r1, which we'll use as
20549                      ;; scratch so we can store r29.
20550                      ;; Skip r1 - restored later
20551  000123f0  8fa20030	lw	r2,48(r29)
20552  000123f4  8fa30034	lw	r3,52(r29)
20553  000123f8  8fa40038	lw	r4,56(r29)
20554  000123fc  8fa5003c	lw	r5,60(r29)
20555  00012400  8fa60040	lw	r6,64(r29)
20556  00012404  8fa70044	lw	r7,68(r29)
20557  00012408  8fa80048	lw	r8,72(r29)
20558  0001240c  8fa9004c	lw	r9,76(r29)
20559  00012410  8faa0050	lw	r10,80(r29)
20560  00012414  8fab0054	lw	r11,84(r29)
20561  00012418  8fac0058	lw	r12,88(r29)
20562  0001241c  8fad005c	lw	r13,92(r29)
20563  00012420  8fae0060	lw	r14,96(r29)
20564  00012424  8faf0064	lw	r15,100(r29)
20565  00012428  8fb00068	lw	r16,104(r29)
20566  0001242c  8fb1006c	lw	r17,108(r29)
20567  00012430  8fb20070	lw	r18,112(r29)
20568  00012434  8fb30074	lw	r19,116(r29)
20569  00012438  8fb40078	lw	r20,120(r29)
20570  0001243c  8fb5007c	lw	r21,124(r29)
20571  00012440  8fb60080	lw	r22,128(r29)
20572  00012444  8fb70084	lw	r23,132(r29)
20573  00012448  8fb80088	lw	r24,136(r29)
20574  0001244c  8fb9008c	lw	r25,140(r29)
20575  00012450  8fba0090	lw	r26,144(r29)
20576  00012454  8fbb0094	lw	r27,148(r29)
20577  00012458  8fbc0098	lw	r28,152(r29)
20578                      ;; Skip r29 - restored later
20579  0001245c  8fbe00a0	lw	r30,160(r29)
20580  00012460  8fbf00a4	lw	r31,164(r29)
20582  00012464  27bd0154	addui	r29,r29,#340
20583                      ;; Save the current value of the stack pointer after adjusting it
20584                      ;; Note that this will "destroy" the stack values below this interrupt
20585                      ;; stack frame.  This is exactly what we want!
20586  00012468  ac3d0004	sw	4(r1),r29
20587  0001246c  37a10000	ori	r1,r29,#0
20588  00012470  8c3dff48	lw	r29,-184(r1); 156-340 = -184
20589  00012474  8c21fed8	lw	r1,-296(r1); 44-340 = -296
20590  00012478  40000000	rfe
20591  0001247c          	.endproc _intrreturn
20593                      ;;;----------------------------------------------------------------------
20594                      ;;; SetIntrs
20595                      ;;;
20596                      ;;; This routine sets the interrupt level to the value passed (0 -> all
20597                      ;;; interrupts enabled; 0xf -> all interrupts disabled).  It returns the
20598                      ;;; former value for the interrupt flags.
20599                      ;;;----------------------------------------------------------------------
20600  0001247c          	.proc _SetIntrs
20601  0001247c          	.global _SetIntrs
20602  0001247c          	_SetIntrs:
20603  0001247c  2fbd0010	subui	r29,r29,#16
20604  00012480  afa2000c	sw	12(r29),r2; save r2
20605  00012484  8fa20010	lw	r2,16(r29); Get the new interrupt level
20606  00012488  3042000f	andi	r2,r2,#0x0f; Mask off interrupt levels
20607  0001248c  00a00831	movs2i	r1,status
20608  00012490  afa10008	sw	8(r29),r1; Store the old interrupt values
20609  00012494  3021fff0	andi	r1,r1,#0xfff0; Mask off old interrupt level
20610  00012498  00410825	or	r1,r2,r1; OR in new interrupt level
20611  0001249c  00202830	movi2s	status,r1
20612  000124a0  8fa10008	lw	r1,8(r29); Get back the original interrupt level
20613  000124a4  3021000f	andi	r1,r1,#0x0f; Mask off all but interrupt levels
20614  000124a8  8fa2000c	lw	r2,12(r29); restore r2
20615  000124ac  27bd0010	addui	r29,r29,#16; restore stack pointer
20616  000124b0  4be00000	jr	r31
20617  000124b4  54000000	nop
20618  000124b8          	.endproc _SetIntrs
20620  000124b8          	.proc _CurrentIntrs
20621  000124b8          	.global _CurrentIntrs
20622  000124b8          	_CurrentIntrs:
20623  000124b8  00a00831	movs2i	r1,status
20624  000124bc  3021000f	andi	r1,r1,#0xf
20625  000124c0  4be00000	jr	r31
20626  000124c4  54000000	nop
20627  000124c8          	.endproc _CurrentIntrs
20628                      ;;;----------------------------------------------------------------------
20629                      ;;; _ProcessSleep
20630                      ;;;
20631                      ;;; If a context switch from elsewhere in the kernel is desired, take a
20632                      ;;; trap and call this routine from the trap handler.
20633                      ;;;----------------------------------------------------------------------
20634  000124c8          	.proc _ProcessSleep
20635  000124c8          	.global _ProcessSleep
20636  000124c8          	_ProcessSleep:
20637  000124c8  44000410	trap	#0x410; This is a process sleep trap
20638  000124cc  54000000	nop
20639  000124d0  4be00000	jr	r31
20640  000124d4  54000000	nop
20641  000124d8          	.endproc _ProcessSleep
20643                      ;;; Ethan L. Miller, 1999.  Released to the public domain
20644                      ;;;
20645                      ;;; Most of the traps are called in files from libtraps.
20648  000124d8          	.align 2
20649  000124d8          	.proc _exit
20650  000124d8          	.global _exit
20651  000124d8          	_exit:
20652  000124d8  44000300	trap	#0x300
20653  000124dc  4be00000	jr	r31
20654  000124e0  54000000	nop
20655  000124e4          	.endproc _exit
20657                      ; for the benefit of gcc.
20658  000124e4          	.proc ___main
20659  000124e4          	.global ___main
20660  000124e4          	___main:
20661  000124e4  4be00000	jr	r31
20662  000124e8  54000000	nop
20663  000124ec          	.endproc ___main
20664                      ;;;
20665                      ;;; Stub functions for DLX traps.
20666                      ;;;
20667                      ;;; Ethan L. Miller, 1999.  Released to the public domain.
20668                      ;;;
20669                      ;;; There are two sets of traps here.  The traps such as Open and Close
20670                      ;;; (note the capital letters) are for use by user programs.  The traps
20671                      ;;; with names such as open and close (lower case) are for use by the OS.
20672                      ;;;
20675  000124ec          	.align 2
20676  000124ec          	.proc _open
20677  000124ec          	.global _open
20678  000124ec          	_open:
20679  000124ec  44002013	trap	#0x2013
20680  000124f0  4be00000	jr	r31
20681  000124f4  54000000	nop
20682  000124f8          	.endproc _open
20684  000124f8          	.proc _close
20685  000124f8          	.global _close
20686  000124f8          	_close:
20687  000124f8  44002014	trap	#0x2014
20688  000124fc  4be00000	jr	r31
20689  00012500  54000000	nop
20690  00012504          	.endproc _close
20692  00012504          	.proc _read
20693  00012504          	.global _read
20694  00012504          	_read:
20695  00012504  44002010	trap	#0x2010
20696  00012508  4be00000	jr	r31
20697  0001250c  54000000	nop
20698  00012510          	.endproc _read
20700  00012510          	.proc _write
20701  00012510          	.global _write
20702  00012510          	_write:
20703  00012510  44002011	trap	#0x2011
20704  00012514  4be00000	jr	r31
20705  00012518  54000000	nop
20706  0001251c          	.endproc _write
20708  0001251c          	.proc _lseek
20709  0001251c          	.global _lseek
20710  0001251c          	_lseek:
20711  0001251c  44002012	trap	#0x2012
20712  00012520  4be00000	jr	r31
20713  00012524  54000000	nop
20714  00012528          	.endproc _lseek
20716                      ;;; The following are the traps to be used by user-level programs
20717                      ;;;
20719  00012528          	.align 2
20720  00012528          	.proc _Open
20721  00012528          	.global _Open
20722  00012528          	_Open:
20723  00012528  44000213	trap	#0x213
20724  0001252c  4be00000	jr	r31
20725  00012530  54000000	nop
20726  00012534          	.endproc _Open
20728  00012534          	.proc _Close
20729  00012534          	.global _Close
20730  00012534          	_Close:
20731  00012534  44000214	trap	#0x214
20732  00012538  4be00000	jr	r31
20733  0001253c  54000000	nop
20734  00012540          	.endproc _Close
20736  00012540          	.proc _Read
20737  00012540          	.global _Read
20738  00012540          	_Read:
20739  00012540  44000210	trap	#0x210
20740  00012544  4be00000	jr	r31
20741  00012548  54000000	nop
20742  0001254c          	.endproc _Read
20744  0001254c          	.proc _Write
20745  0001254c          	.global _Write
20746  0001254c          	_Write:
20747  0001254c  44000211	trap	#0x211
20748  00012550  4be00000	jr	r31
20749  00012554  54000000	nop
20750  00012558          	.endproc _Write
20752  00012558          	.proc _Lseek
20753  00012558          	.global _Lseek
20754  00012558          	_Lseek:
20755  00012558  44000212	trap	#0x212
20756  0001255c  4be00000	jr	r31
20757  00012560  54000000	nop
20758  00012564          	.endproc _Lseek
20760                      ;;;
20761                      ;;; Stub functions for DLX traps.
20762                      ;;;
20763                      ;;; Ethan L. Miller, 1999.  Released to the public domain.
20764                      ;;;
20765                      ;;; There are two exit traps.  The first, _exitsim, actually exits the
20766                      ;;; simulator.  The second, _exit, simply calls a regular trap in the
20767                      ;;; DLX simulator, and would be suitable for a user program that wants
20768                      ;;; to signal the OS that it's exiting.
20769                      ;;;
20770                      ;;; IMPORTANT: all code that's run "native" on the simulator - OS code and
20771                      ;;; programs run without an OS - should call exitsim() rather than just
20772                      ;;; falling through to exit.
20773                      ;;;
20776  00012564          	.align 2
20777  00012564          	.proc _exitsim
20778  00012564          	.global _exitsim
20779  00012564          	_exitsim:
20780  00012564  44002f00	trap	#0x2f00
20781  00012568  4be00000	jr	r31
20782  0001256c  54000000	nop
20783  00012570          	.endproc _exitsim
20785  00012570          	.proc _exit
20786  00012570          	.global _exit
20787  00012570          	_exit:
20788  00012570  44000300	trap	#0x300
20789  00012574  4be00000	jr	r31
20790  00012578  54000000	nop
20791  0001257c          	.endproc _exit
20793                      ;
20794                      ; Stub functions for DLX traps.
20795                      ;
20796                      ; Aaron Sawdey 1996; released to the Public Domain.
20797                      ;
20799  0001257c          	.proc _printf
20800  0001257c          	.global _printf
20801  0001257c          	_printf:
20802  0001257c  44002001	trap	#0x2001
20803  00012580  4be00000	jr	r31
20804  00012584  54000000	nop
20805  00012588          	.endproc _printf
20807  00012588          	.text
20808  00012588          	.global _etext
20809  00012588          	_etext:
20810  00012588          	.align 3
20811  00012588          	.data
20812  0002251c          	.global _edata
20813  0002251c          	_edata:
